
final_outbin22:     file format binary


Disassembly of section .data:

00000000 <.data>:
       0:	ea000022 	b	0x90
       4:	e59ff018 	ldr	pc, [pc, #24]	; 0x24
       8:	e59ff018 	ldr	pc, [pc, #24]	; 0x28
       c:	e59ff018 	ldr	pc, [pc, #24]	; 0x2c
      10:	e59ff018 	ldr	pc, [pc, #24]	; 0x30
      14:	e59ff018 	ldr	pc, [pc, #24]	; 0x34
      18:	e59ff018 	ldr	pc, [pc, #24]	; 0x38
      1c:	e59ff018 	ldr	pc, [pc, #24]	; 0x3c
      20:	00204090 	mlaeq	r0, r0, r0, r4
      24:	00204350 	eoreq	r4, r0, r0, asr r3
      28:	00204364 	eoreq	r4, r0, r4, ror #6
      2c:	0020436c 	eoreq	r4, r0, ip, ror #6
      30:	00204380 	eoreq	r4, r0, r0, lsl #7
      34:	0020438c 	eoreq	r4, r0, ip, lsl #7
      38:	002043a0 	eoreq	r4, r0, r0, lsr #7
      3c:	002043d0 	ldrdeq	r4, [r0], -r0	; <UNPREDICTABLE>
      40:	00217e4c 	eoreq	r7, r1, ip, asr #28
      44:	0021834c 	eoreq	r8, r1, ip, asr #6
      48:	0021846c 	eoreq	r8, r1, ip, ror #8
      4c:	002182cc 	eoreq	r8, r1, ip, asr #5
      50:	0021844c 	eoreq	r8, r1, ip, asr #8
      54:	002183cc 	eoreq	r8, r1, ip, asr #7
      58:	00217ecc 	eoreq	r7, r1, ip, asr #29
      5c:	00214be0 	eoreq	r4, r1, r0, ror #23
      60:	00214be4 	eoreq	r4, r1, r4, ror #23
      64:	00214be8 	eoreq	r4, r1, r8, ror #23
      68:	00214bf0 	strdeq	r4, [r1], -r0	; <UNPREDICTABLE>
      6c:	00214bec 	eoreq	r4, r1, ip, ror #23
      70:	00214bf4 	strdeq	r4, [r1], -r4	; <UNPREDICTABLE>
      74:	00214bf8 	strdeq	r4, [r1], -r8	; <UNPREDICTABLE>
      78:	00204000 	eoreq	r4, r0, r0
      7c:	00218498 	mlaeq	r1, r8, r4, r8
      80:	00000000 	andeq	r0, r0, r0
      84:	00216dc0 	eoreq	r6, r1, r0, asr #27
      88:	00215940 	eoreq	r5, r1, r0, asr #18
      8c:	00218498 	mlaeq	r1, r8, r4, r8
      90:	ee100fb0 	mrc	15, 0, r0, cr0, cr0, {5}
      94:	e2000003 	and	r0, r0, #3
      98:	e3500000 	cmp	r0, #0
      9c:	0b000029 	bleq	0x148
      a0:	e1a0400f 	mov	r4, pc
      a4:	e1a04724 	lsr	r4, r4, #14
      a8:	e1a04704 	lsl	r4, r4, #14
      ac:	e2444901 	sub	r4, r4, #16384	; 0x4000
      b0:	eb000025 	bl	0x14c
      b4:	ee110f30 	mrc	15, 0, r0, cr1, cr0, {1}
      b8:	e3800040 	orr	r0, r0, #64	; 0x40
      bc:	ee010f30 	mcr	15, 0, r0, cr1, cr0, {1}
      c0:	ee130f10 	mrc	15, 0, r0, cr3, cr0, {0}
      c4:	e3800003 	orr	r0, r0, #3
      c8:	ee030f10 	mcr	15, 0, r0, cr3, cr0, {0}
      cc:	ee024f10 	mcr	15, 0, r4, cr2, cr0, {0}
      d0:	e3a00000 	mov	r0, #0
      d4:	ee080f13 	mcr	15, 0, r0, cr8, cr3, {0}
      d8:	e28f5060 	add	r5, pc, #96	; 0x60
      dc:	e8950060 	ldm	r5, {r5, r6}
      e0:	ee110f10 	mrc	15, 0, r0, cr1, cr0, {0}
      e4:	e1c00005 	bic	r0, r0, r5
      e8:	e1800006 	orr	r0, r0, r6
      ec:	ee010f10 	mcr	15, 0, r0, cr1, cr0, {0}
      f0:	e320f000 	nop	{0}
      f4:	e320f000 	nop	{0}
      f8:	e320f000 	nop	{0}
      fc:	e320f000 	nop	{0}
     100:	e320f000 	nop	{0}
     104:	e320f000 	nop	{0}
     108:	e51f0088 	ldr	r0, [pc, #-136]	; 0x88
     10c:	e51f1088 	ldr	r1, [pc, #-136]	; 0x8c
     110:	e3a02000 	mov	r2, #0
     114:	e3a03000 	mov	r3, #0
     118:	e0c020f8 	strd	r2, [r0], #8
     11c:	e1500001 	cmp	r0, r1
     120:	1afffffc 	bne	0x118
     124:	e51f00a8 	ldr	r0, [pc, #-168]	; 0x84
     128:	e5804000 	str	r4, [r0]
     12c:	eb000032 	bl	0x1fc
     130:	eb000085 	bl	0x34c
     134:	e59f038c 	ldr	r0, [pc, #908]	; 0x4c8
     138:	e1a0f000 	mov	pc, r0
     13c:	eafffffe 	b	0x13c
     140:	0120db06 	teqeq	r0, r6, lsl #22
     144:	00002401 	andeq	r2, r0, r1, lsl #8
     148:	e12fff1e 	bx	lr
     14c:	e1a00004 	mov	r0, r4
     150:	e2841901 	add	r1, r4, #16384	; 0x4000
     154:	e3a02000 	mov	r2, #0
     158:	e3a03000 	mov	r3, #0
     15c:	e0c020f8 	strd	r2, [r0], #8
     160:	e1500001 	cmp	r0, r1
     164:	1afffffc 	bne	0x15c
     168:	e1a0600f 	mov	r6, pc
     16c:	e1a03006 	mov	r3, r6
     170:	e59f7354 	ldr	r7, [pc, #852]	; 0x4cc
     174:	e1a06a26 	lsr	r6, r6, #20
     178:	e1a06106 	lsl	r6, r6, #2
     17c:	e0840006 	add	r0, r4, r6
     180:	e1a03a23 	lsr	r3, r3, #20
     184:	e1873a03 	orr	r3, r7, r3, lsl #20
     188:	e5803000 	str	r3, [r0]
     18c:	e51f604c 	ldr	r6, [pc, #-76]	; 0x148
     190:	e2800004 	add	r0, r0, #4
     194:	e1a06a26 	lsr	r6, r6, #20
     198:	e1a06106 	lsl	r6, r6, #2
     19c:	e0846006 	add	r6, r4, r6
     1a0:	e1500006 	cmp	r0, r6
     1a4:	e2833601 	add	r3, r3, #1048576	; 0x100000
     1a8:	94803004 	strls	r3, [r0], #4
     1ac:	9afffffb 	bls	0x1a0
     1b0:	e51f6140 	ldr	r6, [pc, #-320]	; 0x78
     1b4:	e59f7310 	ldr	r7, [pc, #784]	; 0x4cc
     1b8:	e1a06a26 	lsr	r6, r6, #20
     1bc:	e1a06106 	lsl	r6, r6, #2
     1c0:	e0840006 	add	r0, r4, r6
     1c4:	e1a0300f 	mov	r3, pc
     1c8:	e1a03a23 	lsr	r3, r3, #20
     1cc:	e1873a03 	orr	r3, r7, r3, lsl #20
     1d0:	e5803000 	str	r3, [r0]
     1d4:	e51f6160 	ldr	r6, [pc, #-352]	; 0x7c
     1d8:	e2800004 	add	r0, r0, #4
     1dc:	e1a06a26 	lsr	r6, r6, #20
     1e0:	e1a06106 	lsl	r6, r6, #2
     1e4:	e0846006 	add	r6, r4, r6
     1e8:	e1500006 	cmp	r0, r6
     1ec:	e2833601 	add	r3, r3, #1048576	; 0x100000
     1f0:	94803004 	strls	r3, [r0], #4
     1f4:	9afffffb 	bls	0x1e8
     1f8:	e12fff1e 	bx	lr
     1fc:	e51f01ac 	ldr	r0, [pc, #-428]	; 0x58
     200:	e51f2194 	ldr	r2, [pc, #-404]	; 0x74
     204:	e59f32c4 	ldr	r3, [pc, #708]	; 0x4d0
     208:	e5803000 	str	r3, [r0]
     20c:	e5921000 	ldr	r1, [r2]
     210:	e2411004 	sub	r1, r1, #4
     214:	e0800001 	add	r0, r0, r1
     218:	e1a0d000 	mov	sp, r0
     21c:	e51f01d0 	ldr	r0, [pc, #-464]	; 0x54
     220:	e51f21b8 	ldr	r2, [pc, #-440]	; 0x70
     224:	e59f32a4 	ldr	r3, [pc, #676]	; 0x4d0
     228:	e5803000 	str	r3, [r0]
     22c:	e5921000 	ldr	r1, [r2]
     230:	e2411004 	sub	r1, r1, #4
     234:	e0800001 	add	r0, r0, r1
     238:	e10f1000 	mrs	r1, CPSR
     23c:	e381101f 	orr	r1, r1, #31
     240:	e12ff001 	msr	CPSR_fsxc, r1
     244:	e1a0d000 	mov	sp, r0
     248:	e51f0200 	ldr	r0, [pc, #-512]	; 0x50
     24c:	e51f21e8 	ldr	r2, [pc, #-488]	; 0x6c
     250:	e59f3278 	ldr	r3, [pc, #632]	; 0x4d0
     254:	e5803000 	str	r3, [r0]
     258:	e5921000 	ldr	r1, [r2]
     25c:	e2411004 	sub	r1, r1, #4
     260:	e0800001 	add	r0, r0, r1
     264:	e10f1000 	mrs	r1, CPSR
     268:	e3c1101f 	bic	r1, r1, #31
     26c:	e381101b 	orr	r1, r1, #27
     270:	e12ff001 	msr	CPSR_fsxc, r1
     274:	e1a0d000 	mov	sp, r0
     278:	e51f0234 	ldr	r0, [pc, #-564]	; 0x4c
     27c:	e51f221c 	ldr	r2, [pc, #-540]	; 0x68
     280:	e59f3248 	ldr	r3, [pc, #584]	; 0x4d0
     284:	e5803000 	str	r3, [r0]
     288:	e5921000 	ldr	r1, [r2]
     28c:	e2411004 	sub	r1, r1, #4
     290:	e0800001 	add	r0, r0, r1
     294:	e10f1000 	mrs	r1, CPSR
     298:	e3c1101f 	bic	r1, r1, #31
     29c:	e3811016 	orr	r1, r1, #22
     2a0:	e12ff001 	msr	CPSR_fsxc, r1
     2a4:	e1a0d000 	mov	sp, r0
     2a8:	e51f0268 	ldr	r0, [pc, #-616]	; 0x48
     2ac:	e51f2250 	ldr	r2, [pc, #-592]	; 0x64
     2b0:	e59f3218 	ldr	r3, [pc, #536]	; 0x4d0
     2b4:	e5803000 	str	r3, [r0]
     2b8:	e5921000 	ldr	r1, [r2]
     2bc:	e2411004 	sub	r1, r1, #4
     2c0:	e0800001 	add	r0, r0, r1
     2c4:	e10f1000 	mrs	r1, CPSR
     2c8:	e3c1101f 	bic	r1, r1, #31
     2cc:	e3811017 	orr	r1, r1, #23
     2d0:	e12ff001 	msr	CPSR_fsxc, r1
     2d4:	e1a0d000 	mov	sp, r0
     2d8:	e51f029c 	ldr	r0, [pc, #-668]	; 0x44
     2dc:	e51f2284 	ldr	r2, [pc, #-644]	; 0x60
     2e0:	e59f31e8 	ldr	r3, [pc, #488]	; 0x4d0
     2e4:	e5803000 	str	r3, [r0]
     2e8:	e5921000 	ldr	r1, [r2]
     2ec:	e2411004 	sub	r1, r1, #4
     2f0:	e0800001 	add	r0, r0, r1
     2f4:	e10f1000 	mrs	r1, CPSR
     2f8:	e3c1101f 	bic	r1, r1, #31
     2fc:	e3811011 	orr	r1, r1, #17
     300:	e12ff001 	msr	CPSR_fsxc, r1
     304:	e1a0d000 	mov	sp, r0
     308:	e51f02d0 	ldr	r0, [pc, #-720]	; 0x40
     30c:	e51f22b8 	ldr	r2, [pc, #-696]	; 0x5c
     310:	e59f31b8 	ldr	r3, [pc, #440]	; 0x4d0
     314:	e5803000 	str	r3, [r0]
     318:	e5921000 	ldr	r1, [r2]
     31c:	e2411004 	sub	r1, r1, #4
     320:	e0800001 	add	r0, r0, r1
     324:	e10f1000 	mrs	r1, CPSR
     328:	e3c1101f 	bic	r1, r1, #31
     32c:	e3811012 	orr	r1, r1, #18
     330:	e12ff001 	msr	CPSR_fsxc, r1
     334:	e1a0d000 	mov	sp, r0
     338:	e10f1000 	mrs	r1, CPSR
     33c:	e3c1101f 	bic	r1, r1, #31
     340:	e3811013 	orr	r1, r1, #19
     344:	e12ff001 	msr	CPSR_fsxc, r1
     348:	e12fff1e 	bx	lr
     34c:	e12fff1e 	bx	lr
     350:	e92d4003 	push	{r0, r1, lr}
     354:	e3a00001 	mov	r0, #1
     358:	e1a0100e 	mov	r1, lr
     35c:	eb0001b5 	bl	0xa38
     360:	e8fd8003 	ldm	sp!, {r0, r1, pc}^
     364:	e1a0000e 	mov	r0, lr
     368:	e12fff10 	bx	r0
     36c:	e1a0000e 	mov	r0, lr
     370:	eb0001dd 	bl	0xaec
     374:	e14f1000 	mrs	r1, SPSR
     378:	e12ff001 	msr	CPSR_fsxc, r1
     37c:	e12fff1e 	bx	lr
     380:	e24e0004 	sub	r0, lr, #4
     384:	eb0001c6 	bl	0xaa4
     388:	e12fff10 	bx	r0
     38c:	e92d4003 	push	{r0, r1, lr}
     390:	e3a00005 	mov	r0, #5
     394:	e1a0100e 	mov	r1, lr
     398:	eb0001a6 	bl	0xa38
     39c:	e8fd8003 	ldm	sp!, {r0, r1, pc}^
     3a0:	e92d0002 	push	{r1}
     3a4:	e14f1000 	mrs	r1, SPSR
     3a8:	e3110080 	tst	r1, #128	; 0x80
     3ac:	e8bd0002 	pop	{r1}
     3b0:	125ef004 	subsne	pc, lr, #4
     3b4:	e92d000f 	push	{r0, r1, r2, r3}
     3b8:	e24e3004 	sub	r3, lr, #4
     3bc:	eb00000f 	bl	0x400
     3c0:	eb0001ff 	bl	0xbc4
     3c4:	e49d0004 	pop	{r0}		; (ldr r0, [sp], #4)
     3c8:	e16ff000 	msr	SPSR_fsxc, r0
     3cc:	e8ddffff 	ldm	sp, {r0, r1, r2, r3, r4, r5, r6, r7, r8, r9, sl, fp, ip, sp, lr, pc}^
     3d0:	e92d0002 	push	{r1}
     3d4:	e14f1000 	mrs	r1, SPSR
     3d8:	e3110040 	tst	r1, #64	; 0x40
     3dc:	e8bd0002 	pop	{r1}
     3e0:	125ef004 	subsne	pc, lr, #4
     3e4:	e92d000f 	push	{r0, r1, r2, r3}
     3e8:	e24e3004 	sub	r3, lr, #4
     3ec:	eb000003 	bl	0x400
     3f0:	eb00018f 	bl	0xa34
     3f4:	e49d0004 	pop	{r0}		; (ldr r0, [sp], #4)
     3f8:	e16ff000 	msr	SPSR_fsxc, r0
     3fc:	e8ddffff 	ldm	sp, {r0, r1, r2, r3, r4, r5, r6, r7, r8, r9, sl, fp, ip, sp, lr, pc}^
     400:	e92d0070 	push	{r4, r5, r6}
     404:	e14f4000 	mrs	r4, SPSR
     408:	e1a0500e 	mov	r5, lr
     40c:	e1a0600d 	mov	r6, sp
     410:	e28dd01c 	add	sp, sp, #28
     414:	e10f0000 	mrs	r0, CPSR
     418:	e3c0001f 	bic	r0, r0, #31
     41c:	e3800013 	orr	r0, r0, #19
     420:	e12ff000 	msr	CPSR_fsxc, r0
     424:	e1a0100d 	mov	r1, sp
     428:	e320f000 	nop	{0}
     42c:	e5213004 	str	r3, [r1, #-4]!
     430:	e1a03009 	mov	r3, r9
     434:	e9217f80 	stmdb	r1!, {r7, r8, r9, sl, fp, ip, sp, lr}
     438:	e1a0d001 	mov	sp, r1
     43c:	e8b60380 	ldm	r6!, {r7, r8, r9}
     440:	e92d0380 	push	{r7, r8, r9}
     444:	e1a09003 	mov	r9, r3
     448:	e896000f 	ldm	r6, {r0, r1, r2, r3}
     44c:	e92d000f 	push	{r0, r1, r2, r3}
     450:	e52d4004 	push	{r4}		; (str r4, [sp, #-4]!)
     454:	e12fff15 	bx	r5
     458:	e10f0000 	mrs	r0, CPSR
     45c:	e3c00080 	bic	r0, r0, #128	; 0x80
     460:	e12ff000 	msr	CPSR_fsxc, r0
     464:	e12fff1e 	bx	lr
     468:	e10f0000 	mrs	r0, CPSR
     46c:	e3800080 	orr	r0, r0, #128	; 0x80
     470:	e12ff000 	msr	CPSR_fsxc, r0
     474:	e12fff1e 	bx	lr
     478:	e10f0000 	mrs	r0, CPSR
     47c:	e3c00040 	bic	r0, r0, #64	; 0x40
     480:	e12ff000 	msr	CPSR_fsxc, r0
     484:	e12fff1e 	bx	lr
     488:	e10f0000 	mrs	r0, CPSR
     48c:	e3800040 	orr	r0, r0, #64	; 0x40
     490:	e12ff000 	msr	CPSR_fsxc, r0
     494:	e12fff1e 	bx	lr
     498:	e10f1000 	mrs	r1, CPSR
     49c:	e1a00001 	mov	r0, r1
     4a0:	e3811080 	orr	r1, r1, #128	; 0x80
     4a4:	e3811040 	orr	r1, r1, #64	; 0x40
     4a8:	e12ff001 	msr	CPSR_fsxc, r1
     4ac:	e12fff1e 	bx	lr
     4b0:	e10f1000 	mrs	r1, CPSR
     4b4:	e20020c0 	and	r2, r0, #192	; 0xc0
     4b8:	e3c110c0 	bic	r1, r1, #192	; 0xc0
     4bc:	e1810002 	orr	r0, r1, r2
     4c0:	e12ff000 	msr	CPSR_fsxc, r0
     4c4:	e12fff1e 	bx	lr
     4c8:	00205b90 	mlaeq	r0, r0, fp, r5
     4cc:	00000c0e 	andeq	r0, r0, lr, lsl #24
     4d0:	deadbeef 	cdple	14, 10, cr11, cr13, cr15, {7}
     4d4:	e92d4ff0 	push	{r4, r5, r6, r7, r8, r9, sl, fp, lr}
     4d8:	e3c04eff 	bic	r4, r0, #4080	; 0xff0
     4dc:	e3c15eff 	bic	r5, r1, #4080	; 0xff0
     4e0:	e2828eff 	add	r8, r2, #4080	; 0xff0
     4e4:	e2536000 	subs	r6, r3, #0
     4e8:	e288800f 	add	r8, r8, #15
     4ec:	e59f7414 	ldr	r7, [pc, #1044]	; 0x908
     4f0:	e3c88eff 	bic	r8, r8, #4080	; 0xff0
     4f4:	e08f7007 	add	r7, pc, r7
     4f8:	e24dd024 	sub	sp, sp, #36	; 0x24
     4fc:	e3c4400f 	bic	r4, r4, #15
     500:	e3c5500f 	bic	r5, r5, #15
     504:	e3c8800f 	bic	r8, r8, #15
     508:	b3c63103 	biclt	r3, r6, #-1073741824	; 0xc0000000
     50c:	ba000012 	blt	0x55c
     510:	03a03001 	moveq	r3, #1
     514:	0a000010 	beq	0x55c
     518:	e3560001 	cmp	r6, #1
     51c:	03a03008 	moveq	r3, #8
     520:	0a00000d 	beq	0x55c
     524:	e3560002 	cmp	r6, #2
     528:	13560005 	cmpne	r6, #5
     52c:	03a03003 	moveq	r3, #3
     530:	0a000009 	beq	0x55c
     534:	e3560003 	cmp	r6, #3
     538:	0a000006 	beq	0x558
     53c:	e3560004 	cmp	r6, #4
     540:	13560006 	cmpne	r6, #6
     544:	03a03004 	moveq	r3, #4
     548:	0a000003 	beq	0x55c
     54c:	e3560007 	cmp	r6, #7
     550:	03a03002 	moveq	r3, #2
     554:	0a000000 	beq	0x55c
     558:	e3a03000 	mov	r3, #0
     55c:	e2461005 	sub	r1, r6, #5
     560:	e3510001 	cmp	r1, #1
     564:	e58d1004 	str	r1, [sp, #4]
     568:	93a02001 	movls	r2, #1
     56c:	9a000003 	bls	0x580
     570:	e2062103 	and	r2, r6, #-1073741824	; 0xc0000000
     574:	e3520103 	cmp	r2, #-1073741824	; 0xc0000000
     578:	13a02000 	movne	r2, #0
     57c:	03a02001 	moveq	r2, #1
     580:	e1859004 	orr	r9, r5, r4
     584:	e1899008 	orr	r9, r9, r8
     588:	e3c994ff 	bic	r9, r9, #-16777216	; 0xff000000
     58c:	e3d9960f 	bics	r9, r9, #15728640	; 0xf00000
     590:	1a000040 	bne	0x698
     594:	e7e21153 	ubfx	r1, r3, #2, #3
     598:	e59fa36c 	ldr	sl, [pc, #876]	; 0x90c
     59c:	e2033003 	and	r3, r3, #3
     5a0:	e08fa00a 	add	sl, pc, sl
     5a4:	e1a03103 	lsl	r3, r3, #2
     5a8:	e1a06004 	mov	r6, r4
     5ac:	e3833b03 	orr	r3, r3, #3072	; 0xc00
     5b0:	e58d8010 	str	r8, [sp, #16]
     5b4:	e3833002 	orr	r3, r3, #2
     5b8:	e58d4014 	str	r4, [sp, #20]
     5bc:	e1833601 	orr	r3, r3, r1, lsl #12
     5c0:	e1833802 	orr	r3, r3, r2, lsl #16
     5c4:	e59f2344 	ldr	r2, [pc, #836]	; 0x910
     5c8:	e88d000c 	stm	sp, {r2, r3}
     5cc:	e59f3340 	ldr	r3, [pc, #832]	; 0x914
     5d0:	e08f3003 	add	r3, pc, r3
     5d4:	e58d3008 	str	r3, [sp, #8]
     5d8:	e59f3338 	ldr	r3, [pc, #824]	; 0x918
     5dc:	e08f3003 	add	r3, pc, r3
     5e0:	e58d300c 	str	r3, [sp, #12]
     5e4:	ea000025 	b	0x680
     5e8:	e1a0ba26 	lsr	fp, r6, #20
     5ec:	e59d1000 	ldr	r1, [sp]
     5f0:	e7973001 	ldr	r3, [r7, r1]
     5f4:	e5933000 	ldr	r3, [r3]
     5f8:	e793810b 	ldr	r8, [r3, fp, lsl #2]
     5fc:	e3180001 	tst	r8, #1
     600:	0a000014 	beq	0x658
     604:	e3c88fff 	bic	r8, r8, #1020	; 0x3fc
     608:	e3c88003 	bic	r8, r8, #3
     60c:	ee103fb0 	mrc	15, 0, r3, cr0, cr0, {5}
     610:	e3130003 	tst	r3, #3
     614:	159f3300 	ldrne	r3, [pc, #768]	; 0x91c
     618:	17973003 	ldrne	r3, [r7, r3]
     61c:	10888003 	addne	r8, r8, r3
     620:	e59d2008 	ldr	r2, [sp, #8]
     624:	e0628008 	rsb	r8, r2, r8
     628:	ebffff9a 	bl	0x498
     62c:	e1a08428 	lsr	r8, r8, #8
     630:	e79a3108 	ldr	r3, [sl, r8, lsl #2]
     634:	e3530001 	cmp	r3, #1
     638:	078a9108 	streq	r9, [sl, r8, lsl #2]
     63c:	e3e04000 	mvn	r4, #0
     640:	01a04009 	moveq	r4, r9
     644:	ebffff99 	bl	0x4b0
     648:	e3740001 	cmn	r4, #1
     64c:	1a000001 	bne	0x658
     650:	e59d000c 	ldr	r0, [sp, #12]
     654:	eb00231a 	bl	0x92c4
     658:	e1a03a25 	lsr	r3, r5, #20
     65c:	e59d1004 	ldr	r1, [sp, #4]
     660:	e1a03a03 	lsl	r3, r3, #20
     664:	e2866601 	add	r6, r6, #1048576	; 0x100000
     668:	e1833001 	orr	r3, r3, r1
     66c:	e2855601 	add	r5, r5, #1048576	; 0x100000
     670:	e59d1000 	ldr	r1, [sp]
     674:	e7972001 	ldr	r2, [r7, r1]
     678:	e5922000 	ldr	r2, [r2]
     67c:	e782310b 	str	r3, [r2, fp, lsl #2]
     680:	e59d2010 	ldr	r2, [sp, #16]
     684:	e59d1014 	ldr	r1, [sp, #20]
     688:	e0823001 	add	r3, r2, r1
     68c:	e1560003 	cmp	r6, r3
     690:	3affffd4 	bcc	0x5e8
     694:	ea000081 	b	0x8a0
     698:	e0888004 	add	r8, r8, r4
     69c:	e59f226c 	ldr	r2, [pc, #620]	; 0x910
     6a0:	e58d8000 	str	r8, [sp]
     6a4:	e59fa274 	ldr	sl, [pc, #628]	; 0x920
     6a8:	e59f3274 	ldr	r3, [pc, #628]	; 0x924
     6ac:	e59f1268 	ldr	r1, [pc, #616]	; 0x91c
     6b0:	e08f3003 	add	r3, pc, r3
     6b4:	e58d200c 	str	r2, [sp, #12]
     6b8:	e58d3014 	str	r3, [sp, #20]
     6bc:	e08fa00a 	add	sl, pc, sl
     6c0:	e59f3260 	ldr	r3, [pc, #608]	; 0x928
     6c4:	e1a08004 	mov	r8, r4
     6c8:	e08f3003 	add	r3, pc, r3
     6cc:	e58d1018 	str	r1, [sp, #24]
     6d0:	e58d301c 	str	r3, [sp, #28]
     6d4:	e1a0b005 	mov	fp, r5
     6d8:	e7973002 	ldr	r3, [r7, r2]
     6dc:	e1a09004 	mov	r9, r4
     6e0:	e58d3010 	str	r3, [sp, #16]
     6e4:	e1a03a28 	lsr	r3, r8, #20
     6e8:	e58d3008 	str	r3, [sp, #8]
     6ec:	e59d2000 	ldr	r2, [sp]
     6f0:	e2884601 	add	r4, r8, #1048576	; 0x100000
     6f4:	e59d1010 	ldr	r1, [sp, #16]
     6f8:	e1540002 	cmp	r4, r2
     6fc:	21a04002 	movcs	r4, r2
     700:	e5913000 	ldr	r3, [r1]
     704:	e1540008 	cmp	r4, r8
     708:	31a04002 	movcc	r4, r2
     70c:	e59d2008 	ldr	r2, [sp, #8]
     710:	e7935102 	ldr	r5, [r3, r2, lsl #2]
     714:	e3150001 	tst	r5, #1
     718:	13c55fff 	bicne	r5, r5, #1020	; 0x3fc
     71c:	13c55003 	bicne	r5, r5, #3
     720:	1a00002b 	bne	0x7d4
     724:	ebffff5b 	bl	0x498
     728:	e59a5000 	ldr	r5, [sl]
     72c:	e3550000 	cmp	r5, #0
     730:	0a00000c 	beq	0x768
     734:	e59a3004 	ldr	r3, [sl, #4]
     738:	e3530000 	cmp	r3, #0
     73c:	03a05001 	moveq	r5, #1
     740:	0a000008 	beq	0x768
     744:	e59a3008 	ldr	r3, [sl, #8]
     748:	e3530000 	cmp	r3, #0
     74c:	03a05002 	moveq	r5, #2
     750:	0a000004 	beq	0x768
     754:	e59a300c 	ldr	r3, [sl, #12]
     758:	e3530000 	cmp	r3, #0
     75c:	13a05004 	movne	r5, #4
     760:	1a000003 	bne	0x774
     764:	e3a05003 	mov	r5, #3
     768:	e3a01001 	mov	r1, #1
     76c:	e59d301c 	ldr	r3, [sp, #28]
     770:	e7831105 	str	r1, [r3, r5, lsl #2]
     774:	ebffff4d 	bl	0x4b0
     778:	e3550004 	cmp	r5, #4
     77c:	0a000045 	beq	0x898
     780:	e59d2014 	ldr	r2, [sp, #20]
     784:	e3a01000 	mov	r1, #0
     788:	e0825505 	add	r5, r2, r5, lsl #10
     78c:	e3a02b01 	mov	r2, #1024	; 0x400
     790:	e1a00005 	mov	r0, r5
     794:	eb0023bc 	bl	0x968c
     798:	ee103fb0 	mrc	15, 0, r3, cr0, cr0, {5}
     79c:	e3130003 	tst	r3, #3
     7a0:	159d1018 	ldrne	r1, [sp, #24]
     7a4:	17973001 	ldrne	r3, [r7, r1]
     7a8:	10635005 	rsbne	r5, r3, r5
     7ac:	e3550000 	cmp	r5, #0
     7b0:	0a000038 	beq	0x898
     7b4:	e59d200c 	ldr	r2, [sp, #12]
     7b8:	e59d1008 	ldr	r1, [sp, #8]
     7bc:	e7973002 	ldr	r3, [r7, r2]
     7c0:	e5932000 	ldr	r2, [r3]
     7c4:	e3c53fff 	bic	r3, r5, #1020	; 0x3fc
     7c8:	e3c33003 	bic	r3, r3, #3
     7cc:	e3833001 	orr	r3, r3, #1
     7d0:	e7823101 	str	r3, [r2, r1, lsl #2]
     7d4:	e7e73658 	ubfx	r3, r8, #12, #8
     7d8:	e3560000 	cmp	r6, #0
     7dc:	e0855103 	add	r5, r5, r3, lsl #2
     7e0:	b3c63103 	biclt	r3, r6, #-1073741824	; 0xc0000000
     7e4:	ba000012 	blt	0x834
     7e8:	03a03001 	moveq	r3, #1
     7ec:	0a000010 	beq	0x834
     7f0:	e3560001 	cmp	r6, #1
     7f4:	03a03008 	moveq	r3, #8
     7f8:	0a00000d 	beq	0x834
     7fc:	e3560002 	cmp	r6, #2
     800:	13560005 	cmpne	r6, #5
     804:	03a03003 	moveq	r3, #3
     808:	0a000009 	beq	0x834
     80c:	e3560003 	cmp	r6, #3
     810:	0a000006 	beq	0x830
     814:	e3560004 	cmp	r6, #4
     818:	13560006 	cmpne	r6, #6
     81c:	03a03004 	moveq	r3, #4
     820:	0a000003 	beq	0x834
     824:	e3560007 	cmp	r6, #7
     828:	03a03002 	moveq	r3, #2
     82c:	0a000000 	beq	0x834
     830:	e3a03000 	mov	r3, #0
     834:	e59d2004 	ldr	r2, [sp, #4]
     838:	e3520001 	cmp	r2, #1
     83c:	93a01001 	movls	r1, #1
     840:	9a000003 	bls	0x854
     844:	e2061103 	and	r1, r6, #-1073741824	; 0xc0000000
     848:	e3510103 	cmp	r1, #-1073741824	; 0xc0000000
     84c:	13a01000 	movne	r1, #0
     850:	03a01001 	moveq	r1, #1
     854:	e7e20153 	ubfx	r0, r3, #2, #3
     858:	e069200b 	rsb	r2, r9, fp
     85c:	e2033003 	and	r3, r3, #3
     860:	e0822008 	add	r2, r2, r8
     864:	e1a03103 	lsl	r3, r3, #2
     868:	e3833032 	orr	r3, r3, #50	; 0x32
     86c:	e1830300 	orr	r0, r3, r0, lsl #6
     870:	e1801501 	orr	r1, r0, r1, lsl #10
     874:	e3c23eff 	bic	r3, r2, #4080	; 0xff0
     878:	e2888a01 	add	r8, r8, #4096	; 0x1000
     87c:	e3c3300f 	bic	r3, r3, #15
     880:	e1580004 	cmp	r8, r4
     884:	e1833001 	orr	r3, r3, r1
     888:	e2822a01 	add	r2, r2, #4096	; 0x1000
     88c:	e4853004 	str	r3, [r5], #4
     890:	1afffff7 	bne	0x874
     894:	ea000017 	b	0x8f8
     898:	e3e05000 	mvn	r5, #0
     89c:	ea000000 	b	0x8a4
     8a0:	e3a05000 	mov	r5, #0
     8a4:	e59f3080 	ldr	r3, [pc, #128]	; 0x92c
     8a8:	e7974003 	ldr	r4, [r7, r3]
     8ac:	e1a0e00f 	mov	lr, pc
     8b0:	e594f008 	ldr	pc, [r4, #8]
     8b4:	f57ff04f 	dsb	sy
     8b8:	e1a0e00f 	mov	lr, pc
     8bc:	e594f004 	ldr	pc, [r4, #4]
     8c0:	e1a0e00f 	mov	lr, pc
     8c4:	e594f000 	ldr	pc, [r4]
     8c8:	f57ff04f 	dsb	sy
     8cc:	e59f305c 	ldr	r3, [pc, #92]	; 0x930
     8d0:	e7973003 	ldr	r3, [r7, r3]
     8d4:	e1a0e00f 	mov	lr, pc
     8d8:	e593f014 	ldr	pc, [r3, #20]
     8dc:	e3a03000 	mov	r3, #0
     8e0:	ee073fd5 	mcr	15, 0, r3, cr7, cr5, {6}
     8e4:	f57ff04f 	dsb	sy
     8e8:	f57ff06f 	isb	sy
     8ec:	e1a00005 	mov	r0, r5
     8f0:	e28dd024 	add	sp, sp, #36	; 0x24
     8f4:	e8bd8ff0 	pop	{r4, r5, r6, r7, r8, r9, sl, fp, pc}
     8f8:	e59d3000 	ldr	r3, [sp]
     8fc:	e1580003 	cmp	r8, r3
     900:	1affff77 	bne	0x6e4
     904:	eaffffe5 	b	0x8a0
     908:	00010b10 	andeq	r0, r1, r0, lsl fp
     90c:	00012658 	andeq	r2, r1, r8, asr r6
     910:	000000dc 	ldrdeq	r0, [r0], -ip
     914:	00011628 	andeq	r1, r1, r8, lsr #12
     918:	0000b4bc 			; <UNDEFINED> instruction: 0x0000b4bc
     91c:	00000098 	muleq	r0, r8, r0
     920:	0001253c 	andeq	r2, r1, ip, lsr r5
     924:	00011548 	andeq	r1, r1, r8, asr #10
     928:	00012530 	andeq	r2, r1, r0, lsr r5
     92c:	00000038 	andeq	r0, r0, r8, lsr r0
     930:	000000d8 	ldrdeq	r0, [r0], -r8
     934:	e92d4070 	push	{r4, r5, r6, lr}
     938:	e3a02a01 	mov	r2, #4096	; 0x1000
     93c:	e3a03002 	mov	r3, #2
     940:	e59f40a8 	ldr	r4, [pc, #168]	; 0x9f0
     944:	e59f10a8 	ldr	r1, [pc, #168]	; 0x9f4
     948:	e08f4004 	add	r4, pc, r4
     94c:	e59f00a4 	ldr	r0, [pc, #164]	; 0x9f8
     950:	e7941001 	ldr	r1, [r4, r1]
     954:	ebfffede 	bl	0x4d4
     958:	e3a00102 	mov	r0, #-2147483648	; 0x80000000
     95c:	e3a02101 	mov	r2, #1073741824	; 0x40000000
     960:	e1a01000 	mov	r1, r0
     964:	e3a03002 	mov	r3, #2
     968:	ebfffed9 	bl	0x4d4
     96c:	e3a00601 	mov	r0, #1048576	; 0x100000
     970:	e3a02801 	mov	r2, #65536	; 0x10000
     974:	e1a01000 	mov	r1, r0
     978:	e3a03004 	mov	r3, #4
     97c:	ebfffed4 	bl	0x4d4
     980:	e3a03004 	mov	r3, #4
     984:	e59f2070 	ldr	r2, [pc, #112]	; 0x9fc
     988:	e7940002 	ldr	r0, [r4, r2]
     98c:	e59f206c 	ldr	r2, [pc, #108]	; 0xa00
     990:	e1a01000 	mov	r1, r0
     994:	e7942002 	ldr	r2, [r4, r2]
     998:	e0602002 	rsb	r2, r0, r2
     99c:	ebfffecc 	bl	0x4d4
     9a0:	e59f005c 	ldr	r0, [pc, #92]	; 0xa04
     9a4:	e3a02402 	mov	r2, #33554432	; 0x2000000
     9a8:	e7940000 	ldr	r0, [r4, r0]
     9ac:	e3a03003 	mov	r3, #3
     9b0:	e240037f 	sub	r0, r0, #-67108863	; 0xfc000001
     9b4:	e240063f 	sub	r0, r0, #66060288	; 0x3f00000
     9b8:	e1a00a20 	lsr	r0, r0, #20
     9bc:	e1a00a00 	lsl	r0, r0, #20
     9c0:	e1a01000 	mov	r1, r0
     9c4:	e59f403c 	ldr	r4, [pc, #60]	; 0xa08
     9c8:	ebfffec1 	bl	0x4d4
     9cc:	e08f4004 	add	r4, pc, r4
     9d0:	e2845040 	add	r5, r4, #64	; 0x40
     9d4:	e894000f 	ldm	r4, {r0, r1, r2, r3}
     9d8:	ebfffebd 	bl	0x4d4
     9dc:	e2844010 	add	r4, r4, #16
     9e0:	e1540005 	cmp	r4, r5
     9e4:	1afffffa 	bne	0x9d4
     9e8:	e3a00000 	mov	r0, #0
     9ec:	e8bd8070 	pop	{r4, r5, r6, pc}
     9f0:	000106bc 			; <UNDEFINED> instruction: 0x000106bc
     9f4:	00000084 	andeq	r0, r0, r4, lsl #1
     9f8:	ffff0000 			; <UNDEFINED> instruction: 0xffff0000
     9fc:	0000000c 	andeq	r0, r0, ip
     a00:	00000074 	andeq	r0, r0, r4, ror r0
     a04:	00000050 	andeq	r0, r0, r0, asr r0
     a08:	0000b08c 	andeq	fp, r0, ip, lsl #1
     a0c:	e59f2018 	ldr	r2, [pc, #24]	; 0xa2c
     a10:	e59f3018 	ldr	r3, [pc, #24]	; 0xa30
     a14:	e08f3003 	add	r3, pc, r3
     a18:	e7933002 	ldr	r3, [r3, r2]
     a1c:	e3a0200c 	mov	r2, #12
     a20:	e0233092 	mla	r3, r2, r0, r3
     a24:	e5930004 	ldr	r0, [r3, #4]
     a28:	e12fff1e 	bx	lr
     a2c:	000000a0 	andeq	r0, r0, r0, lsr #1
     a30:	000105f0 	strdeq	r0, [r1], -r0	; <UNPREDICTABLE>
     a34:	e12fff1e 	bx	lr
     a38:	e92d4010 	push	{r4, lr}
     a3c:	e59f2018 	ldr	r2, [pc, #24]	; 0xa5c
     a40:	e59f3018 	ldr	r3, [pc, #24]	; 0xa60
     a44:	e08f2002 	add	r2, pc, r2
     a48:	e7923003 	ldr	r3, [r2, r3]
     a4c:	e7933100 	ldr	r3, [r3, r0, lsl #2]
     a50:	e1a00001 	mov	r0, r1
     a54:	e12fff33 	blx	r3
     a58:	e8bd8010 	pop	{r4, pc}
     a5c:	000105c0 	andeq	r0, r1, r0, asr #11
     a60:	00000024 	andeq	r0, r0, r4, lsr #32
     a64:	e1a01000 	mov	r1, r0
     a68:	e3a02001 	mov	r2, #1
     a6c:	e92d4010 	push	{r4, lr}
     a70:	e59f3020 	ldr	r3, [pc, #32]	; 0xa98
     a74:	e59f0020 	ldr	r0, [pc, #32]	; 0xa9c
     a78:	e08f3003 	add	r3, pc, r3
     a7c:	e08f0000 	add	r0, pc, r0
     a80:	e5832000 	str	r2, [r3]
     a84:	eb00220e 	bl	0x92c4
     a88:	e59f0010 	ldr	r0, [pc, #16]	; 0xaa0
     a8c:	e08f0000 	add	r0, pc, r0
     a90:	eb00220b 	bl	0x92c4
     a94:	eafffffe 	b	0xa94
     a98:	00012190 	muleq	r1, r0, r1
     a9c:	0000b02d 	andeq	fp, r0, sp, lsr #32
     aa0:	0000b041 	andeq	fp, r0, r1, asr #32
     aa4:	e1a01000 	mov	r1, r0
     aa8:	e3a02001 	mov	r2, #1
     aac:	e92d4010 	push	{r4, lr}
     ab0:	e59f0028 	ldr	r0, [pc, #40]	; 0xae0
     ab4:	e59f3028 	ldr	r3, [pc, #40]	; 0xae4
     ab8:	e08f0000 	add	r0, pc, r0
     abc:	e08f3003 	add	r3, pc, r3
     ac0:	e5832000 	str	r2, [r3]
     ac4:	eb0021fe 	bl	0x92c4
     ac8:	e59f0018 	ldr	r0, [pc, #24]	; 0xae8
     acc:	e08f0000 	add	r0, pc, r0
     ad0:	eb0021fb 	bl	0x92c4
     ad4:	ee163f10 	mrc	15, 0, r3, cr6, cr0, {0}
     ad8:	ee153f10 	mrc	15, 0, r3, cr5, cr0, {0}
     adc:	eafffffe 	b	0xadc
     ae0:	0000b024 	andeq	fp, r0, r4, lsr #32
     ae4:	0001214c 	andeq	r2, r1, ip, asr #2
     ae8:	0000b001 	andeq	fp, r0, r1
     aec:	e1a01000 	mov	r1, r0
     af0:	e3a02001 	mov	r2, #1
     af4:	e92d4010 	push	{r4, lr}
     af8:	e59f3020 	ldr	r3, [pc, #32]	; 0xb20
     afc:	e59f0020 	ldr	r0, [pc, #32]	; 0xb24
     b00:	e08f3003 	add	r3, pc, r3
     b04:	e08f0000 	add	r0, pc, r0
     b08:	e5832004 	str	r2, [r3, #4]
     b0c:	eb0021ec 	bl	0x92c4
     b10:	e59f0010 	ldr	r0, [pc, #16]	; 0xb28
     b14:	e08f0000 	add	r0, pc, r0
     b18:	eb0021e9 	bl	0x92c4
     b1c:	eafffffe 	b	0xb1c
     b20:	00012108 	andeq	r2, r1, r8, lsl #2
     b24:	0000aff5 	strdeq	sl, [r0], -r5
     b28:	0000afb9 			; <UNDEFINED> instruction: 0x0000afb9
     b2c:	e1a01000 	mov	r1, r0
     b30:	e92d4010 	push	{r4, lr}
     b34:	e3a02001 	mov	r2, #1
     b38:	e1a04000 	mov	r4, r0
     b3c:	e59f3024 	ldr	r3, [pc, #36]	; 0xb68
     b40:	e59f0024 	ldr	r0, [pc, #36]	; 0xb6c
     b44:	e08f3003 	add	r3, pc, r3
     b48:	e08f0000 	add	r0, pc, r0
     b4c:	e5832004 	str	r2, [r3, #4]
     b50:	eb0021db 	bl	0x92c4
     b54:	e59f0014 	ldr	r0, [pc, #20]	; 0xb70
     b58:	e1a01004 	mov	r1, r4
     b5c:	e08f0000 	add	r0, pc, r0
     b60:	eb0021d7 	bl	0x92c4
     b64:	eafffffe 	b	0xb64
     b68:	000120c4 	andeq	r2, r1, r4, asr #1
     b6c:	0000afd4 	ldrdeq	sl, [r0], -r4
     b70:	0000afe4 	andeq	sl, r0, r4, ror #31
     b74:	e92d4010 	push	{r4, lr}
     b78:	e3500008 	cmp	r0, #8
     b7c:	e59f2034 	ldr	r2, [pc, #52]	; 0xbb8
     b80:	e1a03000 	mov	r3, r0
     b84:	e08f2002 	add	r2, pc, r2
     b88:	9a000005 	bls	0xba4
     b8c:	e1a01000 	mov	r1, r0
     b90:	e59f0024 	ldr	r0, [pc, #36]	; 0xbbc
     b94:	e08f0000 	add	r0, pc, r0
     b98:	eb0021c9 	bl	0x92c4
     b9c:	e3a00000 	mov	r0, #0
     ba0:	e8bd8010 	pop	{r4, pc}
     ba4:	e59f0014 	ldr	r0, [pc, #20]	; 0xbc0
     ba8:	e7922000 	ldr	r2, [r2, r0]
     bac:	e7920103 	ldr	r0, [r2, r3, lsl #2]
     bb0:	e7821103 	str	r1, [r2, r3, lsl #2]
     bb4:	e8bd8010 	pop	{r4, pc}
     bb8:	00010480 	andeq	r0, r1, r0, lsl #9
     bbc:	0000afbb 			; <UNDEFINED> instruction: 0x0000afbb
     bc0:	00000024 	andeq	r0, r0, r4, lsr #32
     bc4:	e92d4070 	push	{r4, r5, r6, lr}
     bc8:	e59f40ac 	ldr	r4, [pc, #172]	; 0xc7c
     bcc:	eb000097 	bl	0xe30
     bd0:	e08f4004 	add	r4, pc, r4
     bd4:	e2505000 	subs	r5, r0, #0
     bd8:	aa000005 	bge	0xbf4
     bdc:	e59f309c 	ldr	r3, [pc, #156]	; 0xc80
     be0:	e7943003 	ldr	r3, [r4, r3]
     be4:	e5932000 	ldr	r2, [r3]
     be8:	e2822001 	add	r2, r2, #1
     bec:	e5832000 	str	r2, [r3]
     bf0:	e8bd8070 	pop	{r4, r5, r6, pc}
     bf4:	e3550091 	cmp	r5, #145	; 0x91
     bf8:	059f3084 	ldreq	r3, [pc, #132]	; 0xc84
     bfc:	07943003 	ldreq	r3, [r4, r3]
     c00:	05932000 	ldreq	r2, [r3]
     c04:	02822001 	addeq	r2, r2, #1
     c08:	05832000 	streq	r2, [r3]
     c0c:	e1a00005 	mov	r0, r5
     c10:	eb000032 	bl	0xce0
     c14:	e1a00005 	mov	r0, r5
     c18:	eb000048 	bl	0xd40
     c1c:	e59f3064 	ldr	r3, [pc, #100]	; 0xc88
     c20:	e3a0200c 	mov	r2, #12
     c24:	e7943003 	ldr	r3, [r4, r3]
     c28:	e7835105 	str	r5, [r3, r5, lsl #2]
     c2c:	e59f3058 	ldr	r3, [pc, #88]	; 0xc8c
     c30:	e7943003 	ldr	r3, [r4, r3]
     c34:	e0233592 	mla	r3, r2, r5, r3
     c38:	e5933004 	ldr	r3, [r3, #4]
     c3c:	e3530000 	cmp	r3, #0
     c40:	0a000000 	beq	0xc48
     c44:	e12fff33 	blx	r3
     c48:	e59f3040 	ldr	r3, [pc, #64]	; 0xc90
     c4c:	e59f2040 	ldr	r2, [pc, #64]	; 0xc94
     c50:	e7943003 	ldr	r3, [r4, r3]
     c54:	e7942002 	ldr	r2, [r4, r2]
     c58:	e5922000 	ldr	r2, [r2]
     c5c:	e3520000 	cmp	r2, #0
     c60:	e5932000 	ldr	r2, [r3]
     c64:	e2822001 	add	r2, r2, #1
     c68:	e5832000 	str	r2, [r3]
     c6c:	18bd8070 	popne	{r4, r5, r6, pc}
     c70:	e1a00005 	mov	r0, r5
     c74:	e8bd4070 	pop	{r4, r5, r6, lr}
     c78:	ea000024 	b	0xd10
     c7c:	00010434 	andeq	r0, r1, r4, lsr r4
     c80:	0000008c 	andeq	r0, r0, ip, lsl #1
     c84:	000000e8 	andeq	r0, r0, r8, ror #1
     c88:	00000014 	andeq	r0, r0, r4, lsl r0
     c8c:	000000a0 	andeq	r0, r0, r0, lsr #1
     c90:	000000ac 	andeq	r0, r0, ip, lsr #1
     c94:	00000030 	andeq	r0, r0, r0, lsr r0
     c98:	e92d41f0 	push	{r4, r5, r6, r7, r8, lr}
     c9c:	e1a04000 	mov	r4, r0
     ca0:	e1a05001 	mov	r5, r1
     ca4:	e1a07002 	mov	r7, r2
     ca8:	e59f6028 	ldr	r6, [pc, #40]	; 0xcd8
     cac:	ebfffdf9 	bl	0x498
     cb0:	e08f6006 	add	r6, pc, r6
     cb4:	e59f3020 	ldr	r3, [pc, #32]	; 0xcdc
     cb8:	e7961003 	ldr	r1, [r6, r3]
     cbc:	e3a0300c 	mov	r3, #12
     cc0:	e0030493 	mul	r3, r3, r4
     cc4:	e081c003 	add	ip, r1, r3
     cc8:	e7814003 	str	r4, [r1, r3]
     ccc:	e98c00a0 	stmib	ip, {r5, r7}
     cd0:	e8bd41f0 	pop	{r4, r5, r6, r7, r8, lr}
     cd4:	eafffdf5 	b	0x4b0
     cd8:	00010354 	andeq	r0, r1, r4, asr r3
     cdc:	000000a0 	andeq	r0, r0, r0, lsr #1
     ce0:	e59f3020 	ldr	r3, [pc, #32]	; 0xd08
     ce4:	e59f2020 	ldr	r2, [pc, #32]	; 0xd0c
     ce8:	e08f3003 	add	r3, pc, r3
     cec:	e92d4010 	push	{r4, lr}
     cf0:	e7933002 	ldr	r3, [r3, r2]
     cf4:	e5933004 	ldr	r3, [r3, #4]
     cf8:	e3530000 	cmp	r3, #0
     cfc:	08bd8010 	popeq	{r4, pc}
     d00:	e12fff33 	blx	r3
     d04:	e8bd8010 	pop	{r4, pc}
     d08:	0001031c 	andeq	r0, r1, ip, lsl r3
     d0c:	00000060 	andeq	r0, r0, r0, rrx
     d10:	e59f3020 	ldr	r3, [pc, #32]	; 0xd38
     d14:	e59f2020 	ldr	r2, [pc, #32]	; 0xd3c
     d18:	e08f3003 	add	r3, pc, r3
     d1c:	e92d4010 	push	{r4, lr}
     d20:	e7933002 	ldr	r3, [r3, r2]
     d24:	e5933008 	ldr	r3, [r3, #8]
     d28:	e3530000 	cmp	r3, #0
     d2c:	08bd8010 	popeq	{r4, pc}
     d30:	e12fff33 	blx	r3
     d34:	e8bd8010 	pop	{r4, pc}
     d38:	000102ec 	andeq	r0, r1, ip, ror #5
     d3c:	00000060 	andeq	r0, r0, r0, rrx
     d40:	e59f3020 	ldr	r3, [pc, #32]	; 0xd68
     d44:	e59f2020 	ldr	r2, [pc, #32]	; 0xd6c
     d48:	e08f3003 	add	r3, pc, r3
     d4c:	e92d4010 	push	{r4, lr}
     d50:	e7933002 	ldr	r3, [r3, r2]
     d54:	e593300c 	ldr	r3, [r3, #12]
     d58:	e3530000 	cmp	r3, #0
     d5c:	08bd8010 	popeq	{r4, pc}
     d60:	e12fff33 	blx	r3
     d64:	e8bd8010 	pop	{r4, pc}
     d68:	000102bc 			; <UNDEFINED> instruction: 0x000102bc
     d6c:	00000060 	andeq	r0, r0, r0, rrx
     d70:	e92d4010 	push	{r4, lr}
     d74:	e3510001 	cmp	r1, #1
     d78:	e59f3048 	ldr	r3, [pc, #72]	; 0xdc8
     d7c:	e08f3003 	add	r3, pc, r3
     d80:	1a000006 	bne	0xda0
     d84:	e59f2040 	ldr	r2, [pc, #64]	; 0xdcc
     d88:	e7933002 	ldr	r3, [r3, r2]
     d8c:	e5933010 	ldr	r3, [r3, #16]
     d90:	e3530000 	cmp	r3, #0
     d94:	12811002 	addne	r1, r1, #2
     d98:	1a000008 	bne	0xdc0
     d9c:	e8bd8010 	pop	{r4, pc}
     da0:	e3510000 	cmp	r1, #0
     da4:	18bd8010 	popne	{r4, pc}
     da8:	e59f201c 	ldr	r2, [pc, #28]	; 0xdcc
     dac:	e7933002 	ldr	r3, [r3, r2]
     db0:	e5933010 	ldr	r3, [r3, #16]
     db4:	e3530000 	cmp	r3, #0
     db8:	08bd8010 	popeq	{r4, pc}
     dbc:	e281100c 	add	r1, r1, #12
     dc0:	e12fff33 	blx	r3
     dc4:	e8bd8010 	pop	{r4, pc}
     dc8:	00010288 	andeq	r0, r1, r8, lsl #5
     dcc:	00000060 	andeq	r0, r0, r0, rrx
     dd0:	e92d4010 	push	{r4, lr}
     dd4:	e3510000 	cmp	r1, #0
     dd8:	e59f3048 	ldr	r3, [pc, #72]	; 0xe28
     ddc:	e08f3003 	add	r3, pc, r3
     de0:	1a000006 	bne	0xe00
     de4:	e59f2040 	ldr	r2, [pc, #64]	; 0xe2c
     de8:	e7933002 	ldr	r3, [r3, r2]
     dec:	e5933010 	ldr	r3, [r3, #16]
     df0:	e3530000 	cmp	r3, #0
     df4:	13a0100a 	movne	r1, #10
     df8:	1a000008 	bne	0xe20
     dfc:	e8bd8010 	pop	{r4, pc}
     e00:	e3510001 	cmp	r1, #1
     e04:	18bd8010 	popne	{r4, pc}
     e08:	e59f201c 	ldr	r2, [pc, #28]	; 0xe2c
     e0c:	e7933002 	ldr	r3, [r3, r2]
     e10:	e5933010 	ldr	r3, [r3, #16]
     e14:	e3530000 	cmp	r3, #0
     e18:	08bd8010 	popeq	{r4, pc}
     e1c:	e2811004 	add	r1, r1, #4
     e20:	e12fff33 	blx	r3
     e24:	e8bd8010 	pop	{r4, pc}
     e28:	00010228 	andeq	r0, r1, r8, lsr #4
     e2c:	00000060 	andeq	r0, r0, r0, rrx
     e30:	e59f3024 	ldr	r3, [pc, #36]	; 0xe5c
     e34:	e59f2024 	ldr	r2, [pc, #36]	; 0xe60
     e38:	e08f3003 	add	r3, pc, r3
     e3c:	e92d4010 	push	{r4, lr}
     e40:	e7933002 	ldr	r3, [r3, r2]
     e44:	e5933014 	ldr	r3, [r3, #20]
     e48:	e3530000 	cmp	r3, #0
     e4c:	03e00000 	mvneq	r0, #0
     e50:	08bd8010 	popeq	{r4, pc}
     e54:	e12fff33 	blx	r3
     e58:	e8bd8010 	pop	{r4, pc}
     e5c:	000101cc 	andeq	r0, r1, ip, asr #3
     e60:	00000060 	andeq	r0, r0, r0, rrx
     e64:	e59f3020 	ldr	r3, [pc, #32]	; 0xe8c
     e68:	e59f2020 	ldr	r2, [pc, #32]	; 0xe90
     e6c:	e08f3003 	add	r3, pc, r3
     e70:	e92d4010 	push	{r4, lr}
     e74:	e7933002 	ldr	r3, [r3, r2]
     e78:	e5933000 	ldr	r3, [r3]
     e7c:	e3530000 	cmp	r3, #0
     e80:	08bd8010 	popeq	{r4, pc}
     e84:	e12fff33 	blx	r3
     e88:	e8bd8010 	pop	{r4, pc}
     e8c:	00010198 	muleq	r1, r8, r1
     e90:	00000060 	andeq	r0, r0, r0, rrx
     e94:	e59f301c 	ldr	r3, [pc, #28]	; 0xeb8
     e98:	e593000c 	ldr	r0, [r3, #12]
     e9c:	e30033ff 	movw	r3, #1023	; 0x3ff
     ea0:	e1500003 	cmp	r0, r3
     ea4:	0a000001 	beq	0xeb0
     ea8:	e3500c01 	cmp	r0, #256	; 0x100
     eac:	912fff1e 	bxls	lr
     eb0:	e3e00000 	mvn	r0, #0
     eb4:	e12fff1e 	bx	lr
     eb8:	10212000 	eorne	r2, r1, r0
     ebc:	e200301f 	and	r3, r0, #31
     ec0:	e3a02001 	mov	r2, #1
     ec4:	e1a03312 	lsl	r3, r2, r3
     ec8:	e59f200c 	ldr	r2, [pc, #12]	; 0xedc
     ecc:	e08202a0 	add	r0, r2, r0, lsr #5
     ed0:	e1a00100 	lsl	r0, r0, #2
     ed4:	e5803000 	str	r3, [r0]
     ed8:	e12fff1e 	bx	lr
     edc:	04084460 	streq	r4, [r8], #-1120	; 0x460
     ee0:	e200301f 	and	r3, r0, #31
     ee4:	e3a02001 	mov	r2, #1
     ee8:	e1a03312 	lsl	r3, r2, r3
     eec:	e59f200c 	ldr	r2, [pc, #12]	; 0xf00
     ef0:	e08202a0 	add	r0, r2, r0, lsr #5
     ef4:	e1a00100 	lsl	r0, r0, #2
     ef8:	e5803000 	str	r3, [r0]
     efc:	e12fff1e 	bx	lr
     f00:	04084440 	streq	r4, [r8], #-1088	; 0x440
     f04:	e59f3004 	ldr	r3, [pc, #4]	; 0xf10
     f08:	e5830010 	str	r0, [r3, #16]
     f0c:	e12fff1e 	bx	lr
     f10:	10212000 	eorne	r2, r1, r0
     f14:	e200300f 	and	r3, r0, #15
     f18:	e3110003 	tst	r1, #3
     f1c:	e1a00220 	lsr	r0, r0, #4
     f20:	0a000008 	beq	0xf48
     f24:	e1a0c083 	lsl	ip, r3, #1
     f28:	e59f303c 	ldr	r3, [pc, #60]	; 0xf6c
     f2c:	e0803003 	add	r3, r0, r3
     f30:	e1a02103 	lsl	r2, r3, #2
     f34:	e3a03002 	mov	r3, #2
     f38:	e5921000 	ldr	r1, [r2]
     f3c:	e1813c13 	orr	r3, r1, r3, lsl ip
     f40:	e5823000 	str	r3, [r2]
     f44:	e12fff1e 	bx	lr
     f48:	e1a02083 	lsl	r2, r3, #1
     f4c:	e59f3018 	ldr	r3, [pc, #24]	; 0xf6c
     f50:	e0803003 	add	r3, r0, r3
     f54:	e3a00002 	mov	r0, #2
     f58:	e1a03103 	lsl	r3, r3, #2
     f5c:	e5931000 	ldr	r1, [r3]
     f60:	e1c12210 	bic	r2, r1, r0, lsl r2
     f64:	e5832000 	str	r2, [r3]
     f68:	e12fff1e 	bx	lr
     f6c:	04084700 	streq	r4, [r8], #-1792	; 0x700
     f70:	e311000a 	tst	r1, #10
     f74:	e2400020 	sub	r0, r0, #32
     f78:	e59f3024 	ldr	r3, [pc, #36]	; 0xfa4
     f7c:	e200201f 	and	r2, r0, #31
     f80:	e1a002a0 	lsr	r0, r0, #5
     f84:	e0803003 	add	r3, r0, r3
     f88:	e3a00001 	mov	r0, #1
     f8c:	e1a03103 	lsl	r3, r3, #2
     f90:	e5931000 	ldr	r1, [r3]
     f94:	11812210 	orrne	r2, r1, r0, lsl r2
     f98:	01c12210 	biceq	r2, r1, r0, lsl r2
     f9c:	e5832000 	str	r2, [r3]
     fa0:	e12fff1e 	bx	lr
     fa4:	04080040 	streq	r0, [r8], #-64	; 0x40
     fa8:	e3a02000 	mov	r2, #0
     fac:	e59f30d8 	ldr	r3, [pc, #216]	; 0x108c
     fb0:	e1a00002 	mov	r0, r2
     fb4:	e5832000 	str	r2, [r3]
     fb8:	e5933004 	ldr	r3, [r3, #4]
     fbc:	e203301f 	and	r3, r3, #31
     fc0:	e2833001 	add	r3, r3, #1
     fc4:	e1a03283 	lsl	r3, r3, #5
     fc8:	e3530fff 	cmp	r3, #1020	; 0x3fc
     fcc:	31a02003 	movcc	r2, r3
     fd0:	23a02fff 	movcs	r2, #1020	; 0x3fc
     fd4:	e3a03020 	mov	r3, #32
     fd8:	ea000004 	b	0xff0
     fdc:	e7fbc153 	ubfx	ip, r3, #2, #28
     fe0:	e59f10a8 	ldr	r1, [pc, #168]	; 0x1090
     fe4:	e2833010 	add	r3, r3, #16
     fe8:	e08c1001 	add	r1, ip, r1
     fec:	e5810000 	str	r0, [r1]
     ff0:	e1530002 	cmp	r3, r2
     ff4:	3afffff8 	bcc	0xfdc
     ff8:	e3a03020 	mov	r3, #32
     ffc:	e59f0090 	ldr	r0, [pc, #144]	; 0x1094
    1000:	ea000004 	b	0x1018
    1004:	e3c3c103 	bic	ip, r3, #-1073741824	; 0xc0000000
    1008:	e59f1088 	ldr	r1, [pc, #136]	; 0x1098
    100c:	e2833004 	add	r3, r3, #4
    1010:	e08c1001 	add	r1, ip, r1
    1014:	e5810000 	str	r0, [r1]
    1018:	e1530002 	cmp	r3, r2
    101c:	3afffff8 	bcc	0x1004
    1020:	e3a03000 	mov	r3, #0
    1024:	e59f0070 	ldr	r0, [pc, #112]	; 0x109c
    1028:	e3c3c103 	bic	ip, r3, #-1073741824	; 0xc0000000
    102c:	e59f106c 	ldr	r1, [pc, #108]	; 0x10a0
    1030:	e2833004 	add	r3, r3, #4
    1034:	e08c1001 	add	r1, ip, r1
    1038:	e1530002 	cmp	r3, r2
    103c:	e5810000 	str	r0, [r1]
    1040:	3afffff8 	bcc	0x1028
    1044:	e3a03000 	mov	r3, #0
    1048:	e3e00000 	mvn	r0, #0
    104c:	e7fac1d3 	ubfx	ip, r3, #3, #27
    1050:	e59f104c 	ldr	r1, [pc, #76]	; 0x10a4
    1054:	e2833020 	add	r3, r3, #32
    1058:	e08c1001 	add	r1, ip, r1
    105c:	e1530002 	cmp	r3, r2
    1060:	e5810000 	str	r0, [r1]
    1064:	3afffff8 	bcc	0x104c
    1068:	e3a02001 	mov	r2, #1
    106c:	e59f3034 	ldr	r3, [pc, #52]	; 0x10a8
    1070:	e59f1014 	ldr	r1, [pc, #20]	; 0x108c
    1074:	e3a00000 	mov	r0, #0
    1078:	e5812000 	str	r2, [r1]
    107c:	e3a010f0 	mov	r1, #240	; 0xf0
    1080:	e5831004 	str	r1, [r3, #4]
    1084:	e5832000 	str	r2, [r3]
    1088:	e12fff1e 	bx	lr
    108c:	10211000 	eorne	r1, r1, r0
    1090:	10211c00 	eorne	r1, r1, r0, lsl #24
    1094:	01010101 	tsteq	r1, r1, lsl #2
    1098:	10211800 	eorne	r1, r1, r0, lsl #16
    109c:	a0a0a0a0 	adcge	sl, r0, r0, lsr #1
    10a0:	10211400 	eorne	r1, r1, r0, lsl #8
    10a4:	10211180 	eorne	r1, r1, r0, lsl #3
    10a8:	10212000 	eorne	r2, r1, r0
    10ac:	e92d4070 	push	{r4, r5, r6, lr}
    10b0:	e350001f 	cmp	r0, #31
    10b4:	e1a05000 	mov	r5, r0
    10b8:	e1a04001 	mov	r4, r1
    10bc:	8a000003 	bhi	0x10d0
    10c0:	e59f0074 	ldr	r0, [pc, #116]	; 0x113c
    10c4:	e08f0000 	add	r0, pc, r0
    10c8:	eb00207d 	bl	0x92c4
    10cc:	ea000012 	b	0x111c
    10d0:	e2013003 	and	r3, r1, #3
    10d4:	e3530003 	cmp	r3, #3
    10d8:	0a000002 	beq	0x10e8
    10dc:	e201300c 	and	r3, r1, #12
    10e0:	e353000c 	cmp	r3, #12
    10e4:	1a000001 	bne	0x10f0
    10e8:	ebffff89 	bl	0xf14
    10ec:	ea000006 	b	0x110c
    10f0:	e201300a 	and	r3, r1, #10
    10f4:	e353000a 	cmp	r3, #10
    10f8:	0a000002 	beq	0x1108
    10fc:	e2013005 	and	r3, r1, #5
    1100:	e3530005 	cmp	r3, #5
    1104:	1a000002 	bne	0x1114
    1108:	ebffff98 	bl	0xf70
    110c:	e3a00000 	mov	r0, #0
    1110:	e8bd8070 	pop	{r4, r5, r6, pc}
    1114:	e311000f 	tst	r1, #15
    1118:	1a000001 	bne	0x1124
    111c:	e3e00000 	mvn	r0, #0
    1120:	e8bd8070 	pop	{r4, r5, r6, pc}
    1124:	ebffff7a 	bl	0xf14
    1128:	e1a00005 	mov	r0, r5
    112c:	e1a01004 	mov	r1, r4
    1130:	ebffff8e 	bl	0xf70
    1134:	e3a00000 	mov	r0, #0
    1138:	e8bd8070 	pop	{r4, r5, r6, pc}
    113c:	0000aad5 	ldrdeq	sl, [r0], -r5
    1140:	e3510000 	cmp	r1, #0
    1144:	0a000007 	beq	0x1168
    1148:	e3c0001f 	bic	r0, r0, #31
    114c:	e0801001 	add	r1, r0, r1
    1150:	e1a03000 	mov	r3, r0
    1154:	ee073f3a 	mcr	15, 0, r3, cr7, cr10, {1}
    1158:	e2833020 	add	r3, r3, #32
    115c:	e1530001 	cmp	r3, r1
    1160:	3afffffb 	bcc	0x1154
    1164:	f57ff04f 	dsb	sy
    1168:	e12fff1e 	bx	lr
    116c:	e3510000 	cmp	r1, #0
    1170:	0a000008 	beq	0x1198
    1174:	e3c0001f 	bic	r0, r0, #31
    1178:	e0801001 	add	r1, r0, r1
    117c:	e1a03000 	mov	r3, r0
    1180:	ee073f35 	mcr	15, 0, r3, cr7, cr5, {1}
    1184:	ee073f36 	mcr	15, 0, r3, cr7, cr6, {1}
    1188:	e2833020 	add	r3, r3, #32
    118c:	e1530001 	cmp	r3, r1
    1190:	3afffffa 	bcc	0x1180
    1194:	f57ff04f 	dsb	sy
    1198:	e12fff1e 	bx	lr
    119c:	e3510000 	cmp	r1, #0
    11a0:	0a00000e 	beq	0x11e0
    11a4:	e3c0001f 	bic	r0, r0, #31
    11a8:	e0801001 	add	r1, r0, r1
    11ac:	e1a03000 	mov	r3, r0
    11b0:	ee073f3a 	mcr	15, 0, r3, cr7, cr10, {1}
    11b4:	e2833020 	add	r3, r3, #32
    11b8:	e1530001 	cmp	r3, r1
    11bc:	3afffffb 	bcc	0x11b0
    11c0:	f57ff04f 	dsb	sy
    11c4:	e1a03000 	mov	r3, r0
    11c8:	ee073f35 	mcr	15, 0, r3, cr7, cr5, {1}
    11cc:	ee073f36 	mcr	15, 0, r3, cr7, cr6, {1}
    11d0:	e2833020 	add	r3, r3, #32
    11d4:	e1530001 	cmp	r3, r1
    11d8:	3afffffa 	bcc	0x11c8
    11dc:	f57ff04f 	dsb	sy
    11e0:	e12fff1e 	bx	lr
    11e4:	e92d0eb0 	push	{r4, r5, r7, r9, sl, fp}
    11e8:	f57ff05f 	dmb	sy
    11ec:	ee300f30 	mrc	15, 1, r0, cr0, cr0, {1}
    11f0:	e2103407 	ands	r3, r0, #117440512	; 0x7000000
    11f4:	e1a03ba3 	lsr	r3, r3, #23
    11f8:	0a00001a 	beq	0x1268
    11fc:	e3a0a000 	mov	sl, #0
    1200:	e08a20aa 	add	r2, sl, sl, lsr #1
    1204:	e1a01230 	lsr	r1, r0, r2
    1208:	e2011007 	and	r1, r1, #7
    120c:	e3510002 	cmp	r1, #2
    1210:	ba000011 	blt	0x125c
    1214:	ee40af10 	mcr	15, 2, sl, cr0, cr0, {0}
    1218:	f57ff06f 	isb	sy
    121c:	ee301f10 	mrc	15, 1, r1, cr0, cr0, {0}
    1220:	e2012007 	and	r2, r1, #7
    1224:	e2822004 	add	r2, r2, #4
    1228:	e59f425c 	ldr	r4, [pc, #604]	; 0x148c
    122c:	e01441a1 	ands	r4, r4, r1, lsr #3
    1230:	e16f5f14 	clz	r5, r4
    1234:	e59f7254 	ldr	r7, [pc, #596]	; 0x1490
    1238:	e01776a1 	ands	r7, r7, r1, lsr #13
    123c:	e1a09004 	mov	r9, r4
    1240:	e18ab519 	orr	fp, sl, r9, lsl r5
    1244:	e18bb217 	orr	fp, fp, r7, lsl r2
    1248:	ee07bf56 	mcr	15, 0, fp, cr7, cr6, {2}
    124c:	e2599001 	subs	r9, r9, #1
    1250:	aafffffa 	bge	0x1240
    1254:	e2577001 	subs	r7, r7, #1
    1258:	aafffff7 	bge	0x123c
    125c:	e28aa002 	add	sl, sl, #2
    1260:	e153000a 	cmp	r3, sl
    1264:	caffffe5 	bgt	0x1200
    1268:	e3a0a000 	mov	sl, #0
    126c:	ee40af10 	mcr	15, 2, sl, cr0, cr0, {0}
    1270:	f57ff04f 	dsb	sy
    1274:	f57ff06f 	isb	sy
    1278:	e8bd0eb0 	pop	{r4, r5, r7, r9, sl, fp}
    127c:	e12fff1e 	bx	lr
    1280:	e3a00000 	mov	r0, #0
    1284:	ee070f11 	mcr	15, 0, r0, cr7, cr1, {0}
    1288:	ee070fd1 	mcr	15, 0, r0, cr7, cr1, {6}
    128c:	e12fff1e 	bx	lr
    1290:	e92d0eb0 	push	{r4, r5, r7, r9, sl, fp}
    1294:	f57ff05f 	dmb	sy
    1298:	ee300f30 	mrc	15, 1, r0, cr0, cr0, {1}
    129c:	e2103407 	ands	r3, r0, #117440512	; 0x7000000
    12a0:	e1a03ba3 	lsr	r3, r3, #23
    12a4:	0a00001a 	beq	0x1314
    12a8:	e3a0a000 	mov	sl, #0
    12ac:	e08a20aa 	add	r2, sl, sl, lsr #1
    12b0:	e1a01230 	lsr	r1, r0, r2
    12b4:	e2011007 	and	r1, r1, #7
    12b8:	e3510002 	cmp	r1, #2
    12bc:	ba000011 	blt	0x1308
    12c0:	ee40af10 	mcr	15, 2, sl, cr0, cr0, {0}
    12c4:	f57ff06f 	isb	sy
    12c8:	ee301f10 	mrc	15, 1, r1, cr0, cr0, {0}
    12cc:	e2012007 	and	r2, r1, #7
    12d0:	e2822004 	add	r2, r2, #4
    12d4:	e59f41b0 	ldr	r4, [pc, #432]	; 0x148c
    12d8:	e01441a1 	ands	r4, r4, r1, lsr #3
    12dc:	e16f5f14 	clz	r5, r4
    12e0:	e59f71a8 	ldr	r7, [pc, #424]	; 0x1490
    12e4:	e01776a1 	ands	r7, r7, r1, lsr #13
    12e8:	e1a09004 	mov	r9, r4
    12ec:	e18ab519 	orr	fp, sl, r9, lsl r5
    12f0:	e18bb217 	orr	fp, fp, r7, lsl r2
    12f4:	ee07bf5a 	mcr	15, 0, fp, cr7, cr10, {2}
    12f8:	e2599001 	subs	r9, r9, #1
    12fc:	aafffffa 	bge	0x12ec
    1300:	e2577001 	subs	r7, r7, #1
    1304:	aafffff7 	bge	0x12e8
    1308:	e28aa002 	add	sl, sl, #2
    130c:	e153000a 	cmp	r3, sl
    1310:	caffffe5 	bgt	0x12ac
    1314:	e3a0a000 	mov	sl, #0
    1318:	ee40af10 	mcr	15, 2, sl, cr0, cr0, {0}
    131c:	f57ff04f 	dsb	sy
    1320:	f57ff06f 	isb	sy
    1324:	e8bd0eb0 	pop	{r4, r5, r7, r9, sl, fp}
    1328:	e12fff1e 	bx	lr
    132c:	e92d0eb0 	push	{r4, r5, r7, r9, sl, fp}
    1330:	f57ff05f 	dmb	sy
    1334:	ee300f30 	mrc	15, 1, r0, cr0, cr0, {1}
    1338:	e2103407 	ands	r3, r0, #117440512	; 0x7000000
    133c:	e1a03ba3 	lsr	r3, r3, #23
    1340:	0a00001a 	beq	0x13b0
    1344:	e3a0a000 	mov	sl, #0
    1348:	e08a20aa 	add	r2, sl, sl, lsr #1
    134c:	e1a01230 	lsr	r1, r0, r2
    1350:	e2011007 	and	r1, r1, #7
    1354:	e3510002 	cmp	r1, #2
    1358:	ba000011 	blt	0x13a4
    135c:	ee40af10 	mcr	15, 2, sl, cr0, cr0, {0}
    1360:	f57ff06f 	isb	sy
    1364:	ee301f10 	mrc	15, 1, r1, cr0, cr0, {0}
    1368:	e2012007 	and	r2, r1, #7
    136c:	e2822004 	add	r2, r2, #4
    1370:	e59f4114 	ldr	r4, [pc, #276]	; 0x148c
    1374:	e01441a1 	ands	r4, r4, r1, lsr #3
    1378:	e16f5f14 	clz	r5, r4
    137c:	e59f710c 	ldr	r7, [pc, #268]	; 0x1490
    1380:	e01776a1 	ands	r7, r7, r1, lsr #13
    1384:	e1a09004 	mov	r9, r4
    1388:	e18ab519 	orr	fp, sl, r9, lsl r5
    138c:	e18bb217 	orr	fp, fp, r7, lsl r2
    1390:	ee07bf5e 	mcr	15, 0, fp, cr7, cr14, {2}
    1394:	e2599001 	subs	r9, r9, #1
    1398:	aafffffa 	bge	0x1388
    139c:	e2577001 	subs	r7, r7, #1
    13a0:	aafffff7 	bge	0x1384
    13a4:	e28aa002 	add	sl, sl, #2
    13a8:	e153000a 	cmp	r3, sl
    13ac:	caffffe5 	bgt	0x1348
    13b0:	e3a0a000 	mov	sl, #0
    13b4:	ee40af10 	mcr	15, 2, sl, cr0, cr0, {0}
    13b8:	f57ff04f 	dsb	sy
    13bc:	f57ff06f 	isb	sy
    13c0:	e8bd0eb0 	pop	{r4, r5, r7, r9, sl, fp}
    13c4:	e12fff1e 	bx	lr
    13c8:	ee110f10 	mrc	15, 0, r0, cr1, cr0, {0}
    13cc:	e3800a01 	orr	r0, r0, #4096	; 0x1000
    13d0:	ee010f10 	mcr	15, 0, r0, cr1, cr0, {0}
    13d4:	e12fff1e 	bx	lr
    13d8:	ee110f10 	mrc	15, 0, r0, cr1, cr0, {0}
    13dc:	e3c00a01 	bic	r0, r0, #4096	; 0x1000
    13e0:	ee010f10 	mcr	15, 0, r0, cr1, cr0, {0}
    13e4:	e12fff1e 	bx	lr
    13e8:	ee110f10 	mrc	15, 0, r0, cr1, cr0, {0}
    13ec:	e3800004 	orr	r0, r0, #4
    13f0:	ee010f10 	mcr	15, 0, r0, cr1, cr0, {0}
    13f4:	e12fff1e 	bx	lr
    13f8:	ee110f10 	mrc	15, 0, r0, cr1, cr0, {0}
    13fc:	e3c00004 	bic	r0, r0, #4
    1400:	ee010f10 	mcr	15, 0, r0, cr1, cr0, {0}
    1404:	e12fff1e 	bx	lr
    1408:	ee110f30 	mrc	15, 0, r0, cr1, cr0, {1}
    140c:	e3800040 	orr	r0, r0, #64	; 0x40
    1410:	ee010f30 	mcr	15, 0, r0, cr1, cr0, {1}
    1414:	ee110f10 	mrc	15, 0, r0, cr1, cr0, {0}
    1418:	e3800a01 	orr	r0, r0, #4096	; 0x1000
    141c:	e3800004 	orr	r0, r0, #4
    1420:	ee010f10 	mcr	15, 0, r0, cr1, cr0, {0}
    1424:	e12fff1e 	bx	lr
    1428:	ee110f10 	mrc	15, 0, r0, cr1, cr0, {0}
    142c:	e3c00a01 	bic	r0, r0, #4096	; 0x1000
    1430:	e3c00004 	bic	r0, r0, #4
    1434:	ee010f10 	mcr	15, 0, r0, cr1, cr0, {0}
    1438:	e12fff1e 	bx	lr
    143c:	ee113f10 	mrc	15, 0, r3, cr1, cr0, {0}
    1440:	e2130a01 	ands	r0, r3, #4096	; 0x1000
    1444:	13a00001 	movne	r0, #1
    1448:	e12fff1e 	bx	lr
    144c:	ee113f10 	mrc	15, 0, r3, cr1, cr0, {0}
    1450:	e2130004 	ands	r0, r3, #4
    1454:	13a00001 	movne	r0, #1
    1458:	e12fff1e 	bx	lr
    145c:	002051e4 	eoreq	r5, r0, r4, ror #3
    1460:	00205280 	eoreq	r5, r0, r0, lsl #5
    1464:	00205290 	mlaeq	r0, r0, r2, r5
    1468:	0020532c 	eoreq	r5, r0, ip, lsr #6
    146c:	002053c8 	eoreq	r5, r0, r8, asr #7
    1470:	002053d8 	ldrdeq	r5, [r0], -r8	; <UNPREDICTABLE>
    1474:	002053e8 	eoreq	r5, r0, r8, ror #7
    1478:	002053f8 	strdeq	r5, [r0], -r8	; <UNPREDICTABLE>
    147c:	00205408 	eoreq	r5, r0, r8, lsl #8
    1480:	00205428 	eoreq	r5, r0, r8, lsr #8
    1484:	0020543c 	eoreq	r5, r0, ip, lsr r4
    1488:	0020544c 	eoreq	r5, r0, ip, asr #8
    148c:	000003ff 	strdeq	r0, [r0], -pc	; <UNPREDICTABLE>
    1490:	00007fff 	strdeq	r7, [r0], -pc	; <UNPREDICTABLE>
    1494:	e3a00000 	mov	r0, #0
    1498:	ee080f16 	mcr	15, 0, r0, cr8, cr6, {0}
    149c:	ee110f10 	mrc	15, 0, r0, cr1, cr0, {0}
    14a0:	e3800001 	orr	r0, r0, #1
    14a4:	ee010f10 	mcr	15, 0, r0, cr1, cr0, {0}
    14a8:	e320f000 	nop	{0}
    14ac:	e320f000 	nop	{0}
    14b0:	e320f000 	nop	{0}
    14b4:	e320f000 	nop	{0}
    14b8:	e320f000 	nop	{0}
    14bc:	e320f000 	nop	{0}
    14c0:	e12fff1e 	bx	lr
    14c4:	e3a00000 	mov	r0, #0
    14c8:	ee080f16 	mcr	15, 0, r0, cr8, cr6, {0}
    14cc:	ee110f10 	mrc	15, 0, r0, cr1, cr0, {0}
    14d0:	e3c00001 	bic	r0, r0, #1
    14d4:	ee010f10 	mcr	15, 0, r0, cr1, cr0, {0}
    14d8:	e320f000 	nop	{0}
    14dc:	e320f000 	nop	{0}
    14e0:	e320f000 	nop	{0}
    14e4:	e320f000 	nop	{0}
    14e8:	e320f000 	nop	{0}
    14ec:	e320f000 	nop	{0}
    14f0:	e12fff1e 	bx	lr
    14f4:	ee020f10 	mcr	15, 0, r0, cr2, cr0, {0}
    14f8:	e12fff1e 	bx	lr
    14fc:	e1a00080 	lsl	r0, r0, #1
    1500:	e1a01011 	lsl	r1, r1, r0
    1504:	ee132f10 	mrc	15, 0, r2, cr3, cr0, {0}
    1508:	e3a03003 	mov	r3, #3
    150c:	e1a03013 	lsl	r3, r3, r0
    1510:	e1c22003 	bic	r2, r2, r3
    1514:	e1822001 	orr	r2, r2, r1
    1518:	ee032f10 	mcr	15, 0, r2, cr3, cr0, {0}
    151c:	e12fff1e 	bx	lr
    1520:	e12fff1e 	bx	lr
    1524:	ee080f13 	mcr	15, 0, r0, cr8, cr3, {0}
    1528:	f57ff04f 	dsb	sy
    152c:	f57ff06f 	isb	sy
    1530:	e12fff1e 	bx	lr
    1534:	e3c00eff 	bic	r0, r0, #4080	; 0xff0
    1538:	e3c0000f 	bic	r0, r0, #15
    153c:	ee080f77 	mcr	15, 0, r0, cr8, cr7, {3}
    1540:	e12fff1e 	bx	lr
    1544:	00205494 	mlaeq	r0, r4, r4, r5
    1548:	002054c4 	eoreq	r5, r0, r4, asr #9
    154c:	002054f4 	strdeq	r5, [r0], -r4	; <UNPREDICTABLE>
    1550:	002054fc 	strdeq	r5, [r0], -ip	; <UNPREDICTABLE>
    1554:	00205520 	eoreq	r5, r0, r0, lsr #10
    1558:	00205524 	eoreq	r5, r0, r4, lsr #10
    155c:	00205534 	eoreq	r5, r0, r4, lsr r5
    1560:	e12fff1e 	bx	lr
    1564:	e3a03000 	mov	r3, #0
    1568:	ea000005 	b	0x1584
    156c:	e2421020 	sub	r1, r2, #32
    1570:	e2422061 	sub	r2, r2, #97	; 0x61
    1574:	e6ef2072 	uxtb	r2, r2
    1578:	e3520019 	cmp	r2, #25
    157c:	97c01003 	strbls	r1, [r0, r3]
    1580:	e2833001 	add	r3, r3, #1
    1584:	e7d02003 	ldrb	r2, [r0, r3]
    1588:	e3520000 	cmp	r2, #0
    158c:	1afffff6 	bne	0x156c
    1590:	e12fff1e 	bx	lr
    1594:	e3a02000 	mov	r2, #0
    1598:	e59f301c 	ldr	r3, [pc, #28]	; 0x15bc
    159c:	e59f101c 	ldr	r1, [pc, #28]	; 0x15c0
    15a0:	e08f3003 	add	r3, pc, r3
    15a4:	e7931001 	ldr	r1, [r3, r1]
    15a8:	e5812000 	str	r2, [r1]
    15ac:	e59f1010 	ldr	r1, [pc, #16]	; 0x15c4
    15b0:	e7933001 	ldr	r3, [r3, r1]
    15b4:	e5832000 	str	r2, [r3]
    15b8:	e12fff1e 	bx	lr
    15bc:	0000fa64 	andeq	pc, r0, r4, ror #20
    15c0:	00000070 	andeq	r0, r0, r0, ror r0
    15c4:	00000010 	andeq	r0, r0, r0, lsl r0
    15c8:	e92d4ff7 	push	{r0, r1, r2, r4, r5, r6, r7, r8, r9, sl, fp, lr}
    15cc:	e1a05000 	mov	r5, r0
    15d0:	e1a04002 	mov	r4, r2
    15d4:	e1a0a001 	mov	sl, r1
    15d8:	e59f60d8 	ldr	r6, [pc, #216]	; 0x16b8
    15dc:	e1a0e00f 	mov	lr, pc
    15e0:	e592f000 	ldr	pc, [r2]
    15e4:	e08f6006 	add	r6, pc, r6
    15e8:	e3550000 	cmp	r5, #0
    15ec:	1a000001 	bne	0x15f8
    15f0:	e1a0e00f 	mov	lr, pc
    15f4:	e594f004 	ldr	pc, [r4, #4]
    15f8:	e3a08014 	mov	r8, #20
    15fc:	e3a07000 	mov	r7, #0
    1600:	e028a598 	mla	r8, r8, r5, sl
    1604:	e2459001 	sub	r9, r5, #1
    1608:	e59fb0ac 	ldr	fp, [pc, #172]	; 0x16bc
    160c:	ea00001a 	b	0x167c
    1610:	e1a0e00f 	mov	lr, pc
    1614:	e598f010 	ldr	pc, [r8, #16]
    1618:	e5983004 	ldr	r3, [r8, #4]
    161c:	e1a00009 	mov	r0, r9
    1620:	e7933007 	ldr	r3, [r3, r7]
    1624:	e1a0100a 	mov	r1, sl
    1628:	e1a02004 	mov	r2, r4
    162c:	e3550000 	cmp	r5, #0
    1630:	e5883008 	str	r3, [r8, #8]
    1634:	1a00000e 	bne	0x1674
    1638:	e1a0e00f 	mov	lr, pc
    163c:	e594f008 	ldr	pc, [r4, #8]
    1640:	e796300b 	ldr	r3, [r6, fp]
    1644:	e5932000 	ldr	r2, [r3]
    1648:	e58d3000 	str	r3, [sp]
    164c:	e58d2004 	str	r2, [sp, #4]
    1650:	e1a0e00f 	mov	lr, pc
    1654:	e594f00c 	ldr	pc, [r4, #12]
    1658:	e59d2004 	ldr	r2, [sp, #4]
    165c:	e59d3000 	ldr	r3, [sp]
    1660:	e0802002 	add	r2, r0, r2
    1664:	e5832000 	str	r2, [r3]
    1668:	e1a0e00f 	mov	lr, pc
    166c:	e594f010 	ldr	pc, [r4, #16]
    1670:	ea000000 	b	0x1678
    1674:	ebffffd3 	bl	0x15c8
    1678:	e2877004 	add	r7, r7, #4
    167c:	e5983004 	ldr	r3, [r8, #4]
    1680:	e7933007 	ldr	r3, [r3, r7]
    1684:	e2530000 	subs	r0, r3, #0
    1688:	1affffe0 	bne	0x1610
    168c:	e1a00005 	mov	r0, r5
    1690:	e59f3024 	ldr	r3, [pc, #36]	; 0x16bc
    1694:	e7961003 	ldr	r1, [r6, r3]
    1698:	e59f3020 	ldr	r3, [pc, #32]	; 0x16c0
    169c:	e7962003 	ldr	r2, [r6, r3]
    16a0:	e1a0e00f 	mov	lr, pc
    16a4:	e594f014 	ldr	pc, [r4, #20]
    16a8:	e1a00005 	mov	r0, r5
    16ac:	e1a0e00f 	mov	lr, pc
    16b0:	e594f018 	ldr	pc, [r4, #24]
    16b4:	e8bd8ffe 	pop	{r1, r2, r3, r4, r5, r6, r7, r8, r9, sl, fp, pc}
    16b8:	0000fa20 	andeq	pc, r0, r0, lsr #20
    16bc:	00000070 	andeq	r0, r0, r0, ror r0
    16c0:	00000010 	andeq	r0, r0, r0, lsl r0
    16c4:	e59f3058 	ldr	r3, [pc, #88]	; 0x1724
    16c8:	e59f2058 	ldr	r2, [pc, #88]	; 0x1728
    16cc:	e5832000 	str	r2, [r3]
    16d0:	e5932220 	ldr	r2, [r3, #544]	; 0x220
    16d4:	e3520032 	cmp	r2, #50	; 0x32
    16d8:	13a02001 	movne	r2, #1
    16dc:	15832274 	strne	r2, [r3, #628]	; 0x274
    16e0:	12822031 	addne	r2, r2, #49	; 0x31
    16e4:	15832220 	strne	r2, [r3, #544]	; 0x220
    16e8:	e59f3034 	ldr	r3, [pc, #52]	; 0x1724
    16ec:	e593221c 	ldr	r2, [r3, #540]	; 0x21c
    16f0:	e3520032 	cmp	r2, #50	; 0x32
    16f4:	13a02001 	movne	r2, #1
    16f8:	1583226c 	strne	r2, [r3, #620]	; 0x26c
    16fc:	12822031 	addne	r2, r2, #49	; 0x31
    1700:	1583221c 	strne	r2, [r3, #540]	; 0x21c
    1704:	e59f3018 	ldr	r3, [pc, #24]	; 0x1724
    1708:	e5932218 	ldr	r2, [r3, #536]	; 0x218
    170c:	e3520032 	cmp	r2, #50	; 0x32
    1710:	13a02001 	movne	r2, #1
    1714:	15832264 	strne	r2, [r3, #612]	; 0x264
    1718:	12822031 	addne	r2, r2, #49	; 0x31
    171c:	15832218 	strne	r2, [r3, #536]	; 0x218
    1720:	e12fff1e 	bx	lr
    1724:	10006000 	andne	r6, r0, r0
    1728:	0b160001 	bleq	0x581734
    172c:	e92d4ff8 	push	{r3, r4, r5, r6, r7, r8, r9, sl, fp, lr}
    1730:	e59f60e8 	ldr	r6, [pc, #232]	; 0x1820
    1734:	e59f50e8 	ldr	r5, [pc, #232]	; 0x1824
    1738:	e5963604 	ldr	r3, [r6, #1540]	; 0x604
    173c:	e59f40e4 	ldr	r4, [pc, #228]	; 0x1828
    1740:	e5951604 	ldr	r1, [r5, #1540]	; 0x604
    1744:	e1811003 	orr	r1, r1, r3
    1748:	e5943604 	ldr	r3, [r4, #1540]	; 0x604
    174c:	e1811003 	orr	r1, r1, r3
    1750:	e5963624 	ldr	r3, [r6, #1572]	; 0x624
    1754:	e1a01ca1 	lsr	r1, r1, #25
    1758:	e5950624 	ldr	r0, [r5, #1572]	; 0x624
    175c:	e1800003 	orr	r0, r0, r3
    1760:	e5943624 	ldr	r3, [r4, #1572]	; 0x624
    1764:	e1800003 	orr	r0, r0, r3
    1768:	e1a000a0 	lsr	r0, r0, #1
    176c:	e5969608 	ldr	r9, [r6, #1544]	; 0x608
    1770:	e595b608 	ldr	fp, [r5, #1544]	; 0x608
    1774:	e594a608 	ldr	sl, [r4, #1544]	; 0x608
    1778:	e5963618 	ldr	r3, [r6, #1560]	; 0x618
    177c:	e5957618 	ldr	r7, [r5, #1560]	; 0x618
    1780:	e1877003 	orr	r7, r7, r3
    1784:	e5943618 	ldr	r3, [r4, #1560]	; 0x618
    1788:	e596860c 	ldr	r8, [r6, #1548]	; 0x60c
    178c:	e1877003 	orr	r7, r7, r3
    1790:	eb002614 	bl	0xafe8
    1794:	e7e67157 	ubfx	r7, r7, #2, #7
    1798:	e595360c 	ldr	r3, [r5, #1548]	; 0x60c
    179c:	e3a0201a 	mov	r2, #26
    17a0:	e594160c 	ldr	r1, [r4, #1548]	; 0x60c
    17a4:	e0020092 	mul	r2, r2, r0
    17a8:	e5960640 	ldr	r0, [r6, #1600]	; 0x640
    17ac:	e595c640 	ldr	ip, [r5, #1600]	; 0x640
    17b0:	e18c0000 	orr	r0, ip, r0
    17b4:	e594c640 	ldr	ip, [r4, #1600]	; 0x640
    17b8:	e180000c 	orr	r0, r0, ip
    17bc:	e2000003 	and	r0, r0, #3
    17c0:	e3500003 	cmp	r0, #3
    17c4:	1a000009 	bne	0x17f0
    17c8:	e18b9009 	orr	r9, fp, r9
    17cc:	e3a03001 	mov	r3, #1
    17d0:	e189a00a 	orr	sl, r9, sl
    17d4:	e7e1a55a 	ubfx	sl, sl, #10, #2
    17d8:	e1a0aa13 	lsl	sl, r3, sl
    17dc:	e0020a92 	mul	r2, r2, sl
    17e0:	e1a02622 	lsr	r2, r2, #12
    17e4:	e0070297 	mul	r7, r7, r2
    17e8:	e1a00627 	lsr	r0, r7, #12
    17ec:	e8bd8ff8 	pop	{r3, r4, r5, r6, r7, r8, r9, sl, fp, pc}
    17f0:	e1830008 	orr	r0, r3, r8
    17f4:	e1a02082 	lsl	r2, r2, #1
    17f8:	e1800001 	orr	r0, r0, r1
    17fc:	e3a03001 	mov	r3, #1
    1800:	e7e10550 	ubfx	r0, r0, #10, #2
    1804:	e2800001 	add	r0, r0, #1
    1808:	e1a00013 	lsl	r0, r3, r0
    180c:	e0000290 	mul	r0, r0, r2
    1810:	e1a00620 	lsr	r0, r0, #12
    1814:	e0070097 	mul	r7, r7, r0
    1818:	e1a00627 	lsr	r0, r7, #12
    181c:	e8bd8ff8 	pop	{r3, r4, r5, r6, r7, r8, r9, sl, fp, pc}
    1820:	10207000 	eorne	r7, r0, r0
    1824:	10208000 	eorne	r8, r0, r0
    1828:	10206000 	eorne	r6, r0, r0
    182c:	e92d41f0 	push	{r4, r5, r6, r7, r8, lr}
    1830:	e59f70b8 	ldr	r7, [pc, #184]	; 0x18f0
    1834:	e59f60b8 	ldr	r6, [pc, #184]	; 0x18f4
    1838:	e59f50b8 	ldr	r5, [pc, #184]	; 0x18f8
    183c:	e5973200 	ldr	r3, [r7, #512]	; 0x200
    1840:	e59f40b4 	ldr	r4, [pc, #180]	; 0x18fc
    1844:	e5961200 	ldr	r1, [r6, #512]	; 0x200
    1848:	e08f4004 	add	r4, pc, r4
    184c:	e1811003 	orr	r1, r1, r3
    1850:	e1a00004 	mov	r0, r4
    1854:	e5953200 	ldr	r3, [r5, #512]	; 0x200
    1858:	e1811003 	orr	r1, r1, r3
    185c:	eb001e98 	bl	0x92c4
    1860:	e5973204 	ldr	r3, [r7, #516]	; 0x204
    1864:	e1a00004 	mov	r0, r4
    1868:	e5961204 	ldr	r1, [r6, #516]	; 0x204
    186c:	e1811003 	orr	r1, r1, r3
    1870:	e5953204 	ldr	r3, [r5, #516]	; 0x204
    1874:	e1811003 	orr	r1, r1, r3
    1878:	eb001e91 	bl	0x92c4
    187c:	e5973208 	ldr	r3, [r7, #520]	; 0x208
    1880:	e1a00004 	mov	r0, r4
    1884:	e5961208 	ldr	r1, [r6, #520]	; 0x208
    1888:	e1811003 	orr	r1, r1, r3
    188c:	e5953208 	ldr	r3, [r5, #520]	; 0x208
    1890:	e1811003 	orr	r1, r1, r3
    1894:	eb001e8a 	bl	0x92c4
    1898:	e597320c 	ldr	r3, [r7, #524]	; 0x20c
    189c:	e1a00004 	mov	r0, r4
    18a0:	e596120c 	ldr	r1, [r6, #524]	; 0x20c
    18a4:	e1811003 	orr	r1, r1, r3
    18a8:	e595320c 	ldr	r3, [r5, #524]	; 0x20c
    18ac:	e1811003 	orr	r1, r1, r3
    18b0:	eb001e83 	bl	0x92c4
    18b4:	e5973010 	ldr	r3, [r7, #16]
    18b8:	e1a00004 	mov	r0, r4
    18bc:	e5961010 	ldr	r1, [r6, #16]
    18c0:	e1811003 	orr	r1, r1, r3
    18c4:	e5953010 	ldr	r3, [r5, #16]
    18c8:	e1811003 	orr	r1, r1, r3
    18cc:	eb001e7c 	bl	0x92c4
    18d0:	e5973014 	ldr	r3, [r7, #20]
    18d4:	e1a00004 	mov	r0, r4
    18d8:	e5961014 	ldr	r1, [r6, #20]
    18dc:	e1811003 	orr	r1, r1, r3
    18e0:	e5953014 	ldr	r3, [r5, #20]
    18e4:	e1811003 	orr	r1, r1, r3
    18e8:	e8bd41f0 	pop	{r4, r5, r6, r7, r8, lr}
    18ec:	ea001e74 	b	0x92c4
    18f0:	10207000 	eorne	r7, r0, r0
    18f4:	10208000 	eorne	r8, r0, r0
    18f8:	10206000 	eorne	r6, r0, r0
    18fc:	0000a9fd 	strdeq	sl, [r0], -sp
    1900:	e92d41f0 	push	{r4, r5, r6, r7, r8, lr}
    1904:	e59f710c 	ldr	r7, [pc, #268]	; 0x1a18
    1908:	e59f610c 	ldr	r6, [pc, #268]	; 0x1a1c
    190c:	e59f510c 	ldr	r5, [pc, #268]	; 0x1a20
    1910:	e5973210 	ldr	r3, [r7, #528]	; 0x210
    1914:	e59f4108 	ldr	r4, [pc, #264]	; 0x1a24
    1918:	e5961210 	ldr	r1, [r6, #528]	; 0x210
    191c:	e08f4004 	add	r4, pc, r4
    1920:	e1811003 	orr	r1, r1, r3
    1924:	e1a00004 	mov	r0, r4
    1928:	e5953210 	ldr	r3, [r5, #528]	; 0x210
    192c:	e1811003 	orr	r1, r1, r3
    1930:	eb001e63 	bl	0x92c4
    1934:	e5973214 	ldr	r3, [r7, #532]	; 0x214
    1938:	e1a00004 	mov	r0, r4
    193c:	e5961214 	ldr	r1, [r6, #532]	; 0x214
    1940:	e1811003 	orr	r1, r1, r3
    1944:	e5953214 	ldr	r3, [r5, #532]	; 0x214
    1948:	e1811003 	orr	r1, r1, r3
    194c:	eb001e5c 	bl	0x92c4
    1950:	e5973218 	ldr	r3, [r7, #536]	; 0x218
    1954:	e1a00004 	mov	r0, r4
    1958:	e5961218 	ldr	r1, [r6, #536]	; 0x218
    195c:	e1811003 	orr	r1, r1, r3
    1960:	e5953218 	ldr	r3, [r5, #536]	; 0x218
    1964:	e1811003 	orr	r1, r1, r3
    1968:	eb001e55 	bl	0x92c4
    196c:	e597321c 	ldr	r3, [r7, #540]	; 0x21c
    1970:	e1a00004 	mov	r0, r4
    1974:	e596121c 	ldr	r1, [r6, #540]	; 0x21c
    1978:	e1811003 	orr	r1, r1, r3
    197c:	e595321c 	ldr	r3, [r5, #540]	; 0x21c
    1980:	e1811003 	orr	r1, r1, r3
    1984:	eb001e4e 	bl	0x92c4
    1988:	e5973220 	ldr	r3, [r7, #544]	; 0x220
    198c:	e1a00004 	mov	r0, r4
    1990:	e5961220 	ldr	r1, [r6, #544]	; 0x220
    1994:	e1811003 	orr	r1, r1, r3
    1998:	e5953220 	ldr	r3, [r5, #544]	; 0x220
    199c:	e1811003 	orr	r1, r1, r3
    19a0:	eb001e47 	bl	0x92c4
    19a4:	e5973224 	ldr	r3, [r7, #548]	; 0x224
    19a8:	e1a00004 	mov	r0, r4
    19ac:	e5961224 	ldr	r1, [r6, #548]	; 0x224
    19b0:	e1811003 	orr	r1, r1, r3
    19b4:	e5953224 	ldr	r3, [r5, #548]	; 0x224
    19b8:	e1811003 	orr	r1, r1, r3
    19bc:	eb001e40 	bl	0x92c4
    19c0:	e5973228 	ldr	r3, [r7, #552]	; 0x228
    19c4:	e1a00004 	mov	r0, r4
    19c8:	e5961228 	ldr	r1, [r6, #552]	; 0x228
    19cc:	e1811003 	orr	r1, r1, r3
    19d0:	e5953228 	ldr	r3, [r5, #552]	; 0x228
    19d4:	e1811003 	orr	r1, r1, r3
    19d8:	eb001e39 	bl	0x92c4
    19dc:	e597322c 	ldr	r3, [r7, #556]	; 0x22c
    19e0:	e1a00004 	mov	r0, r4
    19e4:	e596122c 	ldr	r1, [r6, #556]	; 0x22c
    19e8:	e1811003 	orr	r1, r1, r3
    19ec:	e595322c 	ldr	r3, [r5, #556]	; 0x22c
    19f0:	e1811003 	orr	r1, r1, r3
    19f4:	eb001e32 	bl	0x92c4
    19f8:	e5973018 	ldr	r3, [r7, #24]
    19fc:	e1a00004 	mov	r0, r4
    1a00:	e5961018 	ldr	r1, [r6, #24]
    1a04:	e1811003 	orr	r1, r1, r3
    1a08:	e5953018 	ldr	r3, [r5, #24]
    1a0c:	e1811003 	orr	r1, r1, r3
    1a10:	e8bd41f0 	pop	{r4, r5, r6, r7, r8, lr}
    1a14:	ea001e2a 	b	0x92c4
    1a18:	10207000 	eorne	r7, r0, r0
    1a1c:	10208000 	eorne	r8, r0, r0
    1a20:	10206000 	eorne	r6, r0, r0
    1a24:	0000a929 	andeq	sl, r0, r9, lsr #18
    1a28:	e92d4070 	push	{r4, r5, r6, lr}
    1a2c:	e59f0064 	ldr	r0, [pc, #100]	; 0x1a98
    1a30:	e08f0000 	add	r0, pc, r0
    1a34:	e59f5060 	ldr	r5, [pc, #96]	; 0x1a9c
    1a38:	eb001e21 	bl	0x92c4
    1a3c:	e3a04000 	mov	r4, #0
    1a40:	e08f5005 	add	r5, pc, r5
    1a44:	e2842201 	add	r2, r4, #268435456	; 0x10000000
    1a48:	e1a01004 	mov	r1, r4
    1a4c:	e2822982 	add	r2, r2, #2129920	; 0x208000
    1a50:	e59f3048 	ldr	r3, [pc, #72]	; 0x1aa0
    1a54:	e1a00005 	mov	r0, r5
    1a58:	e0843003 	add	r3, r4, r3
    1a5c:	e5933000 	ldr	r3, [r3]
    1a60:	e5922000 	ldr	r2, [r2]
    1a64:	e1822003 	orr	r2, r2, r3
    1a68:	e59f3034 	ldr	r3, [pc, #52]	; 0x1aa4
    1a6c:	e0843003 	add	r3, r4, r3
    1a70:	e5933000 	ldr	r3, [r3]
    1a74:	e1822003 	orr	r2, r2, r3
    1a78:	e2844004 	add	r4, r4, #4
    1a7c:	eb001e10 	bl	0x92c4
    1a80:	e3540e65 	cmp	r4, #1616	; 0x650
    1a84:	1affffee 	bne	0x1a44
    1a88:	e59f0018 	ldr	r0, [pc, #24]	; 0x1aa8
    1a8c:	e08f0000 	add	r0, pc, r0
    1a90:	e8bd4070 	pop	{r4, r5, r6, lr}
    1a94:	ea001e0a 	b	0x92c4
    1a98:	0000a187 	andeq	sl, r0, r7, lsl #3
    1a9c:	0000a1a6 	andeq	sl, r0, r6, lsr #3
    1aa0:	10207000 	eorne	r7, r0, r0
    1aa4:	10206000 	eorne	r6, r0, r0
    1aa8:	0000a889 	andeq	sl, r0, r9, lsl #17
    1aac:	e59f3070 	ldr	r3, [pc, #112]	; 0x1b24
    1ab0:	e59f2070 	ldr	r2, [pc, #112]	; 0x1b28
    1ab4:	e08f3003 	add	r3, pc, r3
    1ab8:	e7933002 	ldr	r3, [r3, r2]
    1abc:	e5933000 	ldr	r3, [r3]
    1ac0:	e2433001 	sub	r3, r3, #1
    1ac4:	e3530004 	cmp	r3, #4
    1ac8:	908ff103 	addls	pc, pc, r3, lsl #2
    1acc:	ea000013 	b	0x1b20
    1ad0:	ea000003 	b	0x1ae4
    1ad4:	ea000005 	b	0x1af0
    1ad8:	ea000007 	b	0x1afc
    1adc:	ea000009 	b	0x1b08
    1ae0:	ea00000b 	b	0x1b14
    1ae4:	e59f0040 	ldr	r0, [pc, #64]	; 0x1b2c
    1ae8:	e08f0000 	add	r0, pc, r0
    1aec:	ea00000a 	b	0x1b1c
    1af0:	e59f0038 	ldr	r0, [pc, #56]	; 0x1b30
    1af4:	e08f0000 	add	r0, pc, r0
    1af8:	ea000007 	b	0x1b1c
    1afc:	e59f0030 	ldr	r0, [pc, #48]	; 0x1b34
    1b00:	e08f0000 	add	r0, pc, r0
    1b04:	ea000004 	b	0x1b1c
    1b08:	e59f0028 	ldr	r0, [pc, #40]	; 0x1b38
    1b0c:	e08f0000 	add	r0, pc, r0
    1b10:	ea000001 	b	0x1b1c
    1b14:	e59f0020 	ldr	r0, [pc, #32]	; 0x1b3c
    1b18:	e08f0000 	add	r0, pc, r0
    1b1c:	ea001de8 	b	0x92c4
    1b20:	e12fff1e 	bx	lr
    1b24:	0000f550 	andeq	pc, r0, r0, asr r5	; <UNPREDICTABLE>
    1b28:	00000088 	andeq	r0, r0, r8, lsl #1
    1b2c:	0000a111 	andeq	sl, r0, r1, lsl r1
    1b30:	0000a12a 	andeq	sl, r0, sl, lsr #2
    1b34:	0000a143 	andeq	sl, r0, r3, asr #2
    1b38:	0000a15d 	andeq	sl, r0, sp, asr r1
    1b3c:	0000a16f 	andeq	sl, r0, pc, ror #2
    1b40:	e92d4070 	push	{r4, r5, r6, lr}
    1b44:	e59f2034 	ldr	r2, [pc, #52]	; 0x1b80
    1b48:	e1a05000 	mov	r5, r0
    1b4c:	e59f3030 	ldr	r3, [pc, #48]	; 0x1b84
    1b50:	e59f0030 	ldr	r0, [pc, #48]	; 0x1b88
    1b54:	e08f3003 	add	r3, pc, r3
    1b58:	e08f0000 	add	r0, pc, r0
    1b5c:	e7934002 	ldr	r4, [r3, r2]
    1b60:	e5941000 	ldr	r1, [r4]
    1b64:	eb001dd6 	bl	0x92c4
    1b68:	e1a01005 	mov	r1, r5
    1b6c:	e59f0018 	ldr	r0, [pc, #24]	; 0x1b8c
    1b70:	e5845000 	str	r5, [r4]
    1b74:	e08f0000 	add	r0, pc, r0
    1b78:	e8bd4070 	pop	{r4, r5, r6, lr}
    1b7c:	ea001dd0 	b	0x92c4
    1b80:	00000064 	andeq	r0, r0, r4, rrx
    1b84:	0000f4b0 			; <UNDEFINED> instruction: 0x0000f4b0
    1b88:	0000a14d 	andeq	sl, r0, sp, asr #2
    1b8c:	0000a146 	andeq	sl, r0, r6, asr #2
    1b90:	e92d4ff8 	push	{r3, r4, r5, r6, r7, r8, r9, sl, fp, lr}
    1b94:	e59f2504 	ldr	r2, [pc, #1284]	; 0x20a0
    1b98:	e59f3504 	ldr	r3, [pc, #1284]	; 0x20a4
    1b9c:	e5832000 	str	r2, [r3]
    1ba0:	eb000be9 	bl	0x4b4c
    1ba4:	e59f04fc 	ldr	r0, [pc, #1276]	; 0x20a8
    1ba8:	e08f0000 	add	r0, pc, r0
    1bac:	e59f54f8 	ldr	r5, [pc, #1272]	; 0x20ac
    1bb0:	eb001dc3 	bl	0x92c4
    1bb4:	e59f44f4 	ldr	r4, [pc, #1268]	; 0x20b0
    1bb8:	e5953110 	ldr	r3, [r5, #272]	; 0x110
    1bbc:	e3a08000 	mov	r8, #0
    1bc0:	e3c33008 	bic	r3, r3, #8
    1bc4:	e59f04e8 	ldr	r0, [pc, #1256]	; 0x20b4
    1bc8:	e5853110 	str	r3, [r5, #272]	; 0x110
    1bcc:	e08f0000 	add	r0, pc, r0
    1bd0:	e5943110 	ldr	r3, [r4, #272]	; 0x110
    1bd4:	e59f74dc 	ldr	r7, [pc, #1244]	; 0x20b8
    1bd8:	e3c33008 	bic	r3, r3, #8
    1bdc:	e08f7007 	add	r7, pc, r7
    1be0:	e5843110 	str	r3, [r4, #272]	; 0x110
    1be4:	e59f34d0 	ldr	r3, [pc, #1232]	; 0x20bc
    1be8:	e7979003 	ldr	r9, [r7, r3]
    1bec:	e5898000 	str	r8, [r9]
    1bf0:	eb001db3 	bl	0x92c4
    1bf4:	e3a0b001 	mov	fp, #1
    1bf8:	e59f34c0 	ldr	r3, [pc, #1216]	; 0x20c0
    1bfc:	e797a003 	ldr	sl, [r7, r3]
    1c00:	e58ab000 	str	fp, [sl]
    1c04:	e59f64b8 	ldr	r6, [pc, #1208]	; 0x20c4
    1c08:	eb0010c3 	bl	0x5f1c
    1c0c:	e58a8000 	str	r8, [sl]
    1c10:	eb000700 	bl	0x3818
    1c14:	eb000a4f 	bl	0x4558
    1c18:	ebffff38 	bl	0x1900
    1c1c:	eb00079f 	bl	0x3aa0
    1c20:	ebffff01 	bl	0x182c
    1c24:	e59510f0 	ldr	r1, [r5, #240]	; 0xf0
    1c28:	e1a03008 	mov	r3, r8
    1c2c:	e59420f0 	ldr	r2, [r4, #240]	; 0xf0
    1c30:	e1812002 	orr	r2, r1, r2
    1c34:	e59610f0 	ldr	r1, [r6, #240]	; 0xf0
    1c38:	e3822201 	orr	r2, r2, #268435456	; 0x10000000
    1c3c:	e1822001 	orr	r2, r2, r1
    1c40:	e58520f0 	str	r2, [r5, #240]	; 0xf0
    1c44:	e59510f0 	ldr	r1, [r5, #240]	; 0xf0
    1c48:	e59420f0 	ldr	r2, [r4, #240]	; 0xf0
    1c4c:	e1812002 	orr	r2, r1, r2
    1c50:	e59610f0 	ldr	r1, [r6, #240]	; 0xf0
    1c54:	e3822201 	orr	r2, r2, #268435456	; 0x10000000
    1c58:	e1822001 	orr	r2, r2, r1
    1c5c:	e58420f0 	str	r2, [r4, #240]	; 0xf0
    1c60:	e59510f0 	ldr	r1, [r5, #240]	; 0xf0
    1c64:	e59420f0 	ldr	r2, [r4, #240]	; 0xf0
    1c68:	e1812002 	orr	r2, r1, r2
    1c6c:	e59610f0 	ldr	r1, [r6, #240]	; 0xf0
    1c70:	e3822201 	orr	r2, r2, #268435456	; 0x10000000
    1c74:	e1822001 	orr	r2, r2, r1
    1c78:	e58620f0 	str	r2, [r6, #240]	; 0xf0
    1c7c:	e59510f4 	ldr	r1, [r5, #244]	; 0xf4
    1c80:	e59420f4 	ldr	r2, [r4, #244]	; 0xf4
    1c84:	e1812002 	orr	r2, r1, r2
    1c88:	e59610f4 	ldr	r1, [r6, #244]	; 0xf4
    1c8c:	e3822402 	orr	r2, r2, #33554432	; 0x2000000
    1c90:	e1822001 	orr	r2, r2, r1
    1c94:	e58520f4 	str	r2, [r5, #244]	; 0xf4
    1c98:	e59510f4 	ldr	r1, [r5, #244]	; 0xf4
    1c9c:	e59420f4 	ldr	r2, [r4, #244]	; 0xf4
    1ca0:	e1812002 	orr	r2, r1, r2
    1ca4:	e59610f4 	ldr	r1, [r6, #244]	; 0xf4
    1ca8:	e3822402 	orr	r2, r2, #33554432	; 0x2000000
    1cac:	e1822001 	orr	r2, r2, r1
    1cb0:	e58420f4 	str	r2, [r4, #244]	; 0xf4
    1cb4:	e59510f4 	ldr	r1, [r5, #244]	; 0xf4
    1cb8:	e59420f4 	ldr	r2, [r4, #244]	; 0xf4
    1cbc:	e1812002 	orr	r2, r1, r2
    1cc0:	e59610f4 	ldr	r1, [r6, #244]	; 0xf4
    1cc4:	e3822402 	orr	r2, r2, #33554432	; 0x2000000
    1cc8:	e1822001 	orr	r2, r2, r1
    1ccc:	e58620f4 	str	r2, [r6, #244]	; 0xf4
    1cd0:	e3a02ffa 	mov	r2, #1000	; 0x3e8
    1cd4:	e1a03002 	mov	r3, r2
    1cd8:	e2533001 	subs	r3, r3, #1
    1cdc:	1afffffd 	bne	0x1cd8
    1ce0:	e59530f0 	ldr	r3, [r5, #240]	; 0xf0
    1ce4:	e59420f0 	ldr	r2, [r4, #240]	; 0xf0
    1ce8:	e1823003 	orr	r3, r2, r3
    1cec:	e59620f0 	ldr	r2, [r6, #240]	; 0xf0
    1cf0:	e1833002 	orr	r3, r3, r2
    1cf4:	e3c33201 	bic	r3, r3, #268435456	; 0x10000000
    1cf8:	e58530f0 	str	r3, [r5, #240]	; 0xf0
    1cfc:	e59530f0 	ldr	r3, [r5, #240]	; 0xf0
    1d00:	e59420f0 	ldr	r2, [r4, #240]	; 0xf0
    1d04:	e1823003 	orr	r3, r2, r3
    1d08:	e59620f0 	ldr	r2, [r6, #240]	; 0xf0
    1d0c:	e1833002 	orr	r3, r3, r2
    1d10:	e3c33201 	bic	r3, r3, #268435456	; 0x10000000
    1d14:	e58430f0 	str	r3, [r4, #240]	; 0xf0
    1d18:	e59530f0 	ldr	r3, [r5, #240]	; 0xf0
    1d1c:	e59420f0 	ldr	r2, [r4, #240]	; 0xf0
    1d20:	e1823003 	orr	r3, r2, r3
    1d24:	e59620f0 	ldr	r2, [r6, #240]	; 0xf0
    1d28:	e1833002 	orr	r3, r3, r2
    1d2c:	e3c33201 	bic	r3, r3, #268435456	; 0x10000000
    1d30:	e58630f0 	str	r3, [r6, #240]	; 0xf0
    1d34:	e59530f4 	ldr	r3, [r5, #244]	; 0xf4
    1d38:	e59420f4 	ldr	r2, [r4, #244]	; 0xf4
    1d3c:	e1823003 	orr	r3, r2, r3
    1d40:	e59620f4 	ldr	r2, [r6, #244]	; 0xf4
    1d44:	e1833002 	orr	r3, r3, r2
    1d48:	e3c33402 	bic	r3, r3, #33554432	; 0x2000000
    1d4c:	e58530f4 	str	r3, [r5, #244]	; 0xf4
    1d50:	e59530f4 	ldr	r3, [r5, #244]	; 0xf4
    1d54:	e59420f4 	ldr	r2, [r4, #244]	; 0xf4
    1d58:	e1823003 	orr	r3, r2, r3
    1d5c:	e59620f4 	ldr	r2, [r6, #244]	; 0xf4
    1d60:	e1833002 	orr	r3, r3, r2
    1d64:	e3c33402 	bic	r3, r3, #33554432	; 0x2000000
    1d68:	e58430f4 	str	r3, [r4, #244]	; 0xf4
    1d6c:	e59530f4 	ldr	r3, [r5, #244]	; 0xf4
    1d70:	e59420f4 	ldr	r2, [r4, #244]	; 0xf4
    1d74:	e1823003 	orr	r3, r2, r3
    1d78:	e59620f4 	ldr	r2, [r6, #244]	; 0xf4
    1d7c:	e1833002 	orr	r3, r3, r2
    1d80:	e3c33402 	bic	r3, r3, #33554432	; 0x2000000
    1d84:	e58630f4 	str	r3, [r6, #244]	; 0xf4
    1d88:	e59f3338 	ldr	r3, [pc, #824]	; 0x20c8
    1d8c:	e5933000 	ldr	r3, [r3]
    1d90:	e3130802 	tst	r3, #131072	; 0x20000
    1d94:	0a000081 	beq	0x1fa0
    1d98:	e589b000 	str	fp, [r9]
    1d9c:	e59f0328 	ldr	r0, [pc, #808]	; 0x20cc
    1da0:	e5953110 	ldr	r3, [r5, #272]	; 0x110
    1da4:	e08f0000 	add	r0, pc, r0
    1da8:	e3833008 	orr	r3, r3, #8
    1dac:	e5853110 	str	r3, [r5, #272]	; 0x110
    1db0:	e5943110 	ldr	r3, [r4, #272]	; 0x110
    1db4:	e3833008 	orr	r3, r3, #8
    1db8:	e5843110 	str	r3, [r4, #272]	; 0x110
    1dbc:	eb001d40 	bl	0x92c4
    1dc0:	e58ab000 	str	fp, [sl]
    1dc4:	eb001054 	bl	0x5f1c
    1dc8:	e58a8000 	str	r8, [sl]
    1dcc:	eb000691 	bl	0x3818
    1dd0:	eb0009e0 	bl	0x4558
    1dd4:	ebfffec9 	bl	0x1900
    1dd8:	eb000730 	bl	0x3aa0
    1ddc:	ebfffe92 	bl	0x182c
    1de0:	e59f32e8 	ldr	r3, [pc, #744]	; 0x20d0
    1de4:	e7973003 	ldr	r3, [r7, r3]
    1de8:	e5930000 	ldr	r0, [r3]
    1dec:	eb000efb 	bl	0x59e0
    1df0:	e59f32dc 	ldr	r3, [pc, #732]	; 0x20d4
    1df4:	e7973003 	ldr	r3, [r7, r3]
    1df8:	e5930000 	ldr	r0, [r3]
    1dfc:	eb000e89 	bl	0x5828
    1e00:	e59f32d0 	ldr	r3, [pc, #720]	; 0x20d8
    1e04:	e7973003 	ldr	r3, [r7, r3]
    1e08:	e5930000 	ldr	r0, [r3]
    1e0c:	eb000eb3 	bl	0x58e0
    1e10:	e59f32c4 	ldr	r3, [pc, #708]	; 0x20dc
    1e14:	e7973003 	ldr	r3, [r7, r3]
    1e18:	e5930000 	ldr	r0, [r3]
    1e1c:	eb000e53 	bl	0x5770
    1e20:	e59510f0 	ldr	r1, [r5, #240]	; 0xf0
    1e24:	e1a03008 	mov	r3, r8
    1e28:	e59420f0 	ldr	r2, [r4, #240]	; 0xf0
    1e2c:	e1812002 	orr	r2, r1, r2
    1e30:	e59610f0 	ldr	r1, [r6, #240]	; 0xf0
    1e34:	e3822201 	orr	r2, r2, #268435456	; 0x10000000
    1e38:	e1822001 	orr	r2, r2, r1
    1e3c:	e58520f0 	str	r2, [r5, #240]	; 0xf0
    1e40:	e59510f0 	ldr	r1, [r5, #240]	; 0xf0
    1e44:	e59420f0 	ldr	r2, [r4, #240]	; 0xf0
    1e48:	e1812002 	orr	r2, r1, r2
    1e4c:	e59610f0 	ldr	r1, [r6, #240]	; 0xf0
    1e50:	e3822201 	orr	r2, r2, #268435456	; 0x10000000
    1e54:	e1822001 	orr	r2, r2, r1
    1e58:	e58420f0 	str	r2, [r4, #240]	; 0xf0
    1e5c:	e59510f0 	ldr	r1, [r5, #240]	; 0xf0
    1e60:	e59420f0 	ldr	r2, [r4, #240]	; 0xf0
    1e64:	e1812002 	orr	r2, r1, r2
    1e68:	e59610f0 	ldr	r1, [r6, #240]	; 0xf0
    1e6c:	e3822201 	orr	r2, r2, #268435456	; 0x10000000
    1e70:	e1822001 	orr	r2, r2, r1
    1e74:	e58620f0 	str	r2, [r6, #240]	; 0xf0
    1e78:	e59510f4 	ldr	r1, [r5, #244]	; 0xf4
    1e7c:	e59420f4 	ldr	r2, [r4, #244]	; 0xf4
    1e80:	e1812002 	orr	r2, r1, r2
    1e84:	e59610f4 	ldr	r1, [r6, #244]	; 0xf4
    1e88:	e3822402 	orr	r2, r2, #33554432	; 0x2000000
    1e8c:	e1822001 	orr	r2, r2, r1
    1e90:	e58520f4 	str	r2, [r5, #244]	; 0xf4
    1e94:	e59510f4 	ldr	r1, [r5, #244]	; 0xf4
    1e98:	e59420f4 	ldr	r2, [r4, #244]	; 0xf4
    1e9c:	e1812002 	orr	r2, r1, r2
    1ea0:	e59610f4 	ldr	r1, [r6, #244]	; 0xf4
    1ea4:	e3822402 	orr	r2, r2, #33554432	; 0x2000000
    1ea8:	e1822001 	orr	r2, r2, r1
    1eac:	e58420f4 	str	r2, [r4, #244]	; 0xf4
    1eb0:	e59510f4 	ldr	r1, [r5, #244]	; 0xf4
    1eb4:	e59420f4 	ldr	r2, [r4, #244]	; 0xf4
    1eb8:	e1812002 	orr	r2, r1, r2
    1ebc:	e59610f4 	ldr	r1, [r6, #244]	; 0xf4
    1ec0:	e3822402 	orr	r2, r2, #33554432	; 0x2000000
    1ec4:	e1822001 	orr	r2, r2, r1
    1ec8:	e58620f4 	str	r2, [r6, #244]	; 0xf4
    1ecc:	e3a02ffa 	mov	r2, #1000	; 0x3e8
    1ed0:	e1a03002 	mov	r3, r2
    1ed4:	e2533001 	subs	r3, r3, #1
    1ed8:	1afffffd 	bne	0x1ed4
    1edc:	e59530f0 	ldr	r3, [r5, #240]	; 0xf0
    1ee0:	e59420f0 	ldr	r2, [r4, #240]	; 0xf0
    1ee4:	e1823003 	orr	r3, r2, r3
    1ee8:	e59620f0 	ldr	r2, [r6, #240]	; 0xf0
    1eec:	e1833002 	orr	r3, r3, r2
    1ef0:	e3c33201 	bic	r3, r3, #268435456	; 0x10000000
    1ef4:	e58530f0 	str	r3, [r5, #240]	; 0xf0
    1ef8:	e59530f0 	ldr	r3, [r5, #240]	; 0xf0
    1efc:	e59420f0 	ldr	r2, [r4, #240]	; 0xf0
    1f00:	e1823003 	orr	r3, r2, r3
    1f04:	e59620f0 	ldr	r2, [r6, #240]	; 0xf0
    1f08:	e1833002 	orr	r3, r3, r2
    1f0c:	e3c33201 	bic	r3, r3, #268435456	; 0x10000000
    1f10:	e58430f0 	str	r3, [r4, #240]	; 0xf0
    1f14:	e59530f0 	ldr	r3, [r5, #240]	; 0xf0
    1f18:	e59420f0 	ldr	r2, [r4, #240]	; 0xf0
    1f1c:	e1823003 	orr	r3, r2, r3
    1f20:	e59620f0 	ldr	r2, [r6, #240]	; 0xf0
    1f24:	e1833002 	orr	r3, r3, r2
    1f28:	e3c33201 	bic	r3, r3, #268435456	; 0x10000000
    1f2c:	e58630f0 	str	r3, [r6, #240]	; 0xf0
    1f30:	e5898000 	str	r8, [r9]
    1f34:	e59530f4 	ldr	r3, [r5, #244]	; 0xf4
    1f38:	e59420f4 	ldr	r2, [r4, #244]	; 0xf4
    1f3c:	e1823003 	orr	r3, r2, r3
    1f40:	e59620f4 	ldr	r2, [r6, #244]	; 0xf4
    1f44:	e1833002 	orr	r3, r3, r2
    1f48:	e3c33402 	bic	r3, r3, #33554432	; 0x2000000
    1f4c:	e58530f4 	str	r3, [r5, #244]	; 0xf4
    1f50:	e59530f4 	ldr	r3, [r5, #244]	; 0xf4
    1f54:	e59420f4 	ldr	r2, [r4, #244]	; 0xf4
    1f58:	e1823003 	orr	r3, r2, r3
    1f5c:	e59620f4 	ldr	r2, [r6, #244]	; 0xf4
    1f60:	e1833002 	orr	r3, r3, r2
    1f64:	e3c33402 	bic	r3, r3, #33554432	; 0x2000000
    1f68:	e58430f4 	str	r3, [r4, #244]	; 0xf4
    1f6c:	e59530f4 	ldr	r3, [r5, #244]	; 0xf4
    1f70:	e59420f4 	ldr	r2, [r4, #244]	; 0xf4
    1f74:	e1823003 	orr	r3, r2, r3
    1f78:	e59620f4 	ldr	r2, [r6, #244]	; 0xf4
    1f7c:	e1833002 	orr	r3, r3, r2
    1f80:	e3c33402 	bic	r3, r3, #33554432	; 0x2000000
    1f84:	e58630f4 	str	r3, [r6, #244]	; 0xf4
    1f88:	e5953110 	ldr	r3, [r5, #272]	; 0x110
    1f8c:	e3c33008 	bic	r3, r3, #8
    1f90:	e5853110 	str	r3, [r5, #272]	; 0x110
    1f94:	e5943110 	ldr	r3, [r4, #272]	; 0x110
    1f98:	e3c33008 	bic	r3, r3, #8
    1f9c:	e5843110 	str	r3, [r4, #272]	; 0x110
    1fa0:	eb002351 	bl	0xacec
    1fa4:	e59f0134 	ldr	r0, [pc, #308]	; 0x20e0
    1fa8:	e08f0000 	add	r0, pc, r0
    1fac:	eb001cc4 	bl	0x92c4
    1fb0:	e59f3110 	ldr	r3, [pc, #272]	; 0x20c8
    1fb4:	e5933000 	ldr	r3, [r3]
    1fb8:	e3130802 	tst	r3, #131072	; 0x20000
    1fbc:	0a000007 	beq	0x1fe0
    1fc0:	e59f30e4 	ldr	r3, [pc, #228]	; 0x20ac
    1fc4:	e59320e0 	ldr	r2, [r3, #224]	; 0xe0
    1fc8:	e59311c4 	ldr	r1, [r3, #452]	; 0x1c4
    1fcc:	e7e22c52 	ubfx	r2, r2, #24, #3
    1fd0:	e3c1180f 	bic	r1, r1, #983040	; 0xf0000
    1fd4:	e2822002 	add	r2, r2, #2
    1fd8:	e1812802 	orr	r2, r1, r2, lsl #16
    1fdc:	e58321c4 	str	r2, [r3, #452]	; 0x1c4
    1fe0:	e59f30c8 	ldr	r3, [pc, #200]	; 0x20b0
    1fe4:	e59f20c0 	ldr	r2, [pc, #192]	; 0x20ac
    1fe8:	e59f10f4 	ldr	r1, [pc, #244]	; 0x20e4
    1fec:	e59201c0 	ldr	r0, [r2, #448]	; 0x1c0
    1ff0:	e3800102 	orr	r0, r0, #-2147483648	; 0x80000000
    1ff4:	e58201c0 	str	r0, [r2, #448]	; 0x1c0
    1ff8:	e59301c0 	ldr	r0, [r3, #448]	; 0x1c0
    1ffc:	e3800102 	orr	r0, r0, #-2147483648	; 0x80000000
    2000:	e58301c0 	str	r0, [r3, #448]	; 0x1c0
    2004:	e59200e4 	ldr	r0, [r2, #228]	; 0xe4
    2008:	e3c00a07 	bic	r0, r0, #28672	; 0x7000
    200c:	e3800a03 	orr	r0, r0, #12288	; 0x3000
    2010:	e58200e4 	str	r0, [r2, #228]	; 0xe4
    2014:	e59300e4 	ldr	r0, [r3, #228]	; 0xe4
    2018:	e3c00a07 	bic	r0, r0, #28672	; 0x7000
    201c:	e3800a03 	orr	r0, r0, #12288	; 0x3000
    2020:	e58300e4 	str	r0, [r3, #228]	; 0xe4
    2024:	e59200f0 	ldr	r0, [r2, #240]	; 0xf0
    2028:	e3800302 	orr	r0, r0, #134217728	; 0x8000000
    202c:	e58200f0 	str	r0, [r2, #240]	; 0xf0
    2030:	e59300f0 	ldr	r0, [r3, #240]	; 0xf0
    2034:	e3800302 	orr	r0, r0, #134217728	; 0x8000000
    2038:	e58300f0 	str	r0, [r3, #240]	; 0xf0
    203c:	e59201ec 	ldr	r0, [r2, #492]	; 0x1ec
    2040:	e3800c4f 	orr	r0, r0, #20224	; 0x4f00
    2044:	e3800010 	orr	r0, r0, #16
    2048:	e58201ec 	str	r0, [r2, #492]	; 0x1ec
    204c:	e59301ec 	ldr	r0, [r3, #492]	; 0x1ec
    2050:	e3800c4f 	orr	r0, r0, #20224	; 0x4f00
    2054:	e3800010 	orr	r0, r0, #16
    2058:	e58301ec 	str	r0, [r3, #492]	; 0x1ec
    205c:	e59200fc 	ldr	r0, [r2, #252]	; 0xfc
    2060:	e3c00406 	bic	r0, r0, #100663296	; 0x6000000
    2064:	e58200fc 	str	r0, [r2, #252]	; 0xfc
    2068:	e59300fc 	ldr	r0, [r3, #252]	; 0xfc
    206c:	e3c00406 	bic	r0, r0, #100663296	; 0x6000000
    2070:	e58300fc 	str	r0, [r3, #252]	; 0xfc
    2074:	e5930640 	ldr	r0, [r3, #1600]	; 0x640
    2078:	e1801001 	orr	r1, r0, r1
    207c:	e5831640 	str	r1, [r3, #1600]	; 0x640
    2080:	e59211dc 	ldr	r1, [r2, #476]	; 0x1dc
    2084:	e381140a 	orr	r1, r1, #167772160	; 0xa000000
    2088:	e58211dc 	str	r1, [r2, #476]	; 0x1dc
    208c:	e59321dc 	ldr	r2, [r3, #476]	; 0x1dc
    2090:	e382240a 	orr	r2, r2, #167772160	; 0xa000000
    2094:	e58321dc 	str	r2, [r3, #476]	; 0x1dc
    2098:	ebfffda3 	bl	0x172c
    209c:	eafffffe 	b	0x209c
    20a0:	22000064 	andcs	r0, r0, #100	; 0x64
    20a4:	10212000 	eorne	r2, r1, r0
    20a8:	0000a123 	andeq	sl, r0, r3, lsr #2
    20ac:	10207000 	eorne	r7, r0, r0
    20b0:	10208000 	eorne	r8, r0, r0
    20b4:	0000a130 	andeq	sl, r0, r0, lsr r1
    20b8:	0000f428 	andeq	pc, r0, r8, lsr #8
    20bc:	00000068 	andeq	r0, r0, r8, rrx
    20c0:	000000c8 	andeq	r0, r0, r8, asr #1
    20c4:	10206000 	eorne	r6, r0, r0
    20c8:	10205000 	eorne	r5, r0, r0
    20cc:	00009f78 	andeq	r9, r0, r8, ror pc
    20d0:	0000009c 	muleq	r0, ip, r0
    20d4:	000000bc 	strheq	r0, [r0], -ip
    20d8:	00000058 	andeq	r0, r0, r8, asr r0
    20dc:	00000018 	andeq	r0, r0, r8, lsl r0
    20e0:	00009d94 	muleq	r0, r4, sp
    20e4:	feb88200 	cdp2	2, 11, cr8, cr8, cr0, {0}
    20e8:	e92d4010 	push	{r4, lr}
    20ec:	e3a00000 	mov	r0, #0
    20f0:	eb00238f 	bl	0xaf34
    20f4:	e3a000ff 	mov	r0, #255	; 0xff
    20f8:	e8bd4010 	pop	{r4, lr}
    20fc:	ea0023af 	b	0xafc0
    2100:	e92d4010 	push	{r4, lr}
    2104:	e3a00000 	mov	r0, #0
    2108:	eb002389 	bl	0xaf34
    210c:	e3a00001 	mov	r0, #1
    2110:	eb0023a4 	bl	0xafa8
    2114:	e3a00001 	mov	r0, #1
    2118:	e8bd4010 	pop	{r4, lr}
    211c:	ea002384 	b	0xaf34
    2120:	e1a01000 	mov	r1, r0
    2124:	e3500001 	cmp	r0, #1
    2128:	0a000007 	beq	0x214c
    212c:	e3500002 	cmp	r0, #2
    2130:	03000554 	movweq	r0, #1364	; 0x554
    2134:	0a00000a 	beq	0x2164
    2138:	e3510000 	cmp	r1, #0
    213c:	03000554 	movweq	r0, #1364	; 0x554
    2140:	0281100b 	addeq	r1, r1, #11
    2144:	0a000006 	beq	0x2164
    2148:	ea000003 	b	0x215c
    214c:	e3a0100f 	mov	r1, #15
    2150:	e3000554 	movw	r0, #1364	; 0x554
    2154:	e1a02001 	mov	r2, r1
    2158:	ea000002 	b	0x2168
    215c:	e3000554 	movw	r0, #1364	; 0x554
    2160:	e3a01000 	mov	r1, #0
    2164:	e3a0200f 	mov	r2, #15
    2168:	e3a03008 	mov	r3, #8
    216c:	ea0016da 	b	0x7cdc
    2170:	e1a01000 	mov	r1, r0
    2174:	e3500001 	cmp	r0, #1
    2178:	0a000005 	beq	0x2194
    217c:	e3500002 	cmp	r0, #2
    2180:	0a000003 	beq	0x2194
    2184:	e3500000 	cmp	r0, #0
    2188:	13000554 	movwne	r0, #1364	; 0x554
    218c:	13a01000 	movne	r1, #0
    2190:	1a000000 	bne	0x2198
    2194:	e3000554 	movw	r0, #1364	; 0x554
    2198:	e3a02003 	mov	r2, #3
    219c:	e3a03004 	mov	r3, #4
    21a0:	ea0016cd 	b	0x7cdc
    21a4:	e1a01000 	mov	r1, r0
    21a8:	e3a02001 	mov	r2, #1
    21ac:	e3000552 	movw	r0, #1362	; 0x552
    21b0:	e3a0300e 	mov	r3, #14
    21b4:	ea0016c8 	b	0x7cdc
    21b8:	e92d4007 	push	{r0, r1, r2, lr}
    21bc:	e3a03000 	mov	r3, #0
    21c0:	e58d3004 	str	r3, [sp, #4]
    21c4:	e3500007 	cmp	r0, #7
    21c8:	908ff100 	addls	pc, pc, r0, lsl #2
    21cc:	ea00002a 	b	0x227c
    21d0:	ea000006 	b	0x21f0
    21d4:	ea000007 	b	0x21f8
    21d8:	ea000008 	b	0x2200
    21dc:	ea000007 	b	0x2200
    21e0:	ea000008 	b	0x2208
    21e4:	ea000009 	b	0x2210
    21e8:	ea00000d 	b	0x2224
    21ec:	ea000014 	b	0x2244
    21f0:	e3a0106c 	mov	r1, #108	; 0x6c
    21f4:	ea000006 	b	0x2214
    21f8:	e3a01054 	mov	r1, #84	; 0x54
    21fc:	ea000004 	b	0x2214
    2200:	e3a01048 	mov	r1, #72	; 0x48
    2204:	ea000002 	b	0x2214
    2208:	e3a0103f 	mov	r1, #63	; 0x3f
    220c:	ea000000 	b	0x2214
    2210:	e3a0103c 	mov	r1, #60	; 0x3c
    2214:	e3a0207f 	mov	r2, #127	; 0x7f
    2218:	e3a03000 	mov	r3, #0
    221c:	e300021e 	movw	r0, #542	; 0x21e
    2220:	ea000013 	b	0x2274
    2224:	e28d1004 	add	r1, sp, #4
    2228:	e3a0207f 	mov	r2, #127	; 0x7f
    222c:	e3a03000 	mov	r3, #0
    2230:	e300021e 	movw	r0, #542	; 0x21e
    2234:	eb001889 	bl	0x8460
    2238:	e59dc004 	ldr	ip, [sp, #4]
    223c:	e28cc001 	add	ip, ip, #1
    2240:	ea000006 	b	0x2260
    2244:	e28d1004 	add	r1, sp, #4
    2248:	e3a0207f 	mov	r2, #127	; 0x7f
    224c:	e3a03000 	mov	r3, #0
    2250:	e300021e 	movw	r0, #542	; 0x21e
    2254:	eb001881 	bl	0x8460
    2258:	e59dc004 	ldr	ip, [sp, #4]
    225c:	e24cc001 	sub	ip, ip, #1
    2260:	e1a0100c 	mov	r1, ip
    2264:	e3a0207f 	mov	r2, #127	; 0x7f
    2268:	e3a03000 	mov	r3, #0
    226c:	e300021e 	movw	r0, #542	; 0x21e
    2270:	e58dc004 	str	ip, [sp, #4]
    2274:	eb001698 	bl	0x7cdc
    2278:	ea000002 	b	0x2288
    227c:	e59f0008 	ldr	r0, [pc, #8]	; 0x228c
    2280:	e08f0000 	add	r0, pc, r0
    2284:	eb001c0e 	bl	0x92c4
    2288:	e8bd800e 	pop	{r1, r2, r3, pc}
    228c:	00009acb 	andeq	r9, r0, fp, asr #21
    2290:	e92d401f 	push	{r0, r1, r2, r3, r4, lr}
    2294:	e59f0070 	ldr	r0, [pc, #112]	; 0x230c
    2298:	e08f0000 	add	r0, pc, r0
    229c:	e3a04000 	mov	r4, #0
    22a0:	e58d400c 	str	r4, [sp, #12]
    22a4:	e58d4008 	str	r4, [sp, #8]
    22a8:	e58d4004 	str	r4, [sp, #4]
    22ac:	eb001c04 	bl	0x92c4
    22b0:	e1a03004 	mov	r3, r4
    22b4:	e28d100c 	add	r1, sp, #12
    22b8:	e3a0207f 	mov	r2, #127	; 0x7f
    22bc:	e300021e 	movw	r0, #542	; 0x21e
    22c0:	eb001866 	bl	0x8460
    22c4:	e3004554 	movw	r4, #1364	; 0x554
    22c8:	e28d1008 	add	r1, sp, #8
    22cc:	e3a02003 	mov	r2, #3
    22d0:	e3a03004 	mov	r3, #4
    22d4:	e1a00004 	mov	r0, r4
    22d8:	eb001860 	bl	0x8460
    22dc:	e28d1004 	add	r1, sp, #4
    22e0:	e1a00004 	mov	r0, r4
    22e4:	e3a0200f 	mov	r2, #15
    22e8:	e3a03008 	mov	r3, #8
    22ec:	eb00185b 	bl	0x8460
    22f0:	e59f0018 	ldr	r0, [pc, #24]	; 0x2310
    22f4:	e59d100c 	ldr	r1, [sp, #12]
    22f8:	e08f0000 	add	r0, pc, r0
    22fc:	e59d2008 	ldr	r2, [sp, #8]
    2300:	e59d3004 	ldr	r3, [sp, #4]
    2304:	eb001bee 	bl	0x92c4
    2308:	e8bd801f 	pop	{r0, r1, r2, r3, r4, pc}
    230c:	00009ad5 	ldrdeq	r9, [r0], -r5
    2310:	00009a92 	muleq	r0, r2, sl
    2314:	e92d45f7 	push	{r0, r1, r2, r4, r5, r6, r7, r8, sl, lr}
    2318:	e28d5007 	add	r5, sp, #7
    231c:	e28d4004 	add	r4, sp, #4
    2320:	e1a00005 	mov	r0, r5
    2324:	e1a01004 	mov	r1, r4
    2328:	e1a07005 	mov	r7, r5
    232c:	e1a06004 	mov	r6, r4
    2330:	e59f50e4 	ldr	r5, [pc, #228]	; 0x241c
    2334:	e59f40e4 	ldr	r4, [pc, #228]	; 0x2420
    2338:	eb001dd8 	bl	0x9aa0
    233c:	e08f5005 	add	r5, pc, r5
    2340:	e08f4004 	add	r4, pc, r4
    2344:	ea000030 	b	0x240c
    2348:	e5dd8007 	ldrb	r8, [sp, #7]
    234c:	e358000d 	cmp	r8, #13
    2350:	1358000a 	cmpne	r8, #10
    2354:	e1a00008 	mov	r0, r8
    2358:	13a0a000 	movne	sl, #0
    235c:	03a0a001 	moveq	sl, #1
    2360:	1a00000f 	bne	0x23a4
    2364:	e3a01000 	mov	r1, #0
    2368:	e3a0200a 	mov	r2, #10
    236c:	e59f30b0 	ldr	r3, [pc, #176]	; 0x2424
    2370:	e1a00002 	mov	r0, r2
    2374:	e08f3003 	add	r3, pc, r3
    2378:	e5d3c080 	ldrb	ip, [r3, #128]	; 0x80
    237c:	e5c31080 	strb	r1, [r3, #128]	; 0x80
    2380:	e7c3100c 	strb	r1, [r3, ip]
    2384:	e5cd2007 	strb	r2, [sp, #7]
    2388:	eb001dac 	bl	0x9a40
    238c:	e3a0300d 	mov	r3, #13
    2390:	e1a00003 	mov	r0, r3
    2394:	e5cd3007 	strb	r3, [sp, #7]
    2398:	eb001da8 	bl	0x9a40
    239c:	e3a00001 	mov	r0, #1
    23a0:	ea00001c 	b	0x2418
    23a4:	e3580008 	cmp	r8, #8
    23a8:	1a00000e 	bne	0x23e8
    23ac:	e5d43080 	ldrb	r3, [r4, #128]	; 0x80
    23b0:	e3530000 	cmp	r3, #0
    23b4:	0a000011 	beq	0x2400
    23b8:	e1a00008 	mov	r0, r8
    23bc:	eb001d9f 	bl	0x9a40
    23c0:	e3a00020 	mov	r0, #32
    23c4:	eb001d9d 	bl	0x9a40
    23c8:	e1a00008 	mov	r0, r8
    23cc:	eb001d9b 	bl	0x9a40
    23d0:	e5d43080 	ldrb	r3, [r4, #128]	; 0x80
    23d4:	e2433001 	sub	r3, r3, #1
    23d8:	e6ef3073 	uxtb	r3, r3
    23dc:	e7c4a003 	strb	sl, [r4, r3]
    23e0:	e5c43080 	strb	r3, [r4, #128]	; 0x80
    23e4:	ea000005 	b	0x2400
    23e8:	eb001d94 	bl	0x9a40
    23ec:	e5d53080 	ldrb	r3, [r5, #128]	; 0x80
    23f0:	e2832001 	add	r2, r3, #1
    23f4:	e5c52080 	strb	r2, [r5, #128]	; 0x80
    23f8:	e5dd2007 	ldrb	r2, [sp, #7]
    23fc:	e7c52003 	strb	r2, [r5, r3]
    2400:	e1a00007 	mov	r0, r7
    2404:	e1a01006 	mov	r1, r6
    2408:	eb001da4 	bl	0x9aa0
    240c:	e1dd00b4 	ldrh	r0, [sp, #4]
    2410:	e3500000 	cmp	r0, #0
    2414:	1affffcb 	bne	0x2348
    2418:	e8bd85fe 	pop	{r1, r2, r3, r4, r5, r6, r7, r8, sl, pc}
    241c:	000108e4 	andeq	r0, r1, r4, ror #17
    2420:	000108e0 	andeq	r0, r1, r0, ror #17
    2424:	000108ac 	andeq	r0, r1, ip, lsr #17
    2428:	e92d4ff7 	push	{r0, r1, r2, r4, r5, r6, r7, r8, r9, sl, fp, lr}
    242c:	e59f052c 	ldr	r0, [pc, #1324]	; 0x2960
    2430:	e08f0000 	add	r0, pc, r0
    2434:	e59f6528 	ldr	r6, [pc, #1320]	; 0x2964
    2438:	eb001ba1 	bl	0x92c4
    243c:	e59f0524 	ldr	r0, [pc, #1316]	; 0x2968
    2440:	e59f1524 	ldr	r1, [pc, #1316]	; 0x296c
    2444:	e08f0000 	add	r0, pc, r0
    2448:	e08f1001 	add	r1, pc, r1
    244c:	e08f6006 	add	r6, pc, r6
    2450:	eb001b9b 	bl	0x92c4
    2454:	e59f0514 	ldr	r0, [pc, #1300]	; 0x2970
    2458:	e59f1514 	ldr	r1, [pc, #1300]	; 0x2974
    245c:	e08f0000 	add	r0, pc, r0
    2460:	e08f1001 	add	r1, pc, r1
    2464:	e3a07001 	mov	r7, #1
    2468:	eb001b95 	bl	0x92c4
    246c:	e59f0504 	ldr	r0, [pc, #1284]	; 0x2978
    2470:	e08f0000 	add	r0, pc, r0
    2474:	e59f4500 	ldr	r4, [pc, #1280]	; 0x297c
    2478:	eb001b91 	bl	0x92c4
    247c:	e59f04fc 	ldr	r0, [pc, #1276]	; 0x2980
    2480:	e08f0000 	add	r0, pc, r0
    2484:	e59f94f8 	ldr	r9, [pc, #1272]	; 0x2984
    2488:	eb001b8d 	bl	0x92c4
    248c:	e59f04f4 	ldr	r0, [pc, #1268]	; 0x2988
    2490:	e08f0000 	add	r0, pc, r0
    2494:	e59fa4f0 	ldr	sl, [pc, #1264]	; 0x298c
    2498:	e1a05007 	mov	r5, r7
    249c:	e59fb4ec 	ldr	fp, [pc, #1260]	; 0x2990
    24a0:	eb001b87 	bl	0x92c4
    24a4:	e08f4004 	add	r4, pc, r4
    24a8:	e08f9009 	add	r9, pc, r9
    24ac:	e08fa00a 	add	sl, pc, sl
    24b0:	ebffff97 	bl	0x2314
    24b4:	e3500000 	cmp	r0, #0
    24b8:	0afffffc 	beq	0x24b0
    24bc:	e1a00004 	mov	r0, r4
    24c0:	ebfffc27 	bl	0x1564
    24c4:	e1a00004 	mov	r0, r4
    24c8:	e08f100b 	add	r1, pc, fp
    24cc:	eb001c47 	bl	0x95f0
    24d0:	e2503000 	subs	r3, r0, #0
    24d4:	1a00000d 	bne	0x2510
    24d8:	e3550001 	cmp	r5, #1
    24dc:	1a000006 	bne	0x24fc
    24e0:	e59f04ac 	ldr	r0, [pc, #1196]	; 0x2994
    24e4:	e08f0000 	add	r0, pc, r0
    24e8:	e58d3004 	str	r3, [sp, #4]
    24ec:	eb001b74 	bl	0x92c4
    24f0:	e59d3004 	ldr	r3, [sp, #4]
    24f4:	e1a05003 	mov	r5, r3
    24f8:	ea0000fa 	b	0x28e8
    24fc:	e59f0494 	ldr	r0, [pc, #1172]	; 0x2998
    2500:	e08f0000 	add	r0, pc, r0
    2504:	eb001b6e 	bl	0x92c4
    2508:	e3a05001 	mov	r5, #1
    250c:	ea0000f5 	b	0x28e8
    2510:	e59f1484 	ldr	r1, [pc, #1156]	; 0x299c
    2514:	e1a00004 	mov	r0, r4
    2518:	e08f1001 	add	r1, pc, r1
    251c:	eb001c33 	bl	0x95f0
    2520:	e3500000 	cmp	r0, #0
    2524:	0a0000d6 	beq	0x2884
    2528:	e59f1470 	ldr	r1, [pc, #1136]	; 0x29a0
    252c:	e1a00004 	mov	r0, r4
    2530:	e08f1001 	add	r1, pc, r1
    2534:	eb001c2d 	bl	0x95f0
    2538:	e3500000 	cmp	r0, #0
    253c:	1a000001 	bne	0x2548
    2540:	ebfffc06 	bl	0x1560
    2544:	ea0000e7 	b	0x28e8
    2548:	e59f1454 	ldr	r1, [pc, #1108]	; 0x29a4
    254c:	e1a00004 	mov	r0, r4
    2550:	e08f1001 	add	r1, pc, r1
    2554:	eb001c25 	bl	0x95f0
    2558:	e3500000 	cmp	r0, #0
    255c:	1a000015 	bne	0x25b8
    2560:	e59f0440 	ldr	r0, [pc, #1088]	; 0x29a8
    2564:	e59f3440 	ldr	r3, [pc, #1088]	; 0x29ac
    2568:	e08f0000 	add	r0, pc, r0
    256c:	e7963003 	ldr	r3, [r6, r3]
    2570:	e5931000 	ldr	r1, [r3]
    2574:	eb001b52 	bl	0x92c4
    2578:	e59f0430 	ldr	r0, [pc, #1072]	; 0x29b0
    257c:	e08f0000 	add	r0, pc, r0
    2580:	eb001b4f 	bl	0x92c4
    2584:	ebffff62 	bl	0x2314
    2588:	e3500000 	cmp	r0, #0
    258c:	0afffffc 	beq	0x2584
    2590:	e1a00009 	mov	r0, r9
    2594:	eb001a08 	bl	0x8dbc
    2598:	e1a01000 	mov	r1, r0
    259c:	e3500006 	cmp	r0, #6
    25a0:	8a000001 	bhi	0x25ac
    25a4:	ebfffd65 	bl	0x1b40
    25a8:	ea0000ce 	b	0x28e8
    25ac:	e1a0000a 	mov	r0, sl
    25b0:	eb001b43 	bl	0x92c4
    25b4:	eafffff2 	b	0x2584
    25b8:	e59f13f4 	ldr	r1, [pc, #1012]	; 0x29b4
    25bc:	e1a00004 	mov	r0, r4
    25c0:	e08f1001 	add	r1, pc, r1
    25c4:	eb001c09 	bl	0x95f0
    25c8:	e3500000 	cmp	r0, #0
    25cc:	1a000022 	bne	0x265c
    25d0:	e3a01002 	mov	r1, #2
    25d4:	e59f03dc 	ldr	r0, [pc, #988]	; 0x29b8
    25d8:	e08f0000 	add	r0, pc, r0
    25dc:	eb001b38 	bl	0x92c4
    25e0:	e59f03d4 	ldr	r0, [pc, #980]	; 0x29bc
    25e4:	e08f0000 	add	r0, pc, r0
    25e8:	eb001b35 	bl	0x92c4
    25ec:	e59f03cc 	ldr	r0, [pc, #972]	; 0x29c0
    25f0:	e08f0000 	add	r0, pc, r0
    25f4:	eb001b32 	bl	0x92c4
    25f8:	e59f03c4 	ldr	r0, [pc, #964]	; 0x29c4
    25fc:	e08f0000 	add	r0, pc, r0
    2600:	eb001b2f 	bl	0x92c4
    2604:	e59f03bc 	ldr	r0, [pc, #956]	; 0x29c8
    2608:	e08f0000 	add	r0, pc, r0
    260c:	eb001b2c 	bl	0x92c4
    2610:	e59f03b4 	ldr	r0, [pc, #948]	; 0x29cc
    2614:	e08f0000 	add	r0, pc, r0
    2618:	eb001b29 	bl	0x92c4
    261c:	e59f03ac 	ldr	r0, [pc, #940]	; 0x29d0
    2620:	e08f0000 	add	r0, pc, r0
    2624:	eb001b26 	bl	0x92c4
    2628:	e59f03a4 	ldr	r0, [pc, #932]	; 0x29d4
    262c:	e08f0000 	add	r0, pc, r0
    2630:	eb001b23 	bl	0x92c4
    2634:	e59f039c 	ldr	r0, [pc, #924]	; 0x29d8
    2638:	e08f0000 	add	r0, pc, r0
    263c:	eb001b20 	bl	0x92c4
    2640:	e59f0394 	ldr	r0, [pc, #916]	; 0x29dc
    2644:	e08f0000 	add	r0, pc, r0
    2648:	eb001b1d 	bl	0x92c4
    264c:	e59f038c 	ldr	r0, [pc, #908]	; 0x29e0
    2650:	e08f0000 	add	r0, pc, r0
    2654:	eb001b1a 	bl	0x92c4
    2658:	ea0000a2 	b	0x28e8
    265c:	e59f1380 	ldr	r1, [pc, #896]	; 0x29e4
    2660:	e1a00004 	mov	r0, r4
    2664:	e08f1001 	add	r1, pc, r1
    2668:	eb001be0 	bl	0x95f0
    266c:	e2503000 	subs	r3, r0, #0
    2670:	1a00001d 	bne	0x26ec
    2674:	e59f036c 	ldr	r0, [pc, #876]	; 0x29e8
    2678:	e08f0000 	add	r0, pc, r0
    267c:	e58d3004 	str	r3, [sp, #4]
    2680:	eb001b0f 	bl	0x92c4
    2684:	e3550001 	cmp	r5, #1
    2688:	e59d3004 	ldr	r3, [sp, #4]
    268c:	1a00000b 	bne	0x26c0
    2690:	e59f6354 	ldr	r6, [pc, #852]	; 0x29ec
    2694:	e1a04003 	mov	r4, r3
    2698:	e08f6006 	add	r6, pc, r6
    269c:	e59f534c 	ldr	r5, [pc, #844]	; 0x29f0
    26a0:	e1a00006 	mov	r0, r6
    26a4:	eb001b06 	bl	0x92c4
    26a8:	e1a08005 	mov	r8, r5
    26ac:	e2588001 	subs	r8, r8, #1
    26b0:	1afffffd 	bne	0x26ac
    26b4:	e2844001 	add	r4, r4, #1
    26b8:	e3540028 	cmp	r4, #40	; 0x28
    26bc:	1afffff7 	bne	0x26a0
    26c0:	e3570000 	cmp	r7, #0
    26c4:	1a0000a4 	bne	0x295c
    26c8:	e59f2324 	ldr	r2, [pc, #804]	; 0x29f4
    26cc:	e59f3324 	ldr	r3, [pc, #804]	; 0x29f8
    26d0:	e5921640 	ldr	r1, [r2, #1600]	; 0x640
    26d4:	e3c11c3f 	bic	r1, r1, #16128	; 0x3f00
    26d8:	e5821640 	str	r1, [r2, #1600]	; 0x640
    26dc:	e5932640 	ldr	r2, [r3, #1600]	; 0x640
    26e0:	e3c22c3f 	bic	r2, r2, #16128	; 0x3f00
    26e4:	e5832640 	str	r2, [r3, #1600]	; 0x640
    26e8:	ea00009b 	b	0x295c
    26ec:	e59f1308 	ldr	r1, [pc, #776]	; 0x29fc
    26f0:	e1a00004 	mov	r0, r4
    26f4:	e08f1001 	add	r1, pc, r1
    26f8:	eb001bbc 	bl	0x95f0
    26fc:	e2503000 	subs	r3, r0, #0
    2700:	1a00000d 	bne	0x273c
    2704:	e3570001 	cmp	r7, #1
    2708:	1a000006 	bne	0x2728
    270c:	e59f02ec 	ldr	r0, [pc, #748]	; 0x2a00
    2710:	e08f0000 	add	r0, pc, r0
    2714:	e58d3004 	str	r3, [sp, #4]
    2718:	eb001ae9 	bl	0x92c4
    271c:	e59d3004 	ldr	r3, [sp, #4]
    2720:	e1a07003 	mov	r7, r3
    2724:	ea00006f 	b	0x28e8
    2728:	e59f02d4 	ldr	r0, [pc, #724]	; 0x2a04
    272c:	e08f0000 	add	r0, pc, r0
    2730:	eb001ae3 	bl	0x92c4
    2734:	e3a07001 	mov	r7, #1
    2738:	ea00006a 	b	0x28e8
    273c:	e59f12c4 	ldr	r1, [pc, #708]	; 0x2a08
    2740:	e1a00004 	mov	r0, r4
    2744:	e08f1001 	add	r1, pc, r1
    2748:	eb001ba8 	bl	0x95f0
    274c:	e3500000 	cmp	r0, #0
    2750:	1a000064 	bne	0x28e8
    2754:	e59f02b0 	ldr	r0, [pc, #688]	; 0x2a0c
    2758:	e08f0000 	add	r0, pc, r0
    275c:	eb001ad8 	bl	0x92c4
    2760:	e59f02a8 	ldr	r0, [pc, #680]	; 0x2a10
    2764:	e08f0000 	add	r0, pc, r0
    2768:	eb001ad5 	bl	0x92c4
    276c:	e59f02a0 	ldr	r0, [pc, #672]	; 0x2a14
    2770:	e08f0000 	add	r0, pc, r0
    2774:	eb001ad2 	bl	0x92c4
    2778:	e59f0298 	ldr	r0, [pc, #664]	; 0x2a18
    277c:	e08f0000 	add	r0, pc, r0
    2780:	eb001acf 	bl	0x92c4
    2784:	e59f0290 	ldr	r0, [pc, #656]	; 0x2a1c
    2788:	e08f0000 	add	r0, pc, r0
    278c:	eb001acc 	bl	0x92c4
    2790:	e59f0288 	ldr	r0, [pc, #648]	; 0x2a20
    2794:	e08f0000 	add	r0, pc, r0
    2798:	eb001ac9 	bl	0x92c4
    279c:	e59f0280 	ldr	r0, [pc, #640]	; 0x2a24
    27a0:	e08f0000 	add	r0, pc, r0
    27a4:	eb001ac6 	bl	0x92c4
    27a8:	e59f0278 	ldr	r0, [pc, #632]	; 0x2a28
    27ac:	e08f0000 	add	r0, pc, r0
    27b0:	eb001ac3 	bl	0x92c4
    27b4:	e59f0270 	ldr	r0, [pc, #624]	; 0x2a2c
    27b8:	e08f0000 	add	r0, pc, r0
    27bc:	eb001ac0 	bl	0x92c4
    27c0:	e59f0268 	ldr	r0, [pc, #616]	; 0x2a30
    27c4:	e08f0000 	add	r0, pc, r0
    27c8:	eb001abd 	bl	0x92c4
    27cc:	e59f0260 	ldr	r0, [pc, #608]	; 0x2a34
    27d0:	e08f0000 	add	r0, pc, r0
    27d4:	eb001aba 	bl	0x92c4
    27d8:	e59f0258 	ldr	r0, [pc, #600]	; 0x2a38
    27dc:	e08f0000 	add	r0, pc, r0
    27e0:	eb001ab7 	bl	0x92c4
    27e4:	e59f0250 	ldr	r0, [pc, #592]	; 0x2a3c
    27e8:	e08f0000 	add	r0, pc, r0
    27ec:	eb001ab4 	bl	0x92c4
    27f0:	ebfffec7 	bl	0x2314
    27f4:	e3500000 	cmp	r0, #0
    27f8:	0afffffc 	beq	0x27f0
    27fc:	e59f023c 	ldr	r0, [pc, #572]	; 0x2a40
    2800:	e08f0000 	add	r0, pc, r0
    2804:	eb00196c 	bl	0x8dbc
    2808:	e2403001 	sub	r3, r0, #1
    280c:	e1a01000 	mov	r1, r0
    2810:	e353000e 	cmp	r3, #14
    2814:	8a000005 	bhi	0x2830
    2818:	e59f3224 	ldr	r3, [pc, #548]	; 0x2a44
    281c:	e7963003 	ldr	r3, [r6, r3]
    2820:	e5830000 	str	r0, [r3]
    2824:	e58d0004 	str	r0, [sp, #4]
    2828:	ebfffc9f 	bl	0x1aac
    282c:	e59d1004 	ldr	r1, [sp, #4]
    2830:	e59f320c 	ldr	r3, [pc, #524]	; 0x2a44
    2834:	e7963003 	ldr	r3, [r6, r3]
    2838:	e5933000 	ldr	r3, [r3]
    283c:	e2433001 	sub	r3, r3, #1
    2840:	e3530008 	cmp	r3, #8
    2844:	908ff103 	addls	pc, pc, r3, lsl #2
    2848:	ea000023 	b	0x28dc
    284c:	ea000007 	b	0x2870
    2850:	ea00000d 	b	0x288c
    2854:	ea000010 	b	0x289c
    2858:	ea000011 	b	0x28a4
    285c:	ea000012 	b	0x28ac
    2860:	ea000013 	b	0x28b4
    2864:	ea000014 	b	0x28bc
    2868:	ea000017 	b	0x28cc
    286c:	ea000018 	b	0x28d4
    2870:	e3a00000 	mov	r0, #0
    2874:	ebfffe29 	bl	0x2120
    2878:	e3a00000 	mov	r0, #0
    287c:	ebfffe4d 	bl	0x21b8
    2880:	e3a00000 	mov	r0, #0
    2884:	ebfffe81 	bl	0x2290
    2888:	ea000016 	b	0x28e8
    288c:	e3a00001 	mov	r0, #1
    2890:	ebfffe22 	bl	0x2120
    2894:	e3a00002 	mov	r0, #2
    2898:	eafffff7 	b	0x287c
    289c:	e3a00002 	mov	r0, #2
    28a0:	ea000006 	b	0x28c0
    28a4:	e3a00002 	mov	r0, #2
    28a8:	eafffff1 	b	0x2874
    28ac:	e3a00000 	mov	r0, #0
    28b0:	ea000002 	b	0x28c0
    28b4:	e3a00001 	mov	r0, #1
    28b8:	eaffffed 	b	0x2874
    28bc:	e3a00001 	mov	r0, #1
    28c0:	ebfffe16 	bl	0x2120
    28c4:	e3a00004 	mov	r0, #4
    28c8:	eaffffeb 	b	0x287c
    28cc:	e3a00006 	mov	r0, #6
    28d0:	eaffffe9 	b	0x287c
    28d4:	e3a00007 	mov	r0, #7
    28d8:	eaffffe7 	b	0x287c
    28dc:	e59f0164 	ldr	r0, [pc, #356]	; 0x2a48
    28e0:	e08f0000 	add	r0, pc, r0
    28e4:	eb001a76 	bl	0x92c4
    28e8:	e59f015c 	ldr	r0, [pc, #348]	; 0x2a4c
    28ec:	e08f0000 	add	r0, pc, r0
    28f0:	eb001a73 	bl	0x92c4
    28f4:	e3550000 	cmp	r5, #0
    28f8:	059f1150 	ldreq	r1, [pc, #336]	; 0x2a50
    28fc:	008f1001 	addeq	r1, pc, r1
    2900:	159f114c 	ldrne	r1, [pc, #332]	; 0x2a54
    2904:	108f1001 	addne	r1, pc, r1
    2908:	e59f0148 	ldr	r0, [pc, #328]	; 0x2a58
    290c:	e08f0000 	add	r0, pc, r0
    2910:	eb001a6b 	bl	0x92c4
    2914:	e3550000 	cmp	r5, #0
    2918:	059f113c 	ldreq	r1, [pc, #316]	; 0x2a5c
    291c:	008f1001 	addeq	r1, pc, r1
    2920:	159f1138 	ldrne	r1, [pc, #312]	; 0x2a60
    2924:	108f1001 	addne	r1, pc, r1
    2928:	e59f0134 	ldr	r0, [pc, #308]	; 0x2a64
    292c:	e08f0000 	add	r0, pc, r0
    2930:	eb001a63 	bl	0x92c4
    2934:	e59f012c 	ldr	r0, [pc, #300]	; 0x2a68
    2938:	e08f0000 	add	r0, pc, r0
    293c:	eb001a60 	bl	0x92c4
    2940:	e59f0124 	ldr	r0, [pc, #292]	; 0x2a6c
    2944:	e08f0000 	add	r0, pc, r0
    2948:	eb001a5d 	bl	0x92c4
    294c:	e59f011c 	ldr	r0, [pc, #284]	; 0x2a70
    2950:	e08f0000 	add	r0, pc, r0
    2954:	eb001a5a 	bl	0x92c4
    2958:	eafffed4 	b	0x24b0
    295c:	e8bd8ffe 	pop	{r1, r2, r3, r4, r5, r6, r7, r8, r9, sl, fp, pc}
    2960:	0000999f 	muleq	r0, pc, r9	; <UNPREDICTABLE>
    2964:	0000ebb8 			; <UNDEFINED> instruction: 0x0000ebb8
    2968:	00009991 	muleq	r0, r1, r9
    296c:	00009dbc 			; <UNDEFINED> instruction: 0x00009dbc
    2970:	00009995 	muleq	r0, r5, r9
    2974:	000099b7 			; <UNDEFINED> instruction: 0x000099b7
    2978:	000099af 	andeq	r9, r0, pc, lsr #19
    297c:	0001077c 	andeq	r0, r1, ip, ror r7
    2980:	000099bb 			; <UNDEFINED> instruction: 0x000099bb
    2984:	00010778 	andeq	r0, r1, r8, ror r7
    2988:	000099c5 	andeq	r9, r0, r5, asr #19
    298c:	00009a51 	andeq	r9, r0, r1, asr sl
    2990:	000099a5 	andeq	r9, r0, r5, lsr #19
    2994:	0000998b 	andeq	r9, r0, fp, lsl #19
    2998:	00009996 	muleq	r0, r6, r9
    299c:	000099a4 	andeq	r9, r0, r4, lsr #19
    29a0:	0000998e 	andeq	r9, r0, lr, lsl #19
    29a4:	00009970 	andeq	r9, r0, r0, ror r9
    29a8:	0000995a 	andeq	r9, r0, sl, asr r9
    29ac:	00000064 	andeq	r0, r0, r4, rrx
    29b0:	0000995f 	andeq	r9, r0, pc, asr r9
    29b4:	00009956 	andeq	r9, r0, r6, asr r9
    29b8:	00009940 	andeq	r9, r0, r0, asr #18
    29bc:	0000993e 	andeq	r9, r0, lr, lsr r9
    29c0:	00009945 	andeq	r9, r0, r5, asr #18
    29c4:	00009947 	andeq	r9, r0, r7, asr #18
    29c8:	0000994a 	andeq	r9, r0, sl, asr #18
    29cc:	00009955 	andeq	r9, r0, r5, asr r9
    29d0:	00009967 	andeq	r9, r0, r7, ror #18
    29d4:	00009970 	andeq	r9, r0, r0, ror r9
    29d8:	00009979 	andeq	r9, r0, r9, ror r9
    29dc:	00009992 	muleq	r0, r2, r9
    29e0:	0000999b 	muleq	r0, fp, r9
    29e4:	0000999d 	muleq	r0, sp, r9
    29e8:	0000998b 	andeq	r9, r0, fp, lsl #19
    29ec:	0000951d 	andeq	r9, r0, sp, lsl r5
    29f0:	00632ea0 	rsbeq	r2, r3, r0, lsr #29
    29f4:	10207000 	eorne	r7, r0, r0
    29f8:	10208000 	eorne	r8, r0, r0
    29fc:	0000a10d 	andeq	sl, r0, sp, lsl #2
    2a00:	00009906 	andeq	r9, r0, r6, lsl #18
    2a04:	00009903 	andeq	r9, r0, r3, lsl #18
    2a08:	00009903 	andeq	r9, r0, r3, lsl #18
    2a0c:	000096f9 	strdeq	r9, [r0], -r9	; <UNPREDICTABLE>
    2a10:	000098e5 	andeq	r9, r0, r5, ror #17
    2a14:	000098ff 	strdeq	r9, [r0], -pc	; <UNPREDICTABLE>
    2a18:	0000991d 	andeq	r9, r0, sp, lsl r9
    2a1c:	00009936 	andeq	r9, r0, r6, lsr r9
    2a20:	0000994d 	andeq	r9, r0, sp, asr #18
    2a24:	00009966 	andeq	r9, r0, r6, ror #18
    2a28:	0000997f 	andeq	r9, r0, pc, ror r9
    2a2c:	00009998 	muleq	r0, r8, r9
    2a30:	000099b1 			; <UNDEFINED> instruction: 0x000099b1
    2a34:	000099ca 	andeq	r9, r0, sl, asr #19
    2a38:	000099d4 	ldrdeq	r9, [r0], -r4
    2a3c:	000099de 	ldrdeq	r9, [r0], -lr
    2a40:	00010420 	andeq	r0, r1, r0, lsr #8
    2a44:	00000088 	andeq	r0, r0, r8, lsl #1
    2a48:	0000990b 	andeq	r9, r0, fp, lsl #18
    2a4c:	0000945d 	andeq	r9, r0, sp, asr r4
    2a50:	00009905 	andeq	r9, r0, r5, lsl #18
    2a54:	00009900 	andeq	r9, r0, r0, lsl #18
    2a58:	000094c9 	andeq	r9, r0, r9, asr #9
    2a5c:	000098f2 	strdeq	r9, [r0], -r2
    2a60:	000094f3 	strdeq	r9, [r0], -r3
    2a64:	000094c5 	andeq	r9, r0, r5, asr #9
    2a68:	000094e7 	andeq	r9, r0, r7, ror #9
    2a6c:	000094f7 	strdeq	r9, [r0], -r7
    2a70:	00009505 	andeq	r9, r0, r5, lsl #10
    2a74:	e59f105c 	ldr	r1, [pc, #92]	; 0x2ad8
    2a78:	e59f205c 	ldr	r2, [pc, #92]	; 0x2adc
    2a7c:	e591c1e4 	ldr	ip, [r1, #484]	; 0x1e4
    2a80:	e59f3058 	ldr	r3, [pc, #88]	; 0x2ae0
    2a84:	e59201e4 	ldr	r0, [r2, #484]	; 0x1e4
    2a88:	e18c0000 	orr	r0, ip, r0
    2a8c:	e593c1e4 	ldr	ip, [r3, #484]	; 0x1e4
    2a90:	e3800c01 	orr	r0, r0, #256	; 0x100
    2a94:	e180000c 	orr	r0, r0, ip
    2a98:	e58101e4 	str	r0, [r1, #484]	; 0x1e4
    2a9c:	e591c1e4 	ldr	ip, [r1, #484]	; 0x1e4
    2aa0:	e59201e4 	ldr	r0, [r2, #484]	; 0x1e4
    2aa4:	e18c0000 	orr	r0, ip, r0
    2aa8:	e593c1e4 	ldr	ip, [r3, #484]	; 0x1e4
    2aac:	e3800c01 	orr	r0, r0, #256	; 0x100
    2ab0:	e180000c 	orr	r0, r0, ip
    2ab4:	e58201e4 	str	r0, [r2, #484]	; 0x1e4
    2ab8:	e59111e4 	ldr	r1, [r1, #484]	; 0x1e4
    2abc:	e59221e4 	ldr	r2, [r2, #484]	; 0x1e4
    2ac0:	e1812002 	orr	r2, r1, r2
    2ac4:	e59311e4 	ldr	r1, [r3, #484]	; 0x1e4
    2ac8:	e3822c01 	orr	r2, r2, #256	; 0x100
    2acc:	e1822001 	orr	r2, r2, r1
    2ad0:	e58321e4 	str	r2, [r3, #484]	; 0x1e4
    2ad4:	e12fff1e 	bx	lr
    2ad8:	10207000 	eorne	r7, r0, r0
    2adc:	10208000 	eorne	r8, r0, r0
    2ae0:	10206000 	eorne	r6, r0, r0
    2ae4:	e59f105c 	ldr	r1, [pc, #92]	; 0x2b48
    2ae8:	e59f205c 	ldr	r2, [pc, #92]	; 0x2b4c
    2aec:	e59101e4 	ldr	r0, [r1, #484]	; 0x1e4
    2af0:	e59f3058 	ldr	r3, [pc, #88]	; 0x2b50
    2af4:	e592c1e4 	ldr	ip, [r2, #484]	; 0x1e4
    2af8:	e18c0000 	orr	r0, ip, r0
    2afc:	e593c1e4 	ldr	ip, [r3, #484]	; 0x1e4
    2b00:	e180000c 	orr	r0, r0, ip
    2b04:	e3c00c01 	bic	r0, r0, #256	; 0x100
    2b08:	e58101e4 	str	r0, [r1, #484]	; 0x1e4
    2b0c:	e59101e4 	ldr	r0, [r1, #484]	; 0x1e4
    2b10:	e592c1e4 	ldr	ip, [r2, #484]	; 0x1e4
    2b14:	e18c0000 	orr	r0, ip, r0
    2b18:	e593c1e4 	ldr	ip, [r3, #484]	; 0x1e4
    2b1c:	e180000c 	orr	r0, r0, ip
    2b20:	e3c00c01 	bic	r0, r0, #256	; 0x100
    2b24:	e58201e4 	str	r0, [r2, #484]	; 0x1e4
    2b28:	e59111e4 	ldr	r1, [r1, #484]	; 0x1e4
    2b2c:	e59221e4 	ldr	r2, [r2, #484]	; 0x1e4
    2b30:	e1822001 	orr	r2, r2, r1
    2b34:	e59311e4 	ldr	r1, [r3, #484]	; 0x1e4
    2b38:	e1822001 	orr	r2, r2, r1
    2b3c:	e3c22c01 	bic	r2, r2, #256	; 0x100
    2b40:	e58321e4 	str	r2, [r3, #484]	; 0x1e4
    2b44:	e12fff1e 	bx	lr
    2b48:	10207000 	eorne	r7, r0, r0
    2b4c:	10208000 	eorne	r8, r0, r0
    2b50:	10206000 	eorne	r6, r0, r0
    2b54:	e59f10b0 	ldr	r1, [pc, #176]	; 0x2c0c
    2b58:	e59f20b0 	ldr	r2, [pc, #176]	; 0x2c10
    2b5c:	e591c1e4 	ldr	ip, [r1, #484]	; 0x1e4
    2b60:	e59f30ac 	ldr	r3, [pc, #172]	; 0x2c14
    2b64:	e59201e4 	ldr	r0, [r2, #484]	; 0x1e4
    2b68:	e18c0000 	orr	r0, ip, r0
    2b6c:	e593c1e4 	ldr	ip, [r3, #484]	; 0x1e4
    2b70:	e3800c02 	orr	r0, r0, #512	; 0x200
    2b74:	e180000c 	orr	r0, r0, ip
    2b78:	e58101e4 	str	r0, [r1, #484]	; 0x1e4
    2b7c:	e591c1e4 	ldr	ip, [r1, #484]	; 0x1e4
    2b80:	e59201e4 	ldr	r0, [r2, #484]	; 0x1e4
    2b84:	e18c0000 	orr	r0, ip, r0
    2b88:	e593c1e4 	ldr	ip, [r3, #484]	; 0x1e4
    2b8c:	e3800c02 	orr	r0, r0, #512	; 0x200
    2b90:	e180000c 	orr	r0, r0, ip
    2b94:	e58201e4 	str	r0, [r2, #484]	; 0x1e4
    2b98:	e591c1e4 	ldr	ip, [r1, #484]	; 0x1e4
    2b9c:	e59201e4 	ldr	r0, [r2, #484]	; 0x1e4
    2ba0:	e18c0000 	orr	r0, ip, r0
    2ba4:	e593c1e4 	ldr	ip, [r3, #484]	; 0x1e4
    2ba8:	e3800c02 	orr	r0, r0, #512	; 0x200
    2bac:	e180000c 	orr	r0, r0, ip
    2bb0:	e58301e4 	str	r0, [r3, #484]	; 0x1e4
    2bb4:	e59101e4 	ldr	r0, [r1, #484]	; 0x1e4
    2bb8:	e592c1e4 	ldr	ip, [r2, #484]	; 0x1e4
    2bbc:	e18c0000 	orr	r0, ip, r0
    2bc0:	e593c1e4 	ldr	ip, [r3, #484]	; 0x1e4
    2bc4:	e180000c 	orr	r0, r0, ip
    2bc8:	e3c00c02 	bic	r0, r0, #512	; 0x200
    2bcc:	e58101e4 	str	r0, [r1, #484]	; 0x1e4
    2bd0:	e59101e4 	ldr	r0, [r1, #484]	; 0x1e4
    2bd4:	e592c1e4 	ldr	ip, [r2, #484]	; 0x1e4
    2bd8:	e18c0000 	orr	r0, ip, r0
    2bdc:	e593c1e4 	ldr	ip, [r3, #484]	; 0x1e4
    2be0:	e180000c 	orr	r0, r0, ip
    2be4:	e3c00c02 	bic	r0, r0, #512	; 0x200
    2be8:	e58201e4 	str	r0, [r2, #484]	; 0x1e4
    2bec:	e59111e4 	ldr	r1, [r1, #484]	; 0x1e4
    2bf0:	e59221e4 	ldr	r2, [r2, #484]	; 0x1e4
    2bf4:	e1822001 	orr	r2, r2, r1
    2bf8:	e59311e4 	ldr	r1, [r3, #484]	; 0x1e4
    2bfc:	e1822001 	orr	r2, r2, r1
    2c00:	e3c22c02 	bic	r2, r2, #512	; 0x200
    2c04:	e58321e4 	str	r2, [r3, #484]	; 0x1e4
    2c08:	e12fff1e 	bx	lr
    2c0c:	10207000 	eorne	r7, r0, r0
    2c10:	10208000 	eorne	r8, r0, r0
    2c14:	10206000 	eorne	r6, r0, r0
    2c18:	e59f1110 	ldr	r1, [pc, #272]	; 0x2d30
    2c1c:	e59f2110 	ldr	r2, [pc, #272]	; 0x2d34
    2c20:	e5913044 	ldr	r3, [r1, #68]	; 0x44
    2c24:	e92d40f0 	push	{r4, r5, r6, r7, lr}
    2c28:	e5920044 	ldr	r0, [r2, #68]	; 0x44
    2c2c:	e1a05001 	mov	r5, r1
    2c30:	e1800003 	orr	r0, r0, r3
    2c34:	e1a04002 	mov	r4, r2
    2c38:	e59f30f8 	ldr	r3, [pc, #248]	; 0x2d38
    2c3c:	e5936044 	ldr	r6, [r3, #68]	; 0x44
    2c40:	e1a0c003 	mov	ip, r3
    2c44:	e1800006 	orr	r0, r0, r6
    2c48:	e3c00010 	bic	r0, r0, #16
    2c4c:	e5810044 	str	r0, [r1, #68]	; 0x44
    2c50:	e3a00000 	mov	r0, #0
    2c54:	e5916044 	ldr	r6, [r1, #68]	; 0x44
    2c58:	e5927044 	ldr	r7, [r2, #68]	; 0x44
    2c5c:	e1876006 	orr	r6, r7, r6
    2c60:	e5937044 	ldr	r7, [r3, #68]	; 0x44
    2c64:	e1866007 	orr	r6, r6, r7
    2c68:	e3c66010 	bic	r6, r6, #16
    2c6c:	e5826044 	str	r6, [r2, #68]	; 0x44
    2c70:	e5916044 	ldr	r6, [r1, #68]	; 0x44
    2c74:	e5927044 	ldr	r7, [r2, #68]	; 0x44
    2c78:	e1876006 	orr	r6, r7, r6
    2c7c:	e5937044 	ldr	r7, [r3, #68]	; 0x44
    2c80:	e1866007 	orr	r6, r6, r7
    2c84:	e3c66010 	bic	r6, r6, #16
    2c88:	e5836044 	str	r6, [r3, #68]	; 0x44
    2c8c:	e5916044 	ldr	r6, [r1, #68]	; 0x44
    2c90:	e5927044 	ldr	r7, [r2, #68]	; 0x44
    2c94:	e1876006 	orr	r6, r7, r6
    2c98:	e5937044 	ldr	r7, [r3, #68]	; 0x44
    2c9c:	e1866007 	orr	r6, r6, r7
    2ca0:	e3866e71 	orr	r6, r6, #1808	; 0x710
    2ca4:	e5816044 	str	r6, [r1, #68]	; 0x44
    2ca8:	e5916044 	ldr	r6, [r1, #68]	; 0x44
    2cac:	e5927044 	ldr	r7, [r2, #68]	; 0x44
    2cb0:	e1876006 	orr	r6, r7, r6
    2cb4:	e5937044 	ldr	r7, [r3, #68]	; 0x44
    2cb8:	e1866007 	orr	r6, r6, r7
    2cbc:	e3866e71 	orr	r6, r6, #1808	; 0x710
    2cc0:	e5826044 	str	r6, [r2, #68]	; 0x44
    2cc4:	e5911044 	ldr	r1, [r1, #68]	; 0x44
    2cc8:	e5922044 	ldr	r2, [r2, #68]	; 0x44
    2ccc:	e1822001 	orr	r2, r2, r1
    2cd0:	e5931044 	ldr	r1, [r3, #68]	; 0x44
    2cd4:	e1822001 	orr	r2, r2, r1
    2cd8:	e3822e71 	orr	r2, r2, #1808	; 0x710
    2cdc:	e5832044 	str	r2, [r3, #68]	; 0x44
    2ce0:	e59533fc 	ldr	r3, [r5, #1020]	; 0x3fc
    2ce4:	e2800001 	add	r0, r0, #1
    2ce8:	e59423fc 	ldr	r2, [r4, #1020]	; 0x3fc
    2cec:	e1823003 	orr	r3, r2, r3
    2cf0:	e59c23fc 	ldr	r2, [ip, #1020]	; 0x3fc
    2cf4:	e1833002 	orr	r3, r3, r2
    2cf8:	e3130201 	tst	r3, #268435456	; 0x10000000
    2cfc:	13a00000 	movne	r0, #0
    2d00:	1a000002 	bne	0x2d10
    2d04:	e3500fe1 	cmp	r0, #900	; 0x384
    2d08:	1afffff4 	bne	0x2ce0
    2d0c:	e3e00000 	mvn	r0, #0
    2d10:	e3a03319 	mov	r3, #1677721600	; 0x64000000
    2d14:	e59f2020 	ldr	r2, [pc, #32]	; 0x2d3c
    2d18:	e58231e0 	str	r3, [r2, #480]	; 0x1e0
    2d1c:	e2822a01 	add	r2, r2, #4096	; 0x1000
    2d20:	e58231e0 	str	r3, [r2, #480]	; 0x1e0
    2d24:	e2422a02 	sub	r2, r2, #8192	; 0x2000
    2d28:	e58231e0 	str	r3, [r2, #480]	; 0x1e0
    2d2c:	e8bd80f0 	pop	{r4, r5, r6, r7, pc}
    2d30:	10207000 	eorne	r7, r0, r0
    2d34:	10208000 	eorne	r8, r0, r0
    2d38:	10206000 	eorne	r6, r0, r0
    2d3c:	d020b000 	eorle	fp, r0, r0
    2d40:	e350007f 	cmp	r0, #127	; 0x7f
    2d44:	83e00000 	mvnhi	r0, #0
    2d48:	93a00000 	movls	r0, #0
    2d4c:	e12fff1e 	bx	lr
    2d50:	e92d4ff8 	push	{r3, r4, r5, r6, r7, r8, r9, sl, fp, lr}
    2d54:	e3a00010 	mov	r0, #16
    2d58:	ebfffff8 	bl	0x2d40
    2d5c:	e3700001 	cmn	r0, #1
    2d60:	0a0000d4 	beq	0x30b8
    2d64:	e59f1430 	ldr	r1, [pc, #1072]	; 0x319c
    2d68:	e59f2430 	ldr	r2, [pc, #1072]	; 0x31a0
    2d6c:	e59141d8 	ldr	r4, [r1, #472]	; 0x1d8
    2d70:	e1a0e001 	mov	lr, r1
    2d74:	e59231d8 	ldr	r3, [r2, #472]	; 0x1d8
    2d78:	e1a0c002 	mov	ip, r2
    2d7c:	e1844003 	orr	r4, r4, r3
    2d80:	e59f341c 	ldr	r3, [pc, #1052]	; 0x31a4
    2d84:	e3844001 	orr	r4, r4, #1
    2d88:	e59351d8 	ldr	r5, [r3, #472]	; 0x1d8
    2d8c:	e1a00003 	mov	r0, r3
    2d90:	e1844005 	orr	r4, r4, r5
    2d94:	e58141d8 	str	r4, [r1, #472]	; 0x1d8
    2d98:	e59151d8 	ldr	r5, [r1, #472]	; 0x1d8
    2d9c:	e59241d8 	ldr	r4, [r2, #472]	; 0x1d8
    2da0:	e1854004 	orr	r4, r5, r4
    2da4:	e59351d8 	ldr	r5, [r3, #472]	; 0x1d8
    2da8:	e3844001 	orr	r4, r4, #1
    2dac:	e1844005 	orr	r4, r4, r5
    2db0:	e58241d8 	str	r4, [r2, #472]	; 0x1d8
    2db4:	e59111d8 	ldr	r1, [r1, #472]	; 0x1d8
    2db8:	e59221d8 	ldr	r2, [r2, #472]	; 0x1d8
    2dbc:	e1812002 	orr	r2, r1, r2
    2dc0:	e59311d8 	ldr	r1, [r3, #472]	; 0x1d8
    2dc4:	e3822001 	orr	r2, r2, #1
    2dc8:	e1822001 	orr	r2, r2, r1
    2dcc:	e58321d8 	str	r2, [r3, #472]	; 0x1d8
    2dd0:	e59e32bc 	ldr	r3, [lr, #700]	; 0x2bc
    2dd4:	e59f13c0 	ldr	r1, [pc, #960]	; 0x319c
    2dd8:	e59c22bc 	ldr	r2, [ip, #700]	; 0x2bc
    2ddc:	e1822003 	orr	r2, r2, r3
    2de0:	e59032bc 	ldr	r3, [r0, #700]	; 0x2bc
    2de4:	e1922003 	orrs	r2, r2, r3
    2de8:	e59f23b0 	ldr	r2, [pc, #944]	; 0x31a0
    2dec:	e59f33b0 	ldr	r3, [pc, #944]	; 0x31a4
    2df0:	5afffff6 	bpl	0x2dd0
    2df4:	e59102bc 	ldr	r0, [r1, #700]	; 0x2bc
    2df8:	e592c2bc 	ldr	ip, [r2, #700]	; 0x2bc
    2dfc:	e18c0000 	orr	r0, ip, r0
    2e00:	e593c2bc 	ldr	ip, [r3, #700]	; 0x2bc
    2e04:	e180000c 	orr	r0, r0, ip
    2e08:	e6ff0070 	uxth	r0, r0
    2e0c:	e3500000 	cmp	r0, #0
    2e10:	159101d8 	ldrne	r0, [r1, #472]	; 0x1d8
    2e14:	13a07000 	movne	r7, #0
    2e18:	1a000048 	bne	0x2f40
    2e1c:	e59101d8 	ldr	r0, [r1, #472]	; 0x1d8
    2e20:	e1a06001 	mov	r6, r1
    2e24:	e592c1d8 	ldr	ip, [r2, #472]	; 0x1d8
    2e28:	e1a05002 	mov	r5, r2
    2e2c:	e18c0000 	orr	r0, ip, r0
    2e30:	e1a09001 	mov	r9, r1
    2e34:	e593c1d8 	ldr	ip, [r3, #472]	; 0x1d8
    2e38:	e1a0a002 	mov	sl, r2
    2e3c:	e180000c 	orr	r0, r0, ip
    2e40:	e1a04003 	mov	r4, r3
    2e44:	e3c00001 	bic	r0, r0, #1
    2e48:	e3a07011 	mov	r7, #17
    2e4c:	e58101d8 	str	r0, [r1, #472]	; 0x1d8
    2e50:	e1a08003 	mov	r8, r3
    2e54:	e59101d8 	ldr	r0, [r1, #472]	; 0x1d8
    2e58:	e592c1d8 	ldr	ip, [r2, #472]	; 0x1d8
    2e5c:	e18c0000 	orr	r0, ip, r0
    2e60:	e593c1d8 	ldr	ip, [r3, #472]	; 0x1d8
    2e64:	e180000c 	orr	r0, r0, ip
    2e68:	e3c00001 	bic	r0, r0, #1
    2e6c:	e58201d8 	str	r0, [r2, #472]	; 0x1d8
    2e70:	e59111d8 	ldr	r1, [r1, #472]	; 0x1d8
    2e74:	e59221d8 	ldr	r2, [r2, #472]	; 0x1d8
    2e78:	e1822001 	orr	r2, r2, r1
    2e7c:	e59311d8 	ldr	r1, [r3, #472]	; 0x1d8
    2e80:	e1822001 	orr	r2, r2, r1
    2e84:	e3c22001 	bic	r2, r2, #1
    2e88:	e58321d8 	str	r2, [r3, #472]	; 0x1d8
    2e8c:	e1a00007 	mov	r0, r7
    2e90:	ebffffaa 	bl	0x2d40
    2e94:	e3700001 	cmn	r0, #1
    2e98:	0a000086 	beq	0x30b8
    2e9c:	e59621d8 	ldr	r2, [r6, #472]	; 0x1d8
    2ea0:	e59531d8 	ldr	r3, [r5, #472]	; 0x1d8
    2ea4:	e1823003 	orr	r3, r2, r3
    2ea8:	e59421d8 	ldr	r2, [r4, #472]	; 0x1d8
    2eac:	e3833001 	orr	r3, r3, #1
    2eb0:	e1833002 	orr	r3, r3, r2
    2eb4:	e58631d8 	str	r3, [r6, #472]	; 0x1d8
    2eb8:	e59621d8 	ldr	r2, [r6, #472]	; 0x1d8
    2ebc:	e59531d8 	ldr	r3, [r5, #472]	; 0x1d8
    2ec0:	e1823003 	orr	r3, r2, r3
    2ec4:	e59421d8 	ldr	r2, [r4, #472]	; 0x1d8
    2ec8:	e3833001 	orr	r3, r3, #1
    2ecc:	e1833002 	orr	r3, r3, r2
    2ed0:	e58531d8 	str	r3, [r5, #472]	; 0x1d8
    2ed4:	e59621d8 	ldr	r2, [r6, #472]	; 0x1d8
    2ed8:	e59531d8 	ldr	r3, [r5, #472]	; 0x1d8
    2edc:	e1823003 	orr	r3, r2, r3
    2ee0:	e59421d8 	ldr	r2, [r4, #472]	; 0x1d8
    2ee4:	e3833001 	orr	r3, r3, #1
    2ee8:	e1833002 	orr	r3, r3, r2
    2eec:	e58431d8 	str	r3, [r4, #472]	; 0x1d8
    2ef0:	e59632bc 	ldr	r3, [r6, #700]	; 0x2bc
    2ef4:	e59f12a0 	ldr	r1, [pc, #672]	; 0x319c
    2ef8:	e59522bc 	ldr	r2, [r5, #700]	; 0x2bc
    2efc:	e1822003 	orr	r2, r2, r3
    2f00:	e59432bc 	ldr	r3, [r4, #700]	; 0x2bc
    2f04:	e1922003 	orrs	r2, r2, r3
    2f08:	e59f2290 	ldr	r2, [pc, #656]	; 0x31a0
    2f0c:	e59f3290 	ldr	r3, [pc, #656]	; 0x31a4
    2f10:	5afffff6 	bpl	0x2ef0
    2f14:	e59902bc 	ldr	r0, [r9, #700]	; 0x2bc
    2f18:	e59ac2bc 	ldr	ip, [sl, #700]	; 0x2bc
    2f1c:	e18c0000 	orr	r0, ip, r0
    2f20:	e598c2bc 	ldr	ip, [r8, #700]	; 0x2bc
    2f24:	e180000c 	orr	r0, r0, ip
    2f28:	e6ff0070 	uxth	r0, r0
    2f2c:	e3500000 	cmp	r0, #0
    2f30:	0a00006b 	beq	0x30e4
    2f34:	ea000061 	b	0x30c0
    2f38:	e2477010 	sub	r7, r7, #16
    2f3c:	e59101d8 	ldr	r0, [r1, #472]	; 0x1d8
    2f40:	e592c1d8 	ldr	ip, [r2, #472]	; 0x1d8
    2f44:	e287b00f 	add	fp, r7, #15
    2f48:	e18c0000 	orr	r0, ip, r0
    2f4c:	e59fa248 	ldr	sl, [pc, #584]	; 0x319c
    2f50:	e593c1d8 	ldr	ip, [r3, #472]	; 0x1d8
    2f54:	e59f8244 	ldr	r8, [pc, #580]	; 0x31a0
    2f58:	e180000c 	orr	r0, r0, ip
    2f5c:	e59f7240 	ldr	r7, [pc, #576]	; 0x31a4
    2f60:	e3c00001 	bic	r0, r0, #1
    2f64:	e3a09000 	mov	r9, #0
    2f68:	e58101d8 	str	r0, [r1, #472]	; 0x1d8
    2f6c:	e1a0600a 	mov	r6, sl
    2f70:	e59101d8 	ldr	r0, [r1, #472]	; 0x1d8
    2f74:	e1a05008 	mov	r5, r8
    2f78:	e592c1d8 	ldr	ip, [r2, #472]	; 0x1d8
    2f7c:	e1a04007 	mov	r4, r7
    2f80:	e18c0000 	orr	r0, ip, r0
    2f84:	e593c1d8 	ldr	ip, [r3, #472]	; 0x1d8
    2f88:	e180000c 	orr	r0, r0, ip
    2f8c:	e3c00001 	bic	r0, r0, #1
    2f90:	e58201d8 	str	r0, [r2, #472]	; 0x1d8
    2f94:	e59111d8 	ldr	r1, [r1, #472]	; 0x1d8
    2f98:	e59221d8 	ldr	r2, [r2, #472]	; 0x1d8
    2f9c:	e1822001 	orr	r2, r2, r1
    2fa0:	e59311d8 	ldr	r1, [r3, #472]	; 0x1d8
    2fa4:	e1822001 	orr	r2, r2, r1
    2fa8:	e3c22001 	bic	r2, r2, #1
    2fac:	e58321d8 	str	r2, [r3, #472]	; 0x1d8
    2fb0:	ea000001 	b	0x2fbc
    2fb4:	e3a09001 	mov	r9, #1
    2fb8:	e24bb001 	sub	fp, fp, #1
    2fbc:	e1a0000b 	mov	r0, fp
    2fc0:	ebffff5e 	bl	0x2d40
    2fc4:	e3700001 	cmn	r0, #1
    2fc8:	0a00003a 	beq	0x30b8
    2fcc:	e59a21d8 	ldr	r2, [sl, #472]	; 0x1d8
    2fd0:	e59831d8 	ldr	r3, [r8, #472]	; 0x1d8
    2fd4:	e1823003 	orr	r3, r2, r3
    2fd8:	e59721d8 	ldr	r2, [r7, #472]	; 0x1d8
    2fdc:	e3833001 	orr	r3, r3, #1
    2fe0:	e1833002 	orr	r3, r3, r2
    2fe4:	e58a31d8 	str	r3, [sl, #472]	; 0x1d8
    2fe8:	e59a21d8 	ldr	r2, [sl, #472]	; 0x1d8
    2fec:	e59831d8 	ldr	r3, [r8, #472]	; 0x1d8
    2ff0:	e1823003 	orr	r3, r2, r3
    2ff4:	e59721d8 	ldr	r2, [r7, #472]	; 0x1d8
    2ff8:	e3833001 	orr	r3, r3, #1
    2ffc:	e1833002 	orr	r3, r3, r2
    3000:	e58831d8 	str	r3, [r8, #472]	; 0x1d8
    3004:	e59a21d8 	ldr	r2, [sl, #472]	; 0x1d8
    3008:	e59831d8 	ldr	r3, [r8, #472]	; 0x1d8
    300c:	e1823003 	orr	r3, r2, r3
    3010:	e59721d8 	ldr	r2, [r7, #472]	; 0x1d8
    3014:	e3833001 	orr	r3, r3, #1
    3018:	e1833002 	orr	r3, r3, r2
    301c:	e58731d8 	str	r3, [r7, #472]	; 0x1d8
    3020:	e59a32bc 	ldr	r3, [sl, #700]	; 0x2bc
    3024:	e59822bc 	ldr	r2, [r8, #700]	; 0x2bc
    3028:	e1822003 	orr	r2, r2, r3
    302c:	e59732bc 	ldr	r3, [r7, #700]	; 0x2bc
    3030:	e1922003 	orrs	r2, r2, r3
    3034:	5afffff9 	bpl	0x3020
    3038:	e59632bc 	ldr	r3, [r6, #700]	; 0x2bc
    303c:	e59502bc 	ldr	r0, [r5, #700]	; 0x2bc
    3040:	e1800003 	orr	r0, r0, r3
    3044:	e59432bc 	ldr	r3, [r4, #700]	; 0x2bc
    3048:	e1800003 	orr	r0, r0, r3
    304c:	e6ff0070 	uxth	r0, r0
    3050:	e3500000 	cmp	r0, #0
    3054:	1a000039 	bne	0x3140
    3058:	e59631d8 	ldr	r3, [r6, #472]	; 0x1d8
    305c:	e3590000 	cmp	r9, #0
    3060:	e59521d8 	ldr	r2, [r5, #472]	; 0x1d8
    3064:	e1823003 	orr	r3, r2, r3
    3068:	e59421d8 	ldr	r2, [r4, #472]	; 0x1d8
    306c:	e1833002 	orr	r3, r3, r2
    3070:	e3c33001 	bic	r3, r3, #1
    3074:	e58631d8 	str	r3, [r6, #472]	; 0x1d8
    3078:	e59631d8 	ldr	r3, [r6, #472]	; 0x1d8
    307c:	e59521d8 	ldr	r2, [r5, #472]	; 0x1d8
    3080:	e1823003 	orr	r3, r2, r3
    3084:	e59421d8 	ldr	r2, [r4, #472]	; 0x1d8
    3088:	e1833002 	orr	r3, r3, r2
    308c:	e3c33001 	bic	r3, r3, #1
    3090:	e58531d8 	str	r3, [r5, #472]	; 0x1d8
    3094:	e59631d8 	ldr	r3, [r6, #472]	; 0x1d8
    3098:	e59521d8 	ldr	r2, [r5, #472]	; 0x1d8
    309c:	e1823003 	orr	r3, r2, r3
    30a0:	e59421d8 	ldr	r2, [r4, #472]	; 0x1d8
    30a4:	e1833002 	orr	r3, r3, r2
    30a8:	e3c33001 	bic	r3, r3, #1
    30ac:	e58431d8 	str	r3, [r4, #472]	; 0x1d8
    30b0:	0affffbf 	beq	0x2fb4
    30b4:	e8bd8ff8 	pop	{r3, r4, r5, r6, r7, r8, r9, sl, fp, pc}
    30b8:	e3e00000 	mvn	r0, #0
    30bc:	e8bd8ff8 	pop	{r3, r4, r5, r6, r7, r8, r9, sl, fp, pc}
    30c0:	e599c2bc 	ldr	ip, [r9, #700]	; 0x2bc
    30c4:	e59f00dc 	ldr	r0, [pc, #220]	; 0x31a8
    30c8:	e59ae2bc 	ldr	lr, [sl, #700]	; 0x2bc
    30cc:	e18ec00c 	orr	ip, lr, ip
    30d0:	e598e2bc 	ldr	lr, [r8, #700]	; 0x2bc
    30d4:	e18cc00e 	orr	ip, ip, lr
    30d8:	e00c0000 	and	r0, ip, r0
    30dc:	e3500000 	cmp	r0, #0
    30e0:	1affff94 	bne	0x2f38
    30e4:	e59631d8 	ldr	r3, [r6, #472]	; 0x1d8
    30e8:	e2877001 	add	r7, r7, #1
    30ec:	e59521d8 	ldr	r2, [r5, #472]	; 0x1d8
    30f0:	e1823003 	orr	r3, r2, r3
    30f4:	e59421d8 	ldr	r2, [r4, #472]	; 0x1d8
    30f8:	e1833002 	orr	r3, r3, r2
    30fc:	e3c33001 	bic	r3, r3, #1
    3100:	e58631d8 	str	r3, [r6, #472]	; 0x1d8
    3104:	e59631d8 	ldr	r3, [r6, #472]	; 0x1d8
    3108:	e59521d8 	ldr	r2, [r5, #472]	; 0x1d8
    310c:	e1823003 	orr	r3, r2, r3
    3110:	e59421d8 	ldr	r2, [r4, #472]	; 0x1d8
    3114:	e1833002 	orr	r3, r3, r2
    3118:	e3c33001 	bic	r3, r3, #1
    311c:	e58531d8 	str	r3, [r5, #472]	; 0x1d8
    3120:	e59631d8 	ldr	r3, [r6, #472]	; 0x1d8
    3124:	e59521d8 	ldr	r2, [r5, #472]	; 0x1d8
    3128:	e1823003 	orr	r3, r2, r3
    312c:	e59421d8 	ldr	r2, [r4, #472]	; 0x1d8
    3130:	e1833002 	orr	r3, r3, r2
    3134:	e3c33001 	bic	r3, r3, #1
    3138:	e58431d8 	str	r3, [r4, #472]	; 0x1d8
    313c:	eaffff52 	b	0x2e8c
    3140:	e59631d8 	ldr	r3, [r6, #472]	; 0x1d8
    3144:	e3a09000 	mov	r9, #0
    3148:	e59521d8 	ldr	r2, [r5, #472]	; 0x1d8
    314c:	e1823003 	orr	r3, r2, r3
    3150:	e59421d8 	ldr	r2, [r4, #472]	; 0x1d8
    3154:	e1833002 	orr	r3, r3, r2
    3158:	e3c33001 	bic	r3, r3, #1
    315c:	e58631d8 	str	r3, [r6, #472]	; 0x1d8
    3160:	e59631d8 	ldr	r3, [r6, #472]	; 0x1d8
    3164:	e59521d8 	ldr	r2, [r5, #472]	; 0x1d8
    3168:	e1823003 	orr	r3, r2, r3
    316c:	e59421d8 	ldr	r2, [r4, #472]	; 0x1d8
    3170:	e1833002 	orr	r3, r3, r2
    3174:	e3c33001 	bic	r3, r3, #1
    3178:	e58531d8 	str	r3, [r5, #472]	; 0x1d8
    317c:	e59631d8 	ldr	r3, [r6, #472]	; 0x1d8
    3180:	e59521d8 	ldr	r2, [r5, #472]	; 0x1d8
    3184:	e1823003 	orr	r3, r2, r3
    3188:	e59421d8 	ldr	r2, [r4, #472]	; 0x1d8
    318c:	e1833002 	orr	r3, r3, r2
    3190:	e3c33001 	bic	r3, r3, #1
    3194:	e58431d8 	str	r3, [r4, #472]	; 0x1d8
    3198:	eaffff86 	b	0x2fb8
    319c:	10207000 	eorne	r7, r0, r0
    31a0:	10208000 	eorne	r8, r0, r0
    31a4:	10206000 	eorne	r6, r0, r0
    31a8:	7fff0000 	svcvc	0x00ff0000
    31ac:	e59f11f4 	ldr	r1, [pc, #500]	; 0x33a8
    31b0:	e59f21f4 	ldr	r2, [pc, #500]	; 0x33ac
    31b4:	e59131d8 	ldr	r3, [r1, #472]	; 0x1d8
    31b8:	e92d4070 	push	{r4, r5, r6, lr}
    31bc:	e1a0c002 	mov	ip, r2
    31c0:	e59251d8 	ldr	r5, [r2, #472]	; 0x1d8
    31c4:	e1a04001 	mov	r4, r1
    31c8:	e1855003 	orr	r5, r5, r3
    31cc:	e59f31dc 	ldr	r3, [pc, #476]	; 0x33b0
    31d0:	e59361d8 	ldr	r6, [r3, #472]	; 0x1d8
    31d4:	e1a00003 	mov	r0, r3
    31d8:	e1855006 	orr	r5, r5, r6
    31dc:	e6ff5075 	uxth	r5, r5
    31e0:	e385567d 	orr	r5, r5, #131072000	; 0x7d00000
    31e4:	e58151d8 	str	r5, [r1, #472]	; 0x1d8
    31e8:	e59151d8 	ldr	r5, [r1, #472]	; 0x1d8
    31ec:	e59261d8 	ldr	r6, [r2, #472]	; 0x1d8
    31f0:	e1865005 	orr	r5, r6, r5
    31f4:	e59361d8 	ldr	r6, [r3, #472]	; 0x1d8
    31f8:	e1855006 	orr	r5, r5, r6
    31fc:	e6ff5075 	uxth	r5, r5
    3200:	e385567d 	orr	r5, r5, #131072000	; 0x7d00000
    3204:	e58251d8 	str	r5, [r2, #472]	; 0x1d8
    3208:	e59151d8 	ldr	r5, [r1, #472]	; 0x1d8
    320c:	e59261d8 	ldr	r6, [r2, #472]	; 0x1d8
    3210:	e1865005 	orr	r5, r6, r5
    3214:	e59361d8 	ldr	r6, [r3, #472]	; 0x1d8
    3218:	e1855006 	orr	r5, r5, r6
    321c:	e6ff5075 	uxth	r5, r5
    3220:	e385567d 	orr	r5, r5, #131072000	; 0x7d00000
    3224:	e58351d8 	str	r5, [r3, #472]	; 0x1d8
    3228:	e59161d8 	ldr	r6, [r1, #472]	; 0x1d8
    322c:	e59251d8 	ldr	r5, [r2, #472]	; 0x1d8
    3230:	e1865005 	orr	r5, r6, r5
    3234:	e59361d8 	ldr	r6, [r3, #472]	; 0x1d8
    3238:	e3855001 	orr	r5, r5, #1
    323c:	e1855006 	orr	r5, r5, r6
    3240:	e58151d8 	str	r5, [r1, #472]	; 0x1d8
    3244:	e59161d8 	ldr	r6, [r1, #472]	; 0x1d8
    3248:	e59251d8 	ldr	r5, [r2, #472]	; 0x1d8
    324c:	e1865005 	orr	r5, r6, r5
    3250:	e59361d8 	ldr	r6, [r3, #472]	; 0x1d8
    3254:	e3855001 	orr	r5, r5, #1
    3258:	e1855006 	orr	r5, r5, r6
    325c:	e58251d8 	str	r5, [r2, #472]	; 0x1d8
    3260:	e59111d8 	ldr	r1, [r1, #472]	; 0x1d8
    3264:	e59221d8 	ldr	r2, [r2, #472]	; 0x1d8
    3268:	e1812002 	orr	r2, r1, r2
    326c:	e59311d8 	ldr	r1, [r3, #472]	; 0x1d8
    3270:	e3822001 	orr	r2, r2, #1
    3274:	e1822001 	orr	r2, r2, r1
    3278:	e58321d8 	str	r2, [r3, #472]	; 0x1d8
    327c:	e59432bc 	ldr	r3, [r4, #700]	; 0x2bc
    3280:	e59f1120 	ldr	r1, [pc, #288]	; 0x33a8
    3284:	e59c22bc 	ldr	r2, [ip, #700]	; 0x2bc
    3288:	e1822003 	orr	r2, r2, r3
    328c:	e59032bc 	ldr	r3, [r0, #700]	; 0x2bc
    3290:	e1922003 	orrs	r2, r2, r3
    3294:	e59f2110 	ldr	r2, [pc, #272]	; 0x33ac
    3298:	e59f3110 	ldr	r3, [pc, #272]	; 0x33b0
    329c:	5afffff6 	bpl	0x327c
    32a0:	e59102bc 	ldr	r0, [r1, #700]	; 0x2bc
    32a4:	e592c2bc 	ldr	ip, [r2, #700]	; 0x2bc
    32a8:	e18c0000 	orr	r0, ip, r0
    32ac:	e593c2bc 	ldr	ip, [r3, #700]	; 0x2bc
    32b0:	e180000c 	orr	r0, r0, ip
    32b4:	e6ff0070 	uxth	r0, r0
    32b8:	e3500000 	cmp	r0, #0
    32bc:	0591c1d8 	ldreq	ip, [r1, #472]	; 0x1d8
    32c0:	02800003 	addeq	r0, r0, #3
    32c4:	0a000022 	beq	0x3354
    32c8:	ea000016 	b	0x3328
    32cc:	e591c1d8 	ldr	ip, [r1, #472]	; 0x1d8
    32d0:	e3a00004 	mov	r0, #4
    32d4:	e59241d8 	ldr	r4, [r2, #472]	; 0x1d8
    32d8:	e184c00c 	orr	ip, r4, ip
    32dc:	e59341d8 	ldr	r4, [r3, #472]	; 0x1d8
    32e0:	e18cc004 	orr	ip, ip, r4
    32e4:	e3ccc001 	bic	ip, ip, #1
    32e8:	e581c1d8 	str	ip, [r1, #472]	; 0x1d8
    32ec:	e591c1d8 	ldr	ip, [r1, #472]	; 0x1d8
    32f0:	e59241d8 	ldr	r4, [r2, #472]	; 0x1d8
    32f4:	e184c00c 	orr	ip, r4, ip
    32f8:	e59341d8 	ldr	r4, [r3, #472]	; 0x1d8
    32fc:	e18cc004 	orr	ip, ip, r4
    3300:	e3ccc001 	bic	ip, ip, #1
    3304:	e582c1d8 	str	ip, [r2, #472]	; 0x1d8
    3308:	e59111d8 	ldr	r1, [r1, #472]	; 0x1d8
    330c:	e59221d8 	ldr	r2, [r2, #472]	; 0x1d8
    3310:	e1822001 	orr	r2, r2, r1
    3314:	e59311d8 	ldr	r1, [r3, #472]	; 0x1d8
    3318:	e1822001 	orr	r2, r2, r1
    331c:	e3c22001 	bic	r2, r2, #1
    3320:	e58321d8 	str	r2, [r3, #472]	; 0x1d8
    3324:	e8bd8070 	pop	{r4, r5, r6, pc}
    3328:	e591c2bc 	ldr	ip, [r1, #700]	; 0x2bc
    332c:	e59f0080 	ldr	r0, [pc, #128]	; 0x33b4
    3330:	e59242bc 	ldr	r4, [r2, #700]	; 0x2bc
    3334:	e184c00c 	orr	ip, r4, ip
    3338:	e59342bc 	ldr	r4, [r3, #700]	; 0x2bc
    333c:	e18cc004 	orr	ip, ip, r4
    3340:	e00c0000 	and	r0, ip, r0
    3344:	e3500000 	cmp	r0, #0
    3348:	0affffdf 	beq	0x32cc
    334c:	e591c1d8 	ldr	ip, [r1, #472]	; 0x1d8
    3350:	e3a00002 	mov	r0, #2
    3354:	e59241d8 	ldr	r4, [r2, #472]	; 0x1d8
    3358:	e184c00c 	orr	ip, r4, ip
    335c:	e59341d8 	ldr	r4, [r3, #472]	; 0x1d8
    3360:	e18cc004 	orr	ip, ip, r4
    3364:	e3ccc001 	bic	ip, ip, #1
    3368:	e581c1d8 	str	ip, [r1, #472]	; 0x1d8
    336c:	e591c1d8 	ldr	ip, [r1, #472]	; 0x1d8
    3370:	e59241d8 	ldr	r4, [r2, #472]	; 0x1d8
    3374:	e184c00c 	orr	ip, r4, ip
    3378:	e59341d8 	ldr	r4, [r3, #472]	; 0x1d8
    337c:	e18cc004 	orr	ip, ip, r4
    3380:	e3ccc001 	bic	ip, ip, #1
    3384:	e582c1d8 	str	ip, [r2, #472]	; 0x1d8
    3388:	e59111d8 	ldr	r1, [r1, #472]	; 0x1d8
    338c:	e59221d8 	ldr	r2, [r2, #472]	; 0x1d8
    3390:	e1822001 	orr	r2, r2, r1
    3394:	e59311d8 	ldr	r1, [r3, #472]	; 0x1d8
    3398:	e1822001 	orr	r2, r2, r1
    339c:	e3c22001 	bic	r2, r2, #1
    33a0:	e58321d8 	str	r2, [r3, #472]	; 0x1d8
    33a4:	e8bd8070 	pop	{r4, r5, r6, pc}
    33a8:	10207000 	eorne	r7, r0, r0
    33ac:	10208000 	eorne	r8, r0, r0
    33b0:	10206000 	eorne	r6, r0, r0
    33b4:	7fff0000 	svcvc	0x00ff0000
    33b8:	e92d40f0 	push	{r4, r5, r6, r7, lr}
    33bc:	e59f30cc 	ldr	r3, [pc, #204]	; 0x3490
    33c0:	e24dd014 	sub	sp, sp, #20
    33c4:	e59fc0c8 	ldr	ip, [pc, #200]	; 0x3494
    33c8:	e59f20c8 	ldr	r2, [pc, #200]	; 0x3498
    33cc:	e59f50c8 	ldr	r5, [pc, #200]	; 0x349c
    33d0:	e7906002 	ldr	r6, [r0, r2]
    33d4:	e59f40c4 	ldr	r4, [pc, #196]	; 0x34a0
    33d8:	e2807201 	add	r7, r0, #268435456	; 0x10000000
    33dc:	e2877982 	add	r7, r7, #2129920	; 0x208000
    33e0:	e5977000 	ldr	r7, [r7]
    33e4:	e1876006 	orr	r6, r7, r6
    33e8:	e7907003 	ldr	r7, [r0, r3]
    33ec:	e1866007 	orr	r6, r6, r7
    33f0:	e58d6008 	str	r6, [sp, #8]
    33f4:	e2816201 	add	r6, r1, #268435456	; 0x10000000
    33f8:	e7912002 	ldr	r2, [r1, r2]
    33fc:	e2866982 	add	r6, r6, #2129920	; 0x208000
    3400:	e5966000 	ldr	r6, [r6]
    3404:	e1866002 	orr	r6, r6, r2
    3408:	e7912003 	ldr	r2, [r1, r3]
    340c:	e1863002 	orr	r3, r6, r2
    3410:	e3a02000 	mov	r2, #0
    3414:	e58d300c 	str	r3, [sp, #12]
    3418:	e1a03002 	mov	r3, r2
    341c:	e7906005 	ldr	r6, [r0, r5]
    3420:	e7907004 	ldr	r7, [r0, r4]
    3424:	e1877006 	orr	r7, r7, r6
    3428:	e790600c 	ldr	r6, [r0, ip]
    342c:	e1870006 	orr	r0, r7, r6
    3430:	e58d0000 	str	r0, [sp]
    3434:	e7915005 	ldr	r5, [r1, r5]
    3438:	e7914004 	ldr	r4, [r1, r4]
    343c:	e791000c 	ldr	r0, [r1, ip]
    3440:	e1841005 	orr	r1, r4, r5
    3444:	e1a0c00d 	mov	ip, sp
    3448:	e1811000 	orr	r1, r1, r0
    344c:	e28d4008 	add	r4, sp, #8
    3450:	e58d1004 	str	r1, [sp, #4]
    3454:	e7d41003 	ldrb	r1, [r4, r3]
    3458:	e7dc0003 	ldrb	r0, [ip, r3]
    345c:	e1510000 	cmp	r1, r0
    3460:	83e00000 	mvnhi	r0, #0
    3464:	8a000007 	bhi	0x3488
    3468:	e0610000 	rsb	r0, r1, r0
    346c:	e2833001 	add	r3, r3, #1
    3470:	e08110a0 	add	r1, r1, r0, lsr #1
    3474:	e1520001 	cmp	r2, r1
    3478:	31a02001 	movcc	r2, r1
    347c:	e3530008 	cmp	r3, #8
    3480:	1afffff3 	bne	0x3454
    3484:	e1a00002 	mov	r0, r2
    3488:	e28dd014 	add	sp, sp, #20
    348c:	e8bd80f0 	pop	{r4, r5, r6, r7, pc}
    3490:	10206000 	eorne	r6, r0, r0
    3494:	10206020 	eorne	r6, r0, r0, lsr #32
    3498:	10207000 	eorne	r7, r0, r0
    349c:	10207020 	eorne	r7, r0, r0, lsr #32
    34a0:	10208020 	eorne	r8, r0, r0, lsr #32
    34a4:	e92d4ff7 	push	{r0, r1, r2, r4, r5, r6, r7, r8, r9, sl, fp, lr}
    34a8:	e59fc1e4 	ldr	ip, [pc, #484]	; 0x3694
    34ac:	e2834020 	add	r4, r3, #32
    34b0:	e790b00c 	ldr	fp, [r0, ip]
    34b4:	e2805201 	add	r5, r0, #268435456	; 0x10000000
    34b8:	e58d1004 	str	r1, [sp, #4]
    34bc:	e2855982 	add	r5, r5, #2129920	; 0x208000
    34c0:	e59f11d0 	ldr	r1, [pc, #464]	; 0x3698
    34c4:	e5959000 	ldr	r9, [r5]
    34c8:	e2846201 	add	r6, r4, #268435456	; 0x10000000
    34cc:	e790a001 	ldr	sl, [r0, r1]
    34d0:	e2866982 	add	r6, r6, #2129920	; 0x208000
    34d4:	e794000c 	ldr	r0, [r4, ip]
    34d8:	e2835201 	add	r5, r3, #268435456	; 0x10000000
    34dc:	e5968000 	ldr	r8, [r6]
    34e0:	e2855982 	add	r5, r5, #2129920	; 0x208000
    34e4:	e1888000 	orr	r8, r8, r0
    34e8:	e7940001 	ldr	r0, [r4, r1]
    34ec:	e1888000 	orr	r8, r8, r0
    34f0:	e793000c 	ldr	r0, [r3, ip]
    34f4:	e1a08c28 	lsr	r8, r8, #24
    34f8:	e5957000 	ldr	r7, [r5]
    34fc:	e1877000 	orr	r7, r7, r0
    3500:	e7930001 	ldr	r0, [r3, r1]
    3504:	e1877000 	orr	r7, r7, r0
    3508:	e1a07c27 	lsr	r7, r7, #24
    350c:	e1570008 	cmp	r7, r8
    3510:	8a00005d 	bhi	0x368c
    3514:	e0678008 	rsb	r8, r7, r8
    3518:	e189000b 	orr	r0, r9, fp
    351c:	e08770a8 	add	r7, r7, r8, lsr #1
    3520:	e180000a 	orr	r0, r0, sl
    3524:	e1520007 	cmp	r2, r7
    3528:	e1a08c20 	lsr	r8, r0, #24
    352c:	3a000003 	bcc	0x3540
    3530:	e0888002 	add	r8, r8, r2
    3534:	e0678008 	rsb	r8, r7, r8
    3538:	e358000f 	cmp	r8, #15
    353c:	23a0800f 	movcs	r8, #15
    3540:	e794700c 	ldr	r7, [r4, ip]
    3544:	e596a000 	ldr	sl, [r6]
    3548:	e18aa007 	orr	sl, sl, r7
    354c:	e7947001 	ldr	r7, [r4, r1]
    3550:	e18aa007 	orr	sl, sl, r7
    3554:	e793700c 	ldr	r7, [r3, ip]
    3558:	e7e7a85a 	ubfx	sl, sl, #16, #8
    355c:	e5959000 	ldr	r9, [r5]
    3560:	e1899007 	orr	r9, r9, r7
    3564:	e7937001 	ldr	r7, [r3, r1]
    3568:	e1897007 	orr	r7, r9, r7
    356c:	e7e77857 	ubfx	r7, r7, #16, #8
    3570:	e157000a 	cmp	r7, sl
    3574:	8a000044 	bhi	0x368c
    3578:	e067a00a 	rsb	sl, r7, sl
    357c:	e087a0aa 	add	sl, r7, sl, lsr #1
    3580:	e7e77850 	ubfx	r7, r0, #16, #8
    3584:	e152000a 	cmp	r2, sl
    3588:	3a000003 	bcc	0x359c
    358c:	e0877002 	add	r7, r7, r2
    3590:	e06a7007 	rsb	r7, sl, r7
    3594:	e357000f 	cmp	r7, #15
    3598:	23a0700f 	movcs	r7, #15
    359c:	e794a00c 	ldr	sl, [r4, ip]
    35a0:	e5969000 	ldr	r9, [r6]
    35a4:	e189a00a 	orr	sl, r9, sl
    35a8:	e7949001 	ldr	r9, [r4, r1]
    35ac:	e793b00c 	ldr	fp, [r3, ip]
    35b0:	e18aa009 	orr	sl, sl, r9
    35b4:	e5959000 	ldr	r9, [r5]
    35b8:	e7e7a45a 	ubfx	sl, sl, #8, #8
    35bc:	e189b00b 	orr	fp, r9, fp
    35c0:	e7939001 	ldr	r9, [r3, r1]
    35c4:	e18b9009 	orr	r9, fp, r9
    35c8:	e7e79459 	ubfx	r9, r9, #8, #8
    35cc:	e159000a 	cmp	r9, sl
    35d0:	8a00002d 	bhi	0x368c
    35d4:	e069a00a 	rsb	sl, r9, sl
    35d8:	e089a0aa 	add	sl, r9, sl, lsr #1
    35dc:	e7e79450 	ubfx	r9, r0, #8, #8
    35e0:	e152000a 	cmp	r2, sl
    35e4:	3a000003 	bcc	0x35f8
    35e8:	e0899002 	add	r9, r9, r2
    35ec:	e06a9009 	rsb	r9, sl, r9
    35f0:	e359000f 	cmp	r9, #15
    35f4:	23a0900f 	movcs	r9, #15
    35f8:	e794a00c 	ldr	sl, [r4, ip]
    35fc:	e5966000 	ldr	r6, [r6]
    3600:	e186a00a 	orr	sl, r6, sl
    3604:	e7946001 	ldr	r6, [r4, r1]
    3608:	e793c00c 	ldr	ip, [r3, ip]
    360c:	e18a6006 	orr	r6, sl, r6
    3610:	e5954000 	ldr	r4, [r5]
    3614:	e20660ff 	and	r6, r6, #255	; 0xff
    3618:	e7931001 	ldr	r1, [r3, r1]
    361c:	e184300c 	orr	r3, r4, ip
    3620:	e1833001 	orr	r3, r3, r1
    3624:	e20330ff 	and	r3, r3, #255	; 0xff
    3628:	e1530006 	cmp	r3, r6
    362c:	8a000016 	bhi	0x368c
    3630:	e0636006 	rsb	r6, r3, r6
    3634:	e20000ff 	and	r0, r0, #255	; 0xff
    3638:	e08330a6 	add	r3, r3, r6, lsr #1
    363c:	e1520003 	cmp	r2, r3
    3640:	3a000003 	bcc	0x3654
    3644:	e0800002 	add	r0, r0, r2
    3648:	e0630000 	rsb	r0, r3, r0
    364c:	e350000f 	cmp	r0, #15
    3650:	23a0000f 	movcs	r0, #15
    3654:	e59d2004 	ldr	r2, [sp, #4]
    3658:	e59f3034 	ldr	r3, [pc, #52]	; 0x3694
    365c:	e1a08c08 	lsl	r8, r8, #24
    3660:	e1887807 	orr	r7, r8, r7, lsl #16
    3664:	e1879409 	orr	r9, r7, r9, lsl #8
    3668:	e1899000 	orr	r9, r9, r0
    366c:	e3a00000 	mov	r0, #0
    3670:	e7829003 	str	r9, [r2, r3]
    3674:	e2823201 	add	r3, r2, #268435456	; 0x10000000
    3678:	e2833982 	add	r3, r3, #2129920	; 0x208000
    367c:	e5839000 	str	r9, [r3]
    3680:	e59f3010 	ldr	r3, [pc, #16]	; 0x3698
    3684:	e7829003 	str	r9, [r2, r3]
    3688:	ea000000 	b	0x3690
    368c:	e3e00000 	mvn	r0, #0
    3690:	e8bd8ffe 	pop	{r1, r2, r3, r4, r5, r6, r7, r8, r9, sl, fp, pc}
    3694:	10207000 	eorne	r7, r0, r0
    3698:	10206000 	eorne	r6, r0, r0
    369c:	e59f1164 	ldr	r1, [pc, #356]	; 0x3808
    36a0:	e59f2164 	ldr	r2, [pc, #356]	; 0x380c
    36a4:	e59f3164 	ldr	r3, [pc, #356]	; 0x3810
    36a8:	e92d40f0 	push	{r4, r5, r6, r7, lr}
    36ac:	e3a0c455 	mov	ip, #1426063360	; 0x55000000
    36b0:	e1a07001 	mov	r7, r1
    36b4:	e581c03c 	str	ip, [r1, #60]	; 0x3c
    36b8:	e1a06002 	mov	r6, r2
    36bc:	e582c03c 	str	ip, [r2, #60]	; 0x3c
    36c0:	e1a05003 	mov	r5, r3
    36c4:	e583c03c 	str	ip, [r3, #60]	; 0x3c
    36c8:	e591c040 	ldr	ip, [r1, #64]	; 0x40
    36cc:	e5924040 	ldr	r4, [r2, #64]	; 0x40
    36d0:	e184c00c 	orr	ip, r4, ip
    36d4:	e5934040 	ldr	r4, [r3, #64]	; 0x40
    36d8:	e18cc004 	orr	ip, ip, r4
    36dc:	e20cc4aa 	and	ip, ip, #-1442840576	; 0xaa000000
    36e0:	e18c0000 	orr	r0, ip, r0
    36e4:	e5810040 	str	r0, [r1, #64]	; 0x40
    36e8:	e5820040 	str	r0, [r2, #64]	; 0x40
    36ec:	e5830040 	str	r0, [r3, #64]	; 0x40
    36f0:	e5910008 	ldr	r0, [r1, #8]
    36f4:	e3800102 	orr	r0, r0, #-2147483648	; 0x80000000
    36f8:	e5810008 	str	r0, [r1, #8]
    36fc:	e5921008 	ldr	r1, [r2, #8]
    3700:	e3811102 	orr	r1, r1, #-2147483648	; 0x80000000
    3704:	e5821008 	str	r1, [r2, #8]
    3708:	e5932008 	ldr	r2, [r3, #8]
    370c:	e3822102 	orr	r2, r2, #-2147483648	; 0x80000000
    3710:	e5832008 	str	r2, [r3, #8]
    3714:	e59733fc 	ldr	r3, [r7, #1020]	; 0x3fc
    3718:	e59f10e8 	ldr	r1, [pc, #232]	; 0x3808
    371c:	e59623fc 	ldr	r2, [r6, #1020]	; 0x3fc
    3720:	e1823003 	orr	r3, r2, r3
    3724:	e59523fc 	ldr	r2, [r5, #1020]	; 0x3fc
    3728:	e1833002 	orr	r3, r3, r2
    372c:	e59f20d8 	ldr	r2, [pc, #216]	; 0x380c
    3730:	e3130b01 	tst	r3, #1024	; 0x400
    3734:	e59f30d4 	ldr	r3, [pc, #212]	; 0x3810
    3738:	0afffff5 	beq	0x3714
    373c:	e5915008 	ldr	r5, [r1, #8]
    3740:	e1a04001 	mov	r4, r1
    3744:	e3c55102 	bic	r5, r5, #-2147483648	; 0x80000000
    3748:	e1a0c002 	mov	ip, r2
    374c:	e5815008 	str	r5, [r1, #8]
    3750:	e1a00003 	mov	r0, r3
    3754:	e5925008 	ldr	r5, [r2, #8]
    3758:	e3c55102 	bic	r5, r5, #-2147483648	; 0x80000000
    375c:	e5825008 	str	r5, [r2, #8]
    3760:	e5935008 	ldr	r5, [r3, #8]
    3764:	e3c55102 	bic	r5, r5, #-2147483648	; 0x80000000
    3768:	e5835008 	str	r5, [r3, #8]
    376c:	e5915008 	ldr	r5, [r1, #8]
    3770:	e3855101 	orr	r5, r5, #1073741824	; 0x40000000
    3774:	e5815008 	str	r5, [r1, #8]
    3778:	e5921008 	ldr	r1, [r2, #8]
    377c:	e3811101 	orr	r1, r1, #1073741824	; 0x40000000
    3780:	e5821008 	str	r1, [r2, #8]
    3784:	e5932008 	ldr	r2, [r3, #8]
    3788:	e3822101 	orr	r2, r2, #1073741824	; 0x40000000
    378c:	e5832008 	str	r2, [r3, #8]
    3790:	e59433fc 	ldr	r3, [r4, #1020]	; 0x3fc
    3794:	e59f106c 	ldr	r1, [pc, #108]	; 0x3808
    3798:	e59c23fc 	ldr	r2, [ip, #1020]	; 0x3fc
    379c:	e1823003 	orr	r3, r2, r3
    37a0:	e59023fc 	ldr	r2, [r0, #1020]	; 0x3fc
    37a4:	e1833002 	orr	r3, r3, r2
    37a8:	e59f205c 	ldr	r2, [pc, #92]	; 0x380c
    37ac:	e3130b01 	tst	r3, #1024	; 0x400
    37b0:	e59f3058 	ldr	r3, [pc, #88]	; 0x3810
    37b4:	0afffff5 	beq	0x3790
    37b8:	e3a00000 	mov	r0, #0
    37bc:	e3a0ce19 	mov	ip, #400	; 0x190
    37c0:	e1a0000c 	mov	r0, ip
    37c4:	e2500001 	subs	r0, r0, #1
    37c8:	1afffffd 	bne	0x37c4
    37cc:	e5910370 	ldr	r0, [r1, #880]	; 0x370
    37d0:	e592c370 	ldr	ip, [r2, #880]	; 0x370
    37d4:	e18cc000 	orr	ip, ip, r0
    37d8:	e5930370 	ldr	r0, [r3, #880]	; 0x370
    37dc:	e18c0000 	orr	r0, ip, r0
    37e0:	e591c008 	ldr	ip, [r1, #8]
    37e4:	e3ccc101 	bic	ip, ip, #1073741824	; 0x40000000
    37e8:	e581c008 	str	ip, [r1, #8]
    37ec:	e5921008 	ldr	r1, [r2, #8]
    37f0:	e3c11101 	bic	r1, r1, #1073741824	; 0x40000000
    37f4:	e5821008 	str	r1, [r2, #8]
    37f8:	e5932008 	ldr	r2, [r3, #8]
    37fc:	e3c22101 	bic	r2, r2, #1073741824	; 0x40000000
    3800:	e5832008 	str	r2, [r3, #8]
    3804:	e8bd80f0 	pop	{r4, r5, r6, r7, pc}
    3808:	10207000 	eorne	r7, r0, r0
    380c:	10208000 	eorne	r8, r0, r0
    3810:	10206000 	eorne	r6, r0, r0
    3814:	e12fff1e 	bx	lr
    3818:	e92d4ff0 	push	{r4, r5, r6, r7, r8, r9, sl, fp, lr}
    381c:	e59f4254 	ldr	r4, [pc, #596]	; 0x3a78
    3820:	e24dd01c 	sub	sp, sp, #28
    3824:	e08f4004 	add	r4, pc, r4
    3828:	e1a00004 	mov	r0, r4
    382c:	e59f7248 	ldr	r7, [pc, #584]	; 0x3a7c
    3830:	eb0016a3 	bl	0x92c4
    3834:	e59f0244 	ldr	r0, [pc, #580]	; 0x3a80
    3838:	e08f0000 	add	r0, pc, r0
    383c:	e59f6240 	ldr	r6, [pc, #576]	; 0x3a84
    3840:	eb00169f 	bl	0x92c4
    3844:	e1a00004 	mov	r0, r4
    3848:	eb00169d 	bl	0x92c4
    384c:	e59f5234 	ldr	r5, [pc, #564]	; 0x3a88
    3850:	e597307c 	ldr	r3, [r7, #124]	; 0x7c
    3854:	e59f0230 	ldr	r0, [pc, #560]	; 0x3a8c
    3858:	e596907c 	ldr	r9, [r6, #124]	; 0x7c
    385c:	e08f0000 	add	r0, pc, r0
    3860:	e1899003 	orr	r9, r9, r3
    3864:	e595307c 	ldr	r3, [r5, #124]	; 0x7c
    3868:	e59720e4 	ldr	r2, [r7, #228]	; 0xe4
    386c:	e1899003 	orr	r9, r9, r3
    3870:	e59680e4 	ldr	r8, [r6, #228]	; 0xe4
    3874:	e7e23259 	ubfx	r3, r9, #4, #3
    3878:	e1888002 	orr	r8, r8, r2
    387c:	e59520e4 	ldr	r2, [r5, #228]	; 0xe4
    3880:	e1888002 	orr	r8, r8, r2
    3884:	e1a0b0a8 	lsr	fp, r8, #1
    3888:	e20bb008 	and	fp, fp, #8
    388c:	e18bb003 	orr	fp, fp, r3
    3890:	e1a0100b 	mov	r1, fp
    3894:	e3c8a010 	bic	sl, r8, #16
    3898:	eb001689 	bl	0x92c4
    389c:	e3c94070 	bic	r4, r9, #112	; 0x70
    38a0:	e59f31e8 	ldr	r3, [pc, #488]	; 0x3a90
    38a4:	e587407c 	str	r4, [r7, #124]	; 0x7c
    38a8:	e08f3003 	add	r3, pc, r3
    38ac:	e586407c 	str	r4, [r6, #124]	; 0x7c
    38b0:	e3a020ff 	mov	r2, #255	; 0xff
    38b4:	e585407c 	str	r4, [r5, #124]	; 0x7c
    38b8:	e388c010 	orr	ip, r8, #16
    38bc:	e587a0e4 	str	sl, [r7, #228]	; 0xe4
    38c0:	e58da014 	str	sl, [sp, #20]
    38c4:	e586a0e4 	str	sl, [r6, #228]	; 0xe4
    38c8:	e58d3010 	str	r3, [sp, #16]
    38cc:	e585a0e4 	str	sl, [r5, #228]	; 0xe4
    38d0:	e58d200c 	str	r2, [sp, #12]
    38d4:	e3a05000 	mov	r5, #0
    38d8:	e1a0a008 	mov	sl, r8
    38dc:	e1a07005 	mov	r7, r5
    38e0:	e1a06005 	mov	r6, r5
    38e4:	e1a0800c 	mov	r8, ip
    38e8:	e3560008 	cmp	r6, #8
    38ec:	1a000009 	bne	0x3918
    38f0:	e59f3184 	ldr	r3, [pc, #388]	; 0x3a7c
    38f4:	e59fc188 	ldr	ip, [pc, #392]	; 0x3a84
    38f8:	e58380e4 	str	r8, [r3, #228]	; 0xe4
    38fc:	e59f2184 	ldr	r2, [pc, #388]	; 0x3a88
    3900:	e58c80e4 	str	r8, [ip, #228]	; 0xe4
    3904:	e58280e4 	str	r8, [r2, #228]	; 0xe4
    3908:	e583407c 	str	r4, [r3, #124]	; 0x7c
    390c:	e58c407c 	str	r4, [ip, #124]	; 0x7c
    3910:	e582407c 	str	r4, [r2, #124]	; 0x7c
    3914:	ea000007 	b	0x3938
    3918:	e59fc15c 	ldr	ip, [pc, #348]	; 0x3a7c
    391c:	e2063007 	and	r3, r6, #7
    3920:	e59f215c 	ldr	r2, [pc, #348]	; 0x3a84
    3924:	e1843203 	orr	r3, r4, r3, lsl #4
    3928:	e58c307c 	str	r3, [ip, #124]	; 0x7c
    392c:	e582307c 	str	r3, [r2, #124]	; 0x7c
    3930:	e24cca01 	sub	ip, ip, #4096	; 0x1000
    3934:	e58c307c 	str	r3, [ip, #124]	; 0x7c
    3938:	e3a00c01 	mov	r0, #256	; 0x100
    393c:	ebffff56 	bl	0x369c
    3940:	e2502000 	subs	r2, r0, #0
    3944:	1a000007 	bne	0x3968
    3948:	e3570000 	cmp	r7, #0
    394c:	058d600c 	streq	r6, [sp, #12]
    3950:	0a000001 	beq	0x395c
    3954:	e3570001 	cmp	r7, #1
    3958:	1a000004 	bne	0x3970
    395c:	e2855001 	add	r5, r5, #1
    3960:	e3a07001 	mov	r7, #1
    3964:	ea000001 	b	0x3970
    3968:	e3570001 	cmp	r7, #1
    396c:	03a070ff 	moveq	r7, #255	; 0xff
    3970:	e1a01006 	mov	r1, r6
    3974:	e59d0010 	ldr	r0, [sp, #16]
    3978:	e1a03007 	mov	r3, r7
    397c:	e59dc00c 	ldr	ip, [sp, #12]
    3980:	e58d5004 	str	r5, [sp, #4]
    3984:	e58dc000 	str	ip, [sp]
    3988:	e2866001 	add	r6, r6, #1
    398c:	eb00164c 	bl	0x92c4
    3990:	e3560010 	cmp	r6, #16
    3994:	1affffd3 	bne	0x38e8
    3998:	e3550000 	cmp	r5, #0
    399c:	e1a0800a 	mov	r8, sl
    39a0:	159d200c 	ldrne	r2, [sp, #12]
    39a4:	e59da014 	ldr	sl, [sp, #20]
    39a8:	1282b001 	addne	fp, r2, #1
    39ac:	1a000002 	bne	0x39bc
    39b0:	e59f00dc 	ldr	r0, [pc, #220]	; 0x3a94
    39b4:	e08f0000 	add	r0, pc, r0
    39b8:	eb001641 	bl	0x92c4
    39bc:	e59d100c 	ldr	r1, [sp, #12]
    39c0:	e59f00d0 	ldr	r0, [pc, #208]	; 0x3a98
    39c4:	e1a02005 	mov	r2, r5
    39c8:	e08f0000 	add	r0, pc, r0
    39cc:	e1a0300b 	mov	r3, fp
    39d0:	eb00163b 	bl	0x92c4
    39d4:	e3550000 	cmp	r5, #0
    39d8:	1a00000c 	bne	0x3a10
    39dc:	e59f00b8 	ldr	r0, [pc, #184]	; 0x3a9c
    39e0:	e08f0000 	add	r0, pc, r0
    39e4:	eb001636 	bl	0x92c4
    39e8:	e59f108c 	ldr	r1, [pc, #140]	; 0x3a7c
    39ec:	e59f2090 	ldr	r2, [pc, #144]	; 0x3a84
    39f0:	e581907c 	str	r9, [r1, #124]	; 0x7c
    39f4:	e59f308c 	ldr	r3, [pc, #140]	; 0x3a88
    39f8:	e582907c 	str	r9, [r2, #124]	; 0x7c
    39fc:	e583907c 	str	r9, [r3, #124]	; 0x7c
    3a00:	e58180e4 	str	r8, [r1, #228]	; 0xe4
    3a04:	e58280e4 	str	r8, [r2, #228]	; 0xe4
    3a08:	e58380e4 	str	r8, [r3, #228]	; 0xe4
    3a0c:	ea000017 	b	0x3a70
    3a10:	e35b0007 	cmp	fp, #7
    3a14:	9a000007 	bls	0x3a38
    3a18:	e3888010 	orr	r8, r8, #16
    3a1c:	e59f3058 	ldr	r3, [pc, #88]	; 0x3a7c
    3a20:	e58380e4 	str	r8, [r3, #228]	; 0xe4
    3a24:	e2833a01 	add	r3, r3, #4096	; 0x1000
    3a28:	e58380e4 	str	r8, [r3, #228]	; 0xe4
    3a2c:	e2433a02 	sub	r3, r3, #8192	; 0x2000
    3a30:	e58380e4 	str	r8, [r3, #228]	; 0xe4
    3a34:	ea000005 	b	0x3a50
    3a38:	e59f303c 	ldr	r3, [pc, #60]	; 0x3a7c
    3a3c:	e583a0e4 	str	sl, [r3, #228]	; 0xe4
    3a40:	e2833a01 	add	r3, r3, #4096	; 0x1000
    3a44:	e583a0e4 	str	sl, [r3, #228]	; 0xe4
    3a48:	e2433a02 	sub	r3, r3, #8192	; 0x2000
    3a4c:	e583a0e4 	str	sl, [r3, #228]	; 0xe4
    3a50:	e59f3024 	ldr	r3, [pc, #36]	; 0x3a7c
    3a54:	e20bb007 	and	fp, fp, #7
    3a58:	e184420b 	orr	r4, r4, fp, lsl #4
    3a5c:	e583407c 	str	r4, [r3, #124]	; 0x7c
    3a60:	e2833a01 	add	r3, r3, #4096	; 0x1000
    3a64:	e583407c 	str	r4, [r3, #124]	; 0x7c
    3a68:	e2433a02 	sub	r3, r3, #8192	; 0x2000
    3a6c:	e583407c 	str	r4, [r3, #124]	; 0x7c
    3a70:	e28dd01c 	add	sp, sp, #28
    3a74:	e8bd8ff0 	pop	{r4, r5, r6, r7, r8, r9, sl, fp, pc}
    3a78:	00008ae0 	andeq	r8, r0, r0, ror #21
    3a7c:	10207000 	eorne	r7, r0, r0
    3a80:	000089dd 	ldrdeq	r8, [r0], -sp
    3a84:	10208000 	eorne	r8, r0, r0
    3a88:	10206000 	eorne	r6, r0, r0
    3a8c:	000089d2 	ldrdeq	r8, [r0], -r2
    3a90:	000089a3 	andeq	r8, r0, r3, lsr #19
    3a94:	000088cb 	andeq	r8, r0, fp, asr #17
    3a98:	000088cc 	andeq	r8, r0, ip, asr #17
    3a9c:	000088de 	ldrdeq	r8, [r0], -lr
    3aa0:	e92d4ff0 	push	{r4, r5, r6, r7, r8, r9, sl, fp, lr}
    3aa4:	e3a02000 	mov	r2, #0
    3aa8:	e24ddf67 	sub	sp, sp, #412	; 0x19c
    3aac:	e59f4788 	ldr	r4, [pc, #1928]	; 0x423c
    3ab0:	e28d3e15 	add	r3, sp, #336	; 0x150
    3ab4:	e08f4004 	add	r4, pc, r4
    3ab8:	e2830030 	add	r0, r3, #48	; 0x30
    3abc:	e2833008 	add	r3, r3, #8
    3ac0:	e3e01000 	mvn	r1, #0
    3ac4:	e5432008 	strb	r2, [r3, #-8]
    3ac8:	e5431007 	strb	r1, [r3, #-7]
    3acc:	e5432005 	strb	r2, [r3, #-5]
    3ad0:	e5431004 	strb	r1, [r3, #-4]
    3ad4:	e5431002 	strb	r1, [r3, #-2]
    3ad8:	e5431001 	strb	r1, [r3, #-1]
    3adc:	e5c32000 	strb	r2, [r3]
    3ae0:	e5c32001 	strb	r2, [r3, #1]
    3ae4:	e5432006 	strb	r2, [r3, #-6]
    3ae8:	e5432003 	strb	r2, [r3, #-3]
    3aec:	e283300a 	add	r3, r3, #10
    3af0:	e1530000 	cmp	r3, r0
    3af4:	1afffff2 	bne	0x3ac4
    3af8:	e3a01000 	mov	r1, #0
    3afc:	e28de010 	add	lr, sp, #16
    3b00:	e1a00001 	mov	r0, r1
    3b04:	e3e0c000 	mvn	ip, #0
    3b08:	e1a0300e 	mov	r3, lr
    3b0c:	e3a02000 	mov	r2, #0
    3b10:	e7e30001 	strb	r0, [r3, r1]!
    3b14:	e281100a 	add	r1, r1, #10
    3b18:	e5c30005 	strb	r0, [r3, #5]
    3b1c:	e5c3c001 	strb	ip, [r3, #1]
    3b20:	e5c3c004 	strb	ip, [r3, #4]
    3b24:	e5c30002 	strb	r0, [r3, #2]
    3b28:	e3510d05 	cmp	r1, #320	; 0x140
    3b2c:	e5c32003 	strb	r2, [r3, #3]
    3b30:	1afffff4 	bne	0x3b08
    3b34:	e59f3704 	ldr	r3, [pc, #1796]	; 0x4240
    3b38:	e1a01002 	mov	r1, r2
    3b3c:	e5832010 	str	r2, [r3, #16]
    3b40:	e2833a01 	add	r3, r3, #4096	; 0x1000
    3b44:	e5832010 	str	r2, [r3, #16]
    3b48:	e2433a02 	sub	r3, r3, #8192	; 0x2000
    3b4c:	e5832010 	str	r2, [r3, #16]
    3b50:	e2833c12 	add	r3, r3, #4608	; 0x1200
    3b54:	e59f26e8 	ldr	r2, [pc, #1768]	; 0x4244
    3b58:	e5831000 	str	r1, [r3]
    3b5c:	e2830a01 	add	r0, r3, #4096	; 0x1000
    3b60:	e5801000 	str	r1, [r0]
    3b64:	e2430a01 	sub	r0, r3, #4096	; 0x1000
    3b68:	e2833004 	add	r3, r3, #4
    3b6c:	e5801000 	str	r1, [r0]
    3b70:	e1530002 	cmp	r3, r2
    3b74:	1afffff7 	bne	0x3b58
    3b78:	e3a0500f 	mov	r5, #15
    3b7c:	e28d8e15 	add	r8, sp, #336	; 0x150
    3b80:	e28d7010 	add	r7, sp, #16
    3b84:	e3a0600a 	mov	r6, #10
    3b88:	e59fe6b0 	ldr	lr, [pc, #1712]	; 0x4240
    3b8c:	e59fc6b4 	ldr	ip, [pc, #1716]	; 0x4248
    3b90:	e59e3014 	ldr	r3, [lr, #20]
    3b94:	e59f16b0 	ldr	r1, [pc, #1712]	; 0x424c
    3b98:	e59c2014 	ldr	r2, [ip, #20]
    3b9c:	e30003ff 	movw	r0, #1023	; 0x3ff
    3ba0:	e1822003 	orr	r2, r2, r3
    3ba4:	e5913014 	ldr	r3, [r1, #20]
    3ba8:	e1822003 	orr	r2, r2, r3
    3bac:	e1a03405 	lsl	r3, r5, #8
    3bb0:	e1a02822 	lsr	r2, r2, #16
    3bb4:	e1833205 	orr	r3, r3, r5, lsl #4
    3bb8:	e1a02802 	lsl	r2, r2, #16
    3bbc:	e1833005 	orr	r3, r3, r5
    3bc0:	e1833605 	orr	r3, r3, r5, lsl #12
    3bc4:	e1833002 	orr	r3, r3, r2
    3bc8:	e58e3014 	str	r3, [lr, #20]
    3bcc:	e58c3014 	str	r3, [ip, #20]
    3bd0:	e5813014 	str	r3, [r1, #20]
    3bd4:	e3a0a0ff 	mov	sl, #255	; 0xff
    3bd8:	ebfffeaf 	bl	0x369c
    3bdc:	e3a03000 	mov	r3, #0
    3be0:	e1a02003 	mov	r2, r3
    3be4:	e0881003 	add	r1, r8, r3
    3be8:	e1d1c0d4 	ldrsb	ip, [r1, #4]
    3bec:	e37c0001 	cmn	ip, #1
    3bf0:	1a000002 	bne	0x3c00
    3bf4:	e1a0c182 	lsl	ip, r2, #3
    3bf8:	e010cc1a 	ands	ip, r0, sl, lsl ip
    3bfc:	05c15004 	strbeq	r5, [r1, #4]
    3c00:	e1a01182 	lsl	r1, r2, #3
    3c04:	e3a0c000 	mov	ip, #0
    3c08:	e0297196 	mla	r9, r6, r1, r7
    3c0c:	e089e00c 	add	lr, r9, ip
    3c10:	e28cc00a 	add	ip, ip, #10
    3c14:	e1deb0d4 	ldrsb	fp, [lr, #4]
    3c18:	e37b0001 	cmn	fp, #1
    3c1c:	1a000002 	bne	0x3c2c
    3c20:	e28bb002 	add	fp, fp, #2
    3c24:	e010b11b 	ands	fp, r0, fp, lsl r1
    3c28:	05ce5004 	strbeq	r5, [lr, #4]
    3c2c:	e2811001 	add	r1, r1, #1
    3c30:	e35c0050 	cmp	ip, #80	; 0x50
    3c34:	1afffff4 	bne	0x3c0c
    3c38:	e283300a 	add	r3, r3, #10
    3c3c:	e2822001 	add	r2, r2, #1
    3c40:	e3530028 	cmp	r3, #40	; 0x28
    3c44:	1affffe6 	bne	0x3be4
    3c48:	e2555001 	subs	r5, r5, #1
    3c4c:	2affffcd 	bcs	0x3b88
    3c50:	e59f25e8 	ldr	r2, [pc, #1512]	; 0x4240
    3c54:	e59f15ec 	ldr	r1, [pc, #1516]	; 0x4248
    3c58:	e5923014 	ldr	r3, [r2, #20]
    3c5c:	e2855010 	add	r5, r5, #16
    3c60:	e1a03823 	lsr	r3, r3, #16
    3c64:	e28d8e15 	add	r8, sp, #336	; 0x150
    3c68:	e1a03803 	lsl	r3, r3, #16
    3c6c:	e28d7010 	add	r7, sp, #16
    3c70:	e5823014 	str	r3, [r2, #20]
    3c74:	e3a0600a 	mov	r6, #10
    3c78:	e5913014 	ldr	r3, [r1, #20]
    3c7c:	e2422a01 	sub	r2, r2, #4096	; 0x1000
    3c80:	e1a03823 	lsr	r3, r3, #16
    3c84:	e1a03803 	lsl	r3, r3, #16
    3c88:	e5813014 	str	r3, [r1, #20]
    3c8c:	e5923014 	ldr	r3, [r2, #20]
    3c90:	e1a03823 	lsr	r3, r3, #16
    3c94:	e1a03803 	lsl	r3, r3, #16
    3c98:	e5823014 	str	r3, [r2, #20]
    3c9c:	e59f25a8 	ldr	r2, [pc, #1448]	; 0x424c
    3ca0:	e59fc598 	ldr	ip, [pc, #1432]	; 0x4240
    3ca4:	e59f159c 	ldr	r1, [pc, #1436]	; 0x4248
    3ca8:	e205e00f 	and	lr, r5, #15
    3cac:	e1a0ae05 	lsl	sl, r5, #28
    3cb0:	e1a03a0e 	lsl	r3, lr, #20
    3cb4:	e30003ff 	movw	r0, #1023	; 0x3ff
    3cb8:	e183380e 	orr	r3, r3, lr, lsl #16
    3cbc:	e1a09205 	lsl	r9, r5, #4
    3cc0:	e183300a 	orr	r3, r3, sl
    3cc4:	e20990ff 	and	r9, r9, #255	; 0xff
    3cc8:	e1833c0e 	orr	r3, r3, lr, lsl #24
    3ccc:	e189940e 	orr	r9, r9, lr, lsl #8
    3cd0:	e189e00e 	orr	lr, r9, lr
    3cd4:	e18ee82a 	orr	lr, lr, sl, lsr #16
    3cd8:	e58ce010 	str	lr, [ip, #16]
    3cdc:	e183300e 	orr	r3, r3, lr
    3ce0:	e581e010 	str	lr, [r1, #16]
    3ce4:	e582e010 	str	lr, [r2, #16]
    3ce8:	e58c3200 	str	r3, [ip, #512]	; 0x200
    3cec:	e5813200 	str	r3, [r1, #512]	; 0x200
    3cf0:	e5823200 	str	r3, [r2, #512]	; 0x200
    3cf4:	e58c3204 	str	r3, [ip, #516]	; 0x204
    3cf8:	e5813204 	str	r3, [r1, #516]	; 0x204
    3cfc:	e5823204 	str	r3, [r2, #516]	; 0x204
    3d00:	e58c3208 	str	r3, [ip, #520]	; 0x208
    3d04:	e5813208 	str	r3, [r1, #520]	; 0x208
    3d08:	e5823208 	str	r3, [r2, #520]	; 0x208
    3d0c:	e58c320c 	str	r3, [ip, #524]	; 0x20c
    3d10:	e581320c 	str	r3, [r1, #524]	; 0x20c
    3d14:	e582320c 	str	r3, [r2, #524]	; 0x20c
    3d18:	e3a0a0ff 	mov	sl, #255	; 0xff
    3d1c:	ebfffe5e 	bl	0x369c
    3d20:	e3a03000 	mov	r3, #0
    3d24:	e1a02003 	mov	r2, r3
    3d28:	e0881003 	add	r1, r8, r3
    3d2c:	e1d1c0d1 	ldrsb	ip, [r1, #1]
    3d30:	e37c0001 	cmn	ip, #1
    3d34:	1a000002 	bne	0x3d44
    3d38:	e1a0c182 	lsl	ip, r2, #3
    3d3c:	e010cc1a 	ands	ip, r0, sl, lsl ip
    3d40:	05c15001 	strbeq	r5, [r1, #1]
    3d44:	e1a01182 	lsl	r1, r2, #3
    3d48:	e3a0c000 	mov	ip, #0
    3d4c:	e0297196 	mla	r9, r6, r1, r7
    3d50:	e089e00c 	add	lr, r9, ip
    3d54:	e28cc00a 	add	ip, ip, #10
    3d58:	e1deb0d1 	ldrsb	fp, [lr, #1]
    3d5c:	e37b0001 	cmn	fp, #1
    3d60:	1a000002 	bne	0x3d70
    3d64:	e28bb002 	add	fp, fp, #2
    3d68:	e010b11b 	ands	fp, r0, fp, lsl r1
    3d6c:	05ce5001 	strbeq	r5, [lr, #1]
    3d70:	e2811001 	add	r1, r1, #1
    3d74:	e35c0050 	cmp	ip, #80	; 0x50
    3d78:	1afffff4 	bne	0x3d50
    3d7c:	e283300a 	add	r3, r3, #10
    3d80:	e2822001 	add	r2, r2, #1
    3d84:	e3530028 	cmp	r3, #40	; 0x28
    3d88:	1affffe6 	bne	0x3d28
    3d8c:	e2555001 	subs	r5, r5, #1
    3d90:	2affffc1 	bcs	0x3c9c
    3d94:	e28d3e15 	add	r3, sp, #336	; 0x150
    3d98:	e3a01000 	mov	r1, #0
    3d9c:	e1a0e003 	mov	lr, r3
    3da0:	e1a00001 	mov	r0, r1
    3da4:	e2833004 	add	r3, r3, #4
    3da8:	e3a0c00f 	mov	ip, #15
    3dac:	e08e2001 	add	r2, lr, r1
    3db0:	e7de7001 	ldrb	r7, [lr, r1]
    3db4:	e5d25003 	ldrb	r5, [r2, #3]
    3db8:	e5d26004 	ldrb	r6, [r2, #4]
    3dbc:	e2866001 	add	r6, r6, #1
    3dc0:	e0656006 	rsb	r6, r5, r6
    3dc4:	e5d25001 	ldrb	r5, [r2, #1]
    3dc8:	e5c26005 	strb	r6, [r2, #5]
    3dcc:	e2855001 	add	r5, r5, #1
    3dd0:	e6af6076 	sxtb	r6, r6
    3dd4:	e0675005 	rsb	r5, r7, r5
    3dd8:	e6ef5075 	uxtb	r5, r5
    3ddc:	e5c25002 	strb	r5, [r2, #2]
    3de0:	e6af5075 	sxtb	r5, r5
    3de4:	e1550006 	cmp	r5, r6
    3de8:	05c30004 	strbeq	r0, [r3, #4]
    3dec:	05c30005 	strbeq	r0, [r3, #5]
    3df0:	0a000015 	beq	0x3e4c
    3df4:	e1d250d5 	ldrsb	r5, [r2, #5]
    3df8:	e1d220d2 	ldrsb	r2, [r2, #2]
    3dfc:	da000009 	ble	0x3e28
    3e00:	e5d36004 	ldrb	r6, [r3, #4]
    3e04:	e0652002 	rsb	r2, r5, r2
    3e08:	e5c30005 	strb	r0, [r3, #5]
    3e0c:	e0822fa2 	add	r2, r2, r2, lsr #31
    3e10:	e08620c2 	add	r2, r6, r2, asr #1
    3e14:	e6ef2072 	uxtb	r2, r2
    3e18:	e352000f 	cmp	r2, #15
    3e1c:	e5c32004 	strb	r2, [r3, #4]
    3e20:	85c3c004 	strbhi	ip, [r3, #4]
    3e24:	ea000008 	b	0x3e4c
    3e28:	e0622005 	rsb	r2, r2, r5
    3e2c:	e5c30004 	strb	r0, [r3, #4]
    3e30:	e5d35005 	ldrb	r5, [r3, #5]
    3e34:	e0822fa2 	add	r2, r2, r2, lsr #31
    3e38:	e08520c2 	add	r2, r5, r2, asr #1
    3e3c:	e6ef2072 	uxtb	r2, r2
    3e40:	e352000f 	cmp	r2, #15
    3e44:	e5c32005 	strb	r2, [r3, #5]
    3e48:	85c3c005 	strbhi	ip, [r3, #5]
    3e4c:	e281100a 	add	r1, r1, #10
    3e50:	e283300a 	add	r3, r3, #10
    3e54:	e3510028 	cmp	r1, #40	; 0x28
    3e58:	1affffd3 	bne	0x3dac
    3e5c:	e59f03ec 	ldr	r0, [pc, #1004]	; 0x4250
    3e60:	e08f0000 	add	r0, pc, r0
    3e64:	eb001516 	bl	0x92c4
    3e68:	e28db010 	add	fp, sp, #16
    3e6c:	e3a03000 	mov	r3, #0
    3e70:	e59fc3dc 	ldr	ip, [pc, #988]	; 0x4254
    3e74:	e59f13dc 	ldr	r1, [pc, #988]	; 0x4258
    3e78:	e08fc00c 	add	ip, pc, ip
    3e7c:	e1a06003 	mov	r6, r3
    3e80:	e58d3178 	str	r3, [sp, #376]	; 0x178
    3e84:	e58d3188 	str	r3, [sp, #392]	; 0x188
    3e88:	e58d317c 	str	r3, [sp, #380]	; 0x17c
    3e8c:	e58d318c 	str	r3, [sp, #396]	; 0x18c
    3e90:	e58d3180 	str	r3, [sp, #384]	; 0x180
    3e94:	e58d3190 	str	r3, [sp, #400]	; 0x190
    3e98:	e58d3184 	str	r3, [sp, #388]	; 0x184
    3e9c:	e58d3194 	str	r3, [sp, #404]	; 0x194
    3ea0:	e1a08003 	mov	r8, r3
    3ea4:	e1a07003 	mov	r7, r3
    3ea8:	e58d100c 	str	r1, [sp, #12]
    3eac:	e1a0900c 	mov	r9, ip
    3eb0:	e08b5006 	add	r5, fp, r6
    3eb4:	e7db3006 	ldrb	r3, [fp, r6]
    3eb8:	e5d52001 	ldrb	r2, [r5, #1]
    3ebc:	e5d5c004 	ldrb	ip, [r5, #4]
    3ec0:	e2822001 	add	r2, r2, #1
    3ec4:	e28cc001 	add	ip, ip, #1
    3ec8:	e0632002 	rsb	r2, r3, r2
    3ecc:	e1a00009 	mov	r0, r9
    3ed0:	e5d53003 	ldrb	r3, [r5, #3]
    3ed4:	e6afa072 	sxtb	sl, r2
    3ed8:	e063c00c 	rsb	ip, r3, ip
    3edc:	e5c52002 	strb	r2, [r5, #2]
    3ee0:	e6efc07c 	uxtb	ip, ip
    3ee4:	e24a1001 	sub	r1, sl, #1
    3ee8:	e6af307c 	sxtb	r3, ip
    3eec:	e5c5c005 	strb	ip, [r5, #5]
    3ef0:	e0811003 	add	r1, r1, r3
    3ef4:	e58d3008 	str	r3, [sp, #8]
    3ef8:	eb0014f1 	bl	0x92c4
    3efc:	e59d3008 	ldr	r3, [sp, #8]
    3f00:	e153000a 	cmp	r3, sl
    3f04:	da00000d 	ble	0x3f40
    3f08:	e1d520d5 	ldrsb	r2, [r5, #5]
    3f0c:	e5c57006 	strb	r7, [r5, #6]
    3f10:	e1d530d2 	ldrsb	r3, [r5, #2]
    3f14:	e28d1f66 	add	r1, sp, #408	; 0x198
    3f18:	e0633002 	rsb	r3, r3, r2
    3f1c:	e1a021a8 	lsr	r2, r8, #3
    3f20:	e0833fa3 	add	r3, r3, r3, lsr #31
    3f24:	e0812102 	add	r2, r1, r2, lsl #2
    3f28:	e7e730d3 	ubfx	r3, r3, #1, #8
    3f2c:	e5c53007 	strb	r3, [r5, #7]
    3f30:	e5121010 	ldr	r1, [r2, #-16]
    3f34:	e1530001 	cmp	r3, r1
    3f38:	85023010 	strhi	r3, [r2, #-16]
    3f3c:	ea000008 	b	0x3f64
    3f40:	e15a0003 	cmp	sl, r3
    3f44:	e5c57007 	strb	r7, [r5, #7]
    3f48:	c1d530d5 	ldrsbgt	r3, [r5, #5]
    3f4c:	c1d520d2 	ldrsbgt	r2, [r5, #2]
    3f50:	d5c57006 	strble	r7, [r5, #6]
    3f54:	c0633002 	rsbgt	r3, r3, r2
    3f58:	c0833fa3 	addgt	r3, r3, r3, lsr #31
    3f5c:	c1a030c3 	asrgt	r3, r3, #1
    3f60:	c5c53006 	strbgt	r3, [r5, #6]
    3f64:	e1d520d5 	ldrsb	r2, [r5, #5]
    3f68:	e1d530d2 	ldrsb	r3, [r5, #2]
    3f6c:	e2888001 	add	r8, r8, #1
    3f70:	e0823003 	add	r3, r2, r3
    3f74:	e286600a 	add	r6, r6, #10
    3f78:	e3530001 	cmp	r3, #1
    3f7c:	d59d200c 	ldrle	r2, [sp, #12]
    3f80:	d3a01001 	movle	r1, #1
    3f84:	d7943002 	ldrle	r3, [r4, r2]
    3f88:	d5831000 	strle	r1, [r3]
    3f8c:	e3580020 	cmp	r8, #32
    3f90:	1affffc6 	bne	0x3eb0
    3f94:	e59f02c0 	ldr	r0, [pc, #704]	; 0x425c
    3f98:	e59f32c0 	ldr	r3, [pc, #704]	; 0x4260
    3f9c:	e08f0000 	add	r0, pc, r0
    3fa0:	e7943003 	ldr	r3, [r4, r3]
    3fa4:	e5931000 	ldr	r1, [r3]
    3fa8:	e28d6010 	add	r6, sp, #16
    3fac:	eb0014c4 	bl	0x92c4
    3fb0:	e3a0500f 	mov	r5, #15
    3fb4:	e3a01000 	mov	r1, #0
    3fb8:	e1a02001 	mov	r2, r1
    3fbc:	e1a0e1a2 	lsr	lr, r2, #3
    3fc0:	e0863001 	add	r3, r6, r1
    3fc4:	e28d7f66 	add	r7, sp, #408	; 0x198
    3fc8:	e5d3c007 	ldrb	ip, [r3, #7]
    3fcc:	e087010e 	add	r0, r7, lr, lsl #2
    3fd0:	e281100a 	add	r1, r1, #10
    3fd4:	e510e010 	ldr	lr, [r0, #-16]
    3fd8:	e2822001 	add	r2, r2, #1
    3fdc:	e15c000e 	cmp	ip, lr
    3fe0:	2a000006 	bcs	0x4000
    3fe4:	e5d37006 	ldrb	r7, [r3, #6]
    3fe8:	e06cc007 	rsb	ip, ip, r7
    3fec:	e08cc00e 	add	ip, ip, lr
    3ff0:	e6efc07c 	uxtb	ip, ip
    3ff4:	e35c000e 	cmp	ip, #14
    3ff8:	e5c3c006 	strb	ip, [r3, #6]
    3ffc:	85c35006 	strbhi	r5, [r3, #6]
    4000:	e5d33006 	ldrb	r3, [r3, #6]
    4004:	e510c020 	ldr	ip, [r0, #-32]
    4008:	e3520020 	cmp	r2, #32
    400c:	e08c3003 	add	r3, ip, r3
    4010:	e5003020 	str	r3, [r0, #-32]
    4014:	1affffe8 	bne	0x3fbc
    4018:	e3a02000 	mov	r2, #0
    401c:	e59d6178 	ldr	r6, [sp, #376]	; 0x178
    4020:	e59d517c 	ldr	r5, [sp, #380]	; 0x17c
    4024:	e59de180 	ldr	lr, [sp, #384]	; 0x180
    4028:	e59dc184 	ldr	ip, [sp, #388]	; 0x184
    402c:	e1a061a6 	lsr	r6, r6, #3
    4030:	e1a0c1ac 	lsr	ip, ip, #3
    4034:	e58d6178 	str	r6, [sp, #376]	; 0x178
    4038:	e58dc184 	str	ip, [sp, #388]	; 0x184
    403c:	e1a051a5 	lsr	r5, r5, #3
    4040:	e1a0e1ae 	lsr	lr, lr, #3
    4044:	e58d517c 	str	r5, [sp, #380]	; 0x17c
    4048:	e58de180 	str	lr, [sp, #384]	; 0x180
    404c:	e1a01002 	mov	r1, r2
    4050:	e59f320c 	ldr	r3, [pc, #524]	; 0x4264
    4054:	e7940003 	ldr	r0, [r4, r3]
    4058:	e5d03003 	ldrb	r3, [r0, #3]
    405c:	e5d07001 	ldrb	r7, [r0, #1]
    4060:	e5d08000 	ldrb	r8, [r0]
    4064:	e1a03103 	lsl	r3, r3, #2
    4068:	e1a07107 	lsl	r7, r7, #2
    406c:	e1a08108 	lsl	r8, r8, #2
    4070:	e1a06816 	lsl	r6, r6, r8
    4074:	e1865715 	orr	r5, r6, r5, lsl r7
    4078:	e5d06002 	ldrb	r6, [r0, #2]
    407c:	e59f01bc 	ldr	r0, [pc, #444]	; 0x4240
    4080:	e1a06106 	lsl	r6, r6, #2
    4084:	e185e61e 	orr	lr, r5, lr, lsl r6
    4088:	e18e331c 	orr	r3, lr, ip, lsl r3
    408c:	e28dc010 	add	ip, sp, #16
    4090:	e5803010 	str	r3, [r0, #16]
    4094:	e2800a01 	add	r0, r0, #4096	; 0x1000
    4098:	e5803010 	str	r3, [r0, #16]
    409c:	e2400a02 	sub	r0, r0, #8192	; 0x2000
    40a0:	e5803010 	str	r3, [r0, #16]
    40a4:	e59f01bc 	ldr	r0, [pc, #444]	; 0x4268
    40a8:	e7940000 	ldr	r0, [r4, r0]
    40ac:	e5803000 	str	r3, [r0]
    40b0:	e59f31b4 	ldr	r3, [pc, #436]	; 0x426c
    40b4:	e7943003 	ldr	r3, [r4, r3]
    40b8:	e5832000 	str	r2, [r3]
    40bc:	e5832004 	str	r2, [r3, #4]
    40c0:	e5832008 	str	r2, [r3, #8]
    40c4:	e583200c 	str	r2, [r3, #12]
    40c8:	e59f21a0 	ldr	r2, [pc, #416]	; 0x4270
    40cc:	e794e002 	ldr	lr, [r4, r2]
    40d0:	e1a02001 	mov	r2, r1
    40d4:	e7d2000e 	ldrb	r0, [r2, lr]
    40d8:	e08c6001 	add	r6, ip, r1
    40dc:	e2005007 	and	r5, r0, #7
    40e0:	e5d67006 	ldrb	r7, [r6, #6]
    40e4:	e1a001a0 	lsr	r0, r0, #3
    40e8:	e2822001 	add	r2, r2, #1
    40ec:	e7936100 	ldr	r6, [r3, r0, lsl #2]
    40f0:	e1a05105 	lsl	r5, r5, #2
    40f4:	e3520020 	cmp	r2, #32
    40f8:	e1865517 	orr	r5, r6, r7, lsl r5
    40fc:	e281100a 	add	r1, r1, #10
    4100:	e7835100 	str	r5, [r3, r0, lsl #2]
    4104:	1afffff2 	bne	0x40d4
    4108:	e59f315c 	ldr	r3, [pc, #348]	; 0x426c
    410c:	e59f1130 	ldr	r1, [pc, #304]	; 0x4244
    4110:	e7940003 	ldr	r0, [r4, r3]
    4114:	e59f3158 	ldr	r3, [pc, #344]	; 0x4274
    4118:	e0835000 	add	r5, r3, r0
    411c:	e283ea01 	add	lr, r3, #4096	; 0x1000
    4120:	e243ca01 	sub	ip, r3, #4096	; 0x1000
    4124:	e59f214c 	ldr	r2, [pc, #332]	; 0x4278
    4128:	e0852002 	add	r2, r5, r2
    412c:	e5925000 	ldr	r5, [r2]
    4130:	e5835000 	str	r5, [r3]
    4134:	e2833004 	add	r3, r3, #4
    4138:	e5925000 	ldr	r5, [r2]
    413c:	e1530001 	cmp	r3, r1
    4140:	e58e5000 	str	r5, [lr]
    4144:	e5922000 	ldr	r2, [r2]
    4148:	e58c2000 	str	r2, [ip]
    414c:	1afffff1 	bne	0x4118
    4150:	e59d018c 	ldr	r0, [sp, #396]	; 0x18c
    4154:	e59f3120 	ldr	r3, [pc, #288]	; 0x427c
    4158:	e3a05000 	mov	r5, #0
    415c:	e7942003 	ldr	r2, [r4, r3]
    4160:	e59f8118 	ldr	r8, [pc, #280]	; 0x4280
    4164:	e59d3190 	ldr	r3, [sp, #400]	; 0x190
    4168:	e5d21003 	ldrb	r1, [r2, #3]
    416c:	e5d2e000 	ldrb	lr, [r2]
    4170:	e5d2c001 	ldrb	ip, [r2, #1]
    4174:	e1a01101 	lsl	r1, r1, #2
    4178:	e1a0e10e 	lsl	lr, lr, #2
    417c:	e1a0c10c 	lsl	ip, ip, #2
    4180:	e5d22002 	ldrb	r2, [r2, #2]
    4184:	e1a0cc10 	lsl	ip, r0, ip
    4188:	e1a02102 	lsl	r2, r2, #2
    418c:	e59d0188 	ldr	r0, [sp, #392]	; 0x188
    4190:	e08f8008 	add	r8, pc, r8
    4194:	e18c0e10 	orr	r0, ip, r0, lsl lr
    4198:	e1a06005 	mov	r6, r5
    419c:	e1802213 	orr	r2, r0, r3, lsl r2
    41a0:	e28dae15 	add	sl, sp, #336	; 0x150
    41a4:	e59d3194 	ldr	r3, [sp, #404]	; 0x194
    41a8:	e59f90a8 	ldr	r9, [pc, #168]	; 0x4258
    41ac:	e1823113 	orr	r3, r2, r3, lsl r1
    41b0:	e3a0b001 	mov	fp, #1
    41b4:	e59f2084 	ldr	r2, [pc, #132]	; 0x4240
    41b8:	e5823014 	str	r3, [r2, #20]
    41bc:	e2822a01 	add	r2, r2, #4096	; 0x1000
    41c0:	e5823014 	str	r3, [r2, #20]
    41c4:	e2422a02 	sub	r2, r2, #8192	; 0x2000
    41c8:	e5823014 	str	r3, [r2, #20]
    41cc:	e59f20b0 	ldr	r2, [pc, #176]	; 0x4284
    41d0:	e7942002 	ldr	r2, [r4, r2]
    41d4:	e5823000 	str	r3, [r2]
    41d8:	e08a2005 	add	r2, sl, r5
    41dc:	e1a01006 	mov	r1, r6
    41e0:	e1d2e0d5 	ldrsb	lr, [r2, #5]
    41e4:	e1d2c0d2 	ldrsb	ip, [r2, #2]
    41e8:	e1a0300e 	mov	r3, lr
    41ec:	e1a0200c 	mov	r2, ip
    41f0:	e1a00008 	mov	r0, r8
    41f4:	e08e700c 	add	r7, lr, ip
    41f8:	e285500a 	add	r5, r5, #10
    41fc:	e247c001 	sub	ip, r7, #1
    4200:	e2866001 	add	r6, r6, #1
    4204:	e58dc000 	str	ip, [sp]
    4208:	eb00142d 	bl	0x92c4
    420c:	e3570001 	cmp	r7, #1
    4210:	d7943009 	ldrle	r3, [r4, r9]
    4214:	d583b000 	strle	fp, [r3]
    4218:	e3550028 	cmp	r5, #40	; 0x28
    421c:	1affffed 	bne	0x41d8
    4220:	e3a03000 	mov	r3, #0
    4224:	e59f202c 	ldr	r2, [pc, #44]	; 0x4258
    4228:	e1a00003 	mov	r0, r3
    422c:	e7942002 	ldr	r2, [r4, r2]
    4230:	e5823000 	str	r3, [r2]
    4234:	e28ddf67 	add	sp, sp, #412	; 0x19c
    4238:	e8bd8ff0 	pop	{r4, r5, r6, r7, r8, r9, sl, fp, pc}
    423c:	0000d550 	andeq	sp, r0, r0, asr r5
    4240:	10207000 	eorne	r7, r0, r0
    4244:	10207210 	eorne	r7, r0, r0, lsl r2
    4248:	10208000 	eorne	r8, r0, r0
    424c:	10206000 	eorne	r6, r0, r0
    4250:	00008496 	muleq	r0, r6, r4
    4254:	000084cc 	andeq	r8, r0, ip, asr #9
    4258:	00000034 	andeq	r0, r0, r4, lsr r0
    425c:	000083b4 			; <UNDEFINED> instruction: 0x000083b4
    4260:	00000068 	andeq	r0, r0, r8, rrx
    4264:	000000d4 	ldrdeq	r0, [r0], -r4
    4268:	000000cc 	andeq	r0, r0, ip, asr #1
    426c:	00000078 	andeq	r0, r0, r8, ror r0
    4270:	0000005c 	andeq	r0, r0, ip, asr r0
    4274:	10207200 	eorne	r7, r0, r0, lsl #4
    4278:	efdf8e00 	svc	0x00df8e00
    427c:	00000040 	andeq	r0, r0, r0, asr #32
    4280:	000081c8 	andeq	r8, r0, r8, asr #3
    4284:	0000007c 	andeq	r0, r0, ip, ror r0
    4288:	e92d41f0 	push	{r4, r5, r6, r7, r8, lr}
    428c:	e59f02a8 	ldr	r0, [pc, #680]	; 0x453c
    4290:	e08f0000 	add	r0, pc, r0
    4294:	eb00140a 	bl	0x92c4
    4298:	e59f12a0 	ldr	r1, [pc, #672]	; 0x4540
    429c:	e59f22a0 	ldr	r2, [pc, #672]	; 0x4544
    42a0:	e59f32a0 	ldr	r3, [pc, #672]	; 0x4548
    42a4:	e59f02a0 	ldr	r0, [pc, #672]	; 0x454c
    42a8:	e3a0c000 	mov	ip, #0
    42ac:	e5908060 	ldr	r8, [r0, #96]	; 0x60
    42b0:	e1a06001 	mov	r6, r1
    42b4:	e580c060 	str	ip, [r0, #96]	; 0x60
    42b8:	e1a05002 	mov	r5, r2
    42bc:	e5910040 	ldr	r0, [r1, #64]	; 0x40
    42c0:	e1a04003 	mov	r4, r3
    42c4:	e592e040 	ldr	lr, [r2, #64]	; 0x40
    42c8:	e59fc280 	ldr	ip, [pc, #640]	; 0x4550
    42cc:	e18e0000 	orr	r0, lr, r0
    42d0:	e593e040 	ldr	lr, [r3, #64]	; 0x40
    42d4:	e180000e 	orr	r0, r0, lr
    42d8:	e20004ff 	and	r0, r0, #-16777216	; 0xff000000
    42dc:	e1e00520 	mvn	r0, r0, lsr #10
    42e0:	e1e00500 	mvn	r0, r0, lsl #10
    42e4:	e5810040 	str	r0, [r1, #64]	; 0x40
    42e8:	e5820040 	str	r0, [r2, #64]	; 0x40
    42ec:	e5830040 	str	r0, [r3, #64]	; 0x40
    42f0:	e5910044 	ldr	r0, [r1, #68]	; 0x44
    42f4:	e592e044 	ldr	lr, [r2, #68]	; 0x44
    42f8:	e18e0000 	orr	r0, lr, r0
    42fc:	e593e044 	ldr	lr, [r3, #68]	; 0x44
    4300:	e180000e 	orr	r0, r0, lr
    4304:	e3c00e71 	bic	r0, r0, #1808	; 0x710
    4308:	e3800c07 	orr	r0, r0, #1792	; 0x700
    430c:	e5810044 	str	r0, [r1, #68]	; 0x44
    4310:	e5820044 	str	r0, [r2, #68]	; 0x44
    4314:	e5830044 	str	r0, [r3, #68]	; 0x44
    4318:	e591e044 	ldr	lr, [r1, #68]	; 0x44
    431c:	e5920044 	ldr	r0, [r2, #68]	; 0x44
    4320:	e18e0000 	orr	r0, lr, r0
    4324:	e593e044 	ldr	lr, [r3, #68]	; 0x44
    4328:	e3800010 	orr	r0, r0, #16
    432c:	e180000e 	orr	r0, r0, lr
    4330:	e5810044 	str	r0, [r1, #68]	; 0x44
    4334:	e5820044 	str	r0, [r2, #68]	; 0x44
    4338:	e5830044 	str	r0, [r3, #68]	; 0x44
    433c:	e59633fc 	ldr	r3, [r6, #1020]	; 0x3fc
    4340:	e59523fc 	ldr	r2, [r5, #1020]	; 0x3fc
    4344:	e1823003 	orr	r3, r2, r3
    4348:	e59423fc 	ldr	r2, [r4, #1020]	; 0x3fc
    434c:	e1833002 	orr	r3, r3, r2
    4350:	e3130201 	tst	r3, #268435456	; 0x10000000
    4354:	0a000002 	beq	0x4364
    4358:	e35c0000 	cmp	ip, #0
    435c:	1a000006 	bne	0x437c
    4360:	ea000001 	b	0x436c
    4364:	e25cc001 	subs	ip, ip, #1
    4368:	1afffff3 	bne	0x433c
    436c:	e59f01e0 	ldr	r0, [pc, #480]	; 0x4554
    4370:	e08f0000 	add	r0, pc, r0
    4374:	eb0013d2 	bl	0x92c4
    4378:	ea00005f 	b	0x44fc
    437c:	e3a00e2e 	mov	r0, #736	; 0x2e0
    4380:	e3a01fb9 	mov	r1, #740	; 0x2e4
    4384:	ebfffc0b 	bl	0x33b8
    4388:	e2506000 	subs	r6, r0, #0
    438c:	ba00005a 	blt	0x44fc
    4390:	e3a00fba 	mov	r0, #744	; 0x2e8
    4394:	e3a01fbb 	mov	r1, #748	; 0x2ec
    4398:	ebfffc06 	bl	0x33b8
    439c:	e2507000 	subs	r7, r0, #0
    43a0:	ba000055 	blt	0x44fc
    43a4:	e3a00e2f 	mov	r0, #752	; 0x2f0
    43a8:	e3a01fbd 	mov	r1, #756	; 0x2f4
    43ac:	ebfffc01 	bl	0x33b8
    43b0:	e2505000 	subs	r5, r0, #0
    43b4:	ba000050 	blt	0x44fc
    43b8:	e3a00fbe 	mov	r0, #760	; 0x2f8
    43bc:	e3a01fbf 	mov	r1, #764	; 0x2fc
    43c0:	ebfffbfc 	bl	0x33b8
    43c4:	e2504000 	subs	r4, r0, #0
    43c8:	ba00004b 	blt	0x44fc
    43cc:	e59fe16c 	ldr	lr, [pc, #364]	; 0x4540
    43d0:	e3a00d0b 	mov	r0, #704	; 0x2c0
    43d4:	e3a01e21 	mov	r1, #528	; 0x210
    43d8:	e1a02006 	mov	r2, r6
    43dc:	e3a03e2e 	mov	r3, #736	; 0x2e0
    43e0:	e186c407 	orr	ip, r6, r7, lsl #8
    43e4:	e18cc805 	orr	ip, ip, r5, lsl #16
    43e8:	e18ccc04 	orr	ip, ip, r4, lsl #24
    43ec:	e58ec018 	str	ip, [lr, #24]
    43f0:	e28eea01 	add	lr, lr, #4096	; 0x1000
    43f4:	e58ec018 	str	ip, [lr, #24]
    43f8:	e24eea02 	sub	lr, lr, #8192	; 0x2000
    43fc:	e58ec018 	str	ip, [lr, #24]
    4400:	ebfffc27 	bl	0x34a4
    4404:	e3500000 	cmp	r0, #0
    4408:	ba00003b 	blt	0x44fc
    440c:	e3a00fb1 	mov	r0, #708	; 0x2c4
    4410:	e3a01f85 	mov	r1, #532	; 0x214
    4414:	e1a02006 	mov	r2, r6
    4418:	e3a03fb9 	mov	r3, #740	; 0x2e4
    441c:	ebfffc20 	bl	0x34a4
    4420:	e3500000 	cmp	r0, #0
    4424:	ba000034 	blt	0x44fc
    4428:	e3a00fb2 	mov	r0, #712	; 0x2c8
    442c:	e3a01f86 	mov	r1, #536	; 0x218
    4430:	e1a02007 	mov	r2, r7
    4434:	e3a03fba 	mov	r3, #744	; 0x2e8
    4438:	ebfffc19 	bl	0x34a4
    443c:	e3500000 	cmp	r0, #0
    4440:	ba00002d 	blt	0x44fc
    4444:	e3a00fb3 	mov	r0, #716	; 0x2cc
    4448:	e3a01f87 	mov	r1, #540	; 0x21c
    444c:	e1a02007 	mov	r2, r7
    4450:	e3a03fbb 	mov	r3, #748	; 0x2ec
    4454:	ebfffc12 	bl	0x34a4
    4458:	e3500000 	cmp	r0, #0
    445c:	ba000026 	blt	0x44fc
    4460:	e3a00e2d 	mov	r0, #720	; 0x2d0
    4464:	e3a01e22 	mov	r1, #544	; 0x220
    4468:	e1a02005 	mov	r2, r5
    446c:	e3a03e2f 	mov	r3, #752	; 0x2f0
    4470:	ebfffc0b 	bl	0x34a4
    4474:	e3500000 	cmp	r0, #0
    4478:	ba00001f 	blt	0x44fc
    447c:	e3a00fb5 	mov	r0, #724	; 0x2d4
    4480:	e3a01f89 	mov	r1, #548	; 0x224
    4484:	e1a02005 	mov	r2, r5
    4488:	e3a03fbd 	mov	r3, #756	; 0x2f4
    448c:	ebfffc04 	bl	0x34a4
    4490:	e3500000 	cmp	r0, #0
    4494:	ba000018 	blt	0x44fc
    4498:	e3a00fb6 	mov	r0, #728	; 0x2d8
    449c:	e3a01f8a 	mov	r1, #552	; 0x228
    44a0:	e1a02004 	mov	r2, r4
    44a4:	e3a03fbe 	mov	r3, #760	; 0x2f8
    44a8:	ebfffbfd 	bl	0x34a4
    44ac:	e3500000 	cmp	r0, #0
    44b0:	ba000011 	blt	0x44fc
    44b4:	e3a00fb7 	mov	r0, #732	; 0x2dc
    44b8:	e3a01f8b 	mov	r1, #556	; 0x22c
    44bc:	e1a02004 	mov	r2, r4
    44c0:	e3a03fbf 	mov	r3, #764	; 0x2fc
    44c4:	ebfffbf6 	bl	0x34a4
    44c8:	e3500000 	cmp	r0, #0
    44cc:	ba00000a 	blt	0x44fc
    44d0:	e59f3068 	ldr	r3, [pc, #104]	; 0x4540
    44d4:	e1866407 	orr	r6, r6, r7, lsl #8
    44d8:	e3a00000 	mov	r0, #0
    44dc:	e1865805 	orr	r5, r6, r5, lsl #16
    44e0:	e1854c04 	orr	r4, r5, r4, lsl #24
    44e4:	e5834018 	str	r4, [r3, #24]
    44e8:	e2833a01 	add	r3, r3, #4096	; 0x1000
    44ec:	e5834018 	str	r4, [r3, #24]
    44f0:	e2433a02 	sub	r3, r3, #8192	; 0x2000
    44f4:	e5834018 	str	r4, [r3, #24]
    44f8:	ea000000 	b	0x4500
    44fc:	e3e00000 	mvn	r0, #0
    4500:	e59fc038 	ldr	ip, [pc, #56]	; 0x4540
    4504:	e59f1038 	ldr	r1, [pc, #56]	; 0x4544
    4508:	e59c3044 	ldr	r3, [ip, #68]	; 0x44
    450c:	e59f2034 	ldr	r2, [pc, #52]	; 0x4548
    4510:	e5914044 	ldr	r4, [r1, #68]	; 0x44
    4514:	e1843003 	orr	r3, r4, r3
    4518:	e5924044 	ldr	r4, [r2, #68]	; 0x44
    451c:	e1833004 	orr	r3, r3, r4
    4520:	e3c33010 	bic	r3, r3, #16
    4524:	e58c3044 	str	r3, [ip, #68]	; 0x44
    4528:	e5813044 	str	r3, [r1, #68]	; 0x44
    452c:	e5823044 	str	r3, [r2, #68]	; 0x44
    4530:	e59f3014 	ldr	r3, [pc, #20]	; 0x454c
    4534:	e5838060 	str	r8, [r3, #96]	; 0x60
    4538:	e8bd81f0 	pop	{r4, r5, r6, r7, r8, pc}
    453c:	000080f3 	strdeq	r8, [r0], -r3
    4540:	10207000 	eorne	r7, r0, r0
    4544:	10208000 	eorne	r8, r0, r0
    4548:	10206000 	eorne	r6, r0, r0
    454c:	10205000 	eorne	r5, r0, r0
    4550:	000f4240 	andeq	r4, pc, r0, asr #4
    4554:	0000802c 	andeq	r8, r0, ip, lsr #32
    4558:	e3a03000 	mov	r3, #0
    455c:	e92d4ff0 	push	{r4, r5, r6, r7, r8, r9, sl, fp, lr}
    4560:	e59f1550 	ldr	r1, [pc, #1360]	; 0x4ab8
    4564:	e1a02003 	mov	r2, r3
    4568:	e5813018 	str	r3, [r1, #24]
    456c:	e59f4548 	ldr	r4, [pc, #1352]	; 0x4abc
    4570:	e2811a01 	add	r1, r1, #4096	; 0x1000
    4574:	e08f4004 	add	r4, pc, r4
    4578:	e5813018 	str	r3, [r1, #24]
    457c:	e24ddf71 	sub	sp, sp, #452	; 0x1c4
    4580:	e2411a02 	sub	r1, r1, #8192	; 0x2000
    4584:	e5813018 	str	r3, [r1, #24]
    4588:	e59f3530 	ldr	r3, [pc, #1328]	; 0x4ac0
    458c:	e59f1530 	ldr	r1, [pc, #1328]	; 0x4ac4
    4590:	e5832000 	str	r2, [r3]
    4594:	e2830a01 	add	r0, r3, #4096	; 0x1000
    4598:	e5802000 	str	r2, [r0]
    459c:	e2430a01 	sub	r0, r3, #4096	; 0x1000
    45a0:	e2833004 	add	r3, r3, #4
    45a4:	e5802000 	str	r2, [r0]
    45a8:	e1530001 	cmp	r3, r1
    45ac:	1afffff7 	bne	0x4590
    45b0:	e3a03000 	mov	r3, #0
    45b4:	e28d0f67 	add	r0, sp, #412	; 0x19c
    45b8:	e1a02003 	mov	r2, r3
    45bc:	e28d10fc 	add	r1, sp, #252	; 0xfc
    45c0:	e7c02003 	strb	r2, [r0, r3]
    45c4:	e7812103 	str	r2, [r1, r3, lsl #2]
    45c8:	e2833001 	add	r3, r3, #1
    45cc:	e3530020 	cmp	r3, #32
    45d0:	1afffffa 	bne	0x45c0
    45d4:	e3a05001 	mov	r5, #1
    45d8:	e28d70fc 	add	r7, sp, #252	; 0xfc
    45dc:	e28d6f67 	add	r6, sp, #412	; 0x19c
    45e0:	e28daf5f 	add	sl, sp, #380	; 0x17c
    45e4:	e59f84d8 	ldr	r8, [pc, #1240]	; 0x4ac4
    45e8:	e3a00c01 	mov	r0, #256	; 0x100
    45ec:	ebfffc2a 	bl	0x369c
    45f0:	e3700001 	cmn	r0, #1
    45f4:	0a000031 	beq	0x46c0
    45f8:	e3550010 	cmp	r5, #16
    45fc:	0a00002c 	beq	0x46b4
    4600:	e3a03000 	mov	r3, #0
    4604:	e3a01001 	mov	r1, #1
    4608:	e1a02003 	mov	r2, r3
    460c:	e0109211 	ands	r9, r0, r1, lsl r2
    4610:	1a000003 	bne	0x4624
    4614:	e797c003 	ldr	ip, [r7, r3]
    4618:	e35c0000 	cmp	ip, #0
    461c:	07c65002 	strbeq	r5, [r6, r2]
    4620:	0a000000 	beq	0x4628
    4624:	e7871003 	str	r1, [r7, r3]
    4628:	e2833004 	add	r3, r3, #4
    462c:	e2822001 	add	r2, r2, #1
    4630:	e3530080 	cmp	r3, #128	; 0x80
    4634:	1afffff4 	bne	0x460c
    4638:	e1a02006 	mov	r2, r6
    463c:	e3a03000 	mov	r3, #0
    4640:	e3c31003 	bic	r1, r3, #3
    4644:	e28dcd07 	add	ip, sp, #448	; 0x1c0
    4648:	e5d20002 	ldrb	r0, [r2, #2]
    464c:	e08c1001 	add	r1, ip, r1
    4650:	e1a00800 	lsl	r0, r0, #16
    4654:	e5d2c001 	ldrb	ip, [r2, #1]
    4658:	e080040c 	add	r0, r0, ip, lsl #8
    465c:	e7d6c003 	ldrb	ip, [r6, r3]
    4660:	e2833004 	add	r3, r3, #4
    4664:	e080000c 	add	r0, r0, ip
    4668:	e3530020 	cmp	r3, #32
    466c:	e5d2c003 	ldrb	ip, [r2, #3]
    4670:	e2822004 	add	r2, r2, #4
    4674:	e0800c0c 	add	r0, r0, ip, lsl #24
    4678:	e5010044 	str	r0, [r1, #-68]	; 0x44
    467c:	1affffef 	bne	0x4640
    4680:	e59f3438 	ldr	r3, [pc, #1080]	; 0x4ac0
    4684:	e08ac003 	add	ip, sl, r3
    4688:	e2830a01 	add	r0, r3, #4096	; 0x1000
    468c:	e2431a01 	sub	r1, r3, #4096	; 0x1000
    4690:	e59f2430 	ldr	r2, [pc, #1072]	; 0x4ac8
    4694:	e08c2002 	add	r2, ip, r2
    4698:	e5922000 	ldr	r2, [r2]
    469c:	e5832000 	str	r2, [r3]
    46a0:	e5802000 	str	r2, [r0]
    46a4:	e2833004 	add	r3, r3, #4
    46a8:	e5812000 	str	r2, [r1]
    46ac:	e1530008 	cmp	r3, r8
    46b0:	1afffff3 	bne	0x4684
    46b4:	e2855001 	add	r5, r5, #1
    46b8:	e3550011 	cmp	r5, #17
    46bc:	1affffc9 	bne	0x45e8
    46c0:	e3a02000 	mov	r2, #0
    46c4:	e28d503c 	add	r5, sp, #60	; 0x3c
    46c8:	e1a00002 	mov	r0, r2
    46cc:	e3e01000 	mvn	r1, #0
    46d0:	e1a0e002 	mov	lr, r2
    46d4:	e28dcf67 	add	ip, sp, #412	; 0x19c
    46d8:	e1a03005 	mov	r3, r5
    46dc:	e7e31002 	strb	r1, [r3, r2]!
    46e0:	e2822006 	add	r2, r2, #6
    46e4:	e5c31001 	strb	r1, [r3, #1]
    46e8:	e5c31002 	strb	r1, [r3, #2]
    46ec:	e5c31003 	strb	r1, [r3, #3]
    46f0:	e5c3e004 	strb	lr, [r3, #4]
    46f4:	e7dc6000 	ldrb	r6, [ip, r0]
    46f8:	e2800001 	add	r0, r0, #1
    46fc:	e5c36005 	strb	r6, [r3, #5]
    4700:	e3500020 	cmp	r0, #32
    4704:	1afffff3 	bne	0x46d8
    4708:	e3a070ff 	mov	r7, #255	; 0xff
    470c:	e3a05000 	mov	r5, #0
    4710:	e59fa3a0 	ldr	sl, [pc, #928]	; 0x4ab8
    4714:	e28d603c 	add	r6, sp, #60	; 0x3c
    4718:	e3e08000 	mvn	r8, #0
    471c:	e3a00c01 	mov	r0, #256	; 0x100
    4720:	e59f23a4 	ldr	r2, [pc, #932]	; 0x4acc
    4724:	e1a03805 	lsl	r3, r5, #16
    4728:	e0233095 	mla	r3, r5, r0, r3
    472c:	e0833005 	add	r3, r3, r5
    4730:	e0833c05 	add	r3, r3, r5, lsl #24
    4734:	e58a3018 	str	r3, [sl, #24]
    4738:	e5823018 	str	r3, [r2, #24]
    473c:	e2422a02 	sub	r2, r2, #8192	; 0x2000
    4740:	e5823018 	str	r3, [r2, #24]
    4744:	ebfffbd4 	bl	0x369c
    4748:	e3a03000 	mov	r3, #0
    474c:	e1a01003 	mov	r1, r3
    4750:	e19620d3 	ldrsb	r2, [r6, r3]
    4754:	e3720001 	cmn	r2, #1
    4758:	1a000002 	bne	0x4768
    475c:	e1a02130 	lsr	r2, r0, r1
    4760:	e3120001 	tst	r2, #1
    4764:	07c65003 	strbeq	r5, [r6, r3]
    4768:	e19620d3 	ldrsb	r2, [r6, r3]
    476c:	e3720001 	cmn	r2, #1
    4770:	0a00001e 	beq	0x47f0
    4774:	e0862003 	add	r2, r6, r3
    4778:	e1d2c0d1 	ldrsb	ip, [r2, #1]
    477c:	e37c0001 	cmn	ip, #1
    4780:	1a00001a 	bne	0x47f0
    4784:	e355007f 	cmp	r5, #127	; 0x7f
    4788:	13a0e000 	movne	lr, #0
    478c:	03a0e001 	moveq	lr, #1
    4790:	e1a0c130 	lsr	ip, r0, r1
    4794:	e20cc001 	and	ip, ip, #1
    4798:	e19e900c 	orrs	r9, lr, ip
    479c:	0a000013 	beq	0x47f0
    47a0:	e35e0000 	cmp	lr, #0
    47a4:	0a000003 	beq	0x47b8
    47a8:	e35c0000 	cmp	ip, #0
    47ac:	03a0c07f 	moveq	ip, #127	; 0x7f
    47b0:	05c2c001 	strbeq	ip, [r2, #1]
    47b4:	0a000000 	beq	0x47bc
    47b8:	e5c27001 	strb	r7, [r2, #1]
    47bc:	e5d2c001 	ldrb	ip, [r2, #1]
    47c0:	e196e0d3 	ldrsb	lr, [r6, r3]
    47c4:	e6af907c 	sxtb	r9, ip
    47c8:	e1d2b0d3 	ldrsb	fp, [r2, #3]
    47cc:	e06e9009 	rsb	r9, lr, r9
    47d0:	e5c28001 	strb	r8, [r2, #1]
    47d4:	e1d2e0d2 	ldrsb	lr, [r2, #2]
    47d8:	e06ee00b 	rsb	lr, lr, fp
    47dc:	e159000e 	cmp	r9, lr
    47e0:	c5c2c003 	strbgt	ip, [r2, #3]
    47e4:	c7d6c003 	ldrbgt	ip, [r6, r3]
    47e8:	e7c68003 	strb	r8, [r6, r3]
    47ec:	c5c2c002 	strbgt	ip, [r2, #2]
    47f0:	e2833006 	add	r3, r3, #6
    47f4:	e2811001 	add	r1, r1, #1
    47f8:	e35300c0 	cmp	r3, #192	; 0xc0
    47fc:	1affffd3 	bne	0x4750
    4800:	e2855001 	add	r5, r5, #1
    4804:	e2877001 	add	r7, r7, #1
    4808:	e3550080 	cmp	r5, #128	; 0x80
    480c:	e6ef7077 	uxtb	r7, r7
    4810:	1affffc1 	bne	0x471c
    4814:	e3a03000 	mov	r3, #0
    4818:	e28dc03c 	add	ip, sp, #60	; 0x3c
    481c:	e08c2003 	add	r2, ip, r3
    4820:	e2833006 	add	r3, r3, #6
    4824:	e1d210d3 	ldrsb	r1, [r2, #3]
    4828:	e3710001 	cmn	r1, #1
    482c:	0a000005 	beq	0x4848
    4830:	e1d200d2 	ldrsb	r0, [r2, #2]
    4834:	e0801001 	add	r1, r0, r1
    4838:	e3700001 	cmn	r0, #1
    483c:	10811fa1 	addne	r1, r1, r1, lsr #31
    4840:	11a010c1 	asrne	r1, r1, #1
    4844:	15c21004 	strbne	r1, [r2, #4]
    4848:	e35300c0 	cmp	r3, #192	; 0xc0
    484c:	1afffff2 	bne	0x481c
    4850:	e28d103c 	add	r1, sp, #60	; 0x3c
    4854:	e3a02000 	mov	r2, #0
    4858:	e28dcf6f 	add	ip, sp, #444	; 0x1bc
    485c:	ea00000b 	b	0x4890
    4860:	e081e003 	add	lr, r1, r3
    4864:	e2833006 	add	r3, r3, #6
    4868:	e5dee004 	ldrb	lr, [lr, #4]
    486c:	e150000e 	cmp	r0, lr
    4870:	31a0000e 	movcc	r0, lr
    4874:	e3530030 	cmp	r3, #48	; 0x30
    4878:	1afffff8 	bne	0x4860
    487c:	e7cc0002 	strb	r0, [ip, r2]
    4880:	e2811030 	add	r1, r1, #48	; 0x30
    4884:	e2822001 	add	r2, r2, #1
    4888:	e3520004 	cmp	r2, #4
    488c:	0a000002 	beq	0x489c
    4890:	e3a03000 	mov	r3, #0
    4894:	e1a00003 	mov	r0, r3
    4898:	eafffff0 	b	0x4860
    489c:	e5dd21bd 	ldrb	r2, [sp, #445]	; 0x1bd
    48a0:	e5dd31be 	ldrb	r3, [sp, #446]	; 0x1be
    48a4:	e59f020c 	ldr	r0, [pc, #524]	; 0x4ab8
    48a8:	e59f121c 	ldr	r1, [pc, #540]	; 0x4acc
    48ac:	e1a03803 	lsl	r3, r3, #16
    48b0:	e0833402 	add	r3, r3, r2, lsl #8
    48b4:	e5dd21bc 	ldrb	r2, [sp, #444]	; 0x1bc
    48b8:	e0833002 	add	r3, r3, r2
    48bc:	e5dd21bf 	ldrb	r2, [sp, #447]	; 0x1bf
    48c0:	e0833c02 	add	r3, r3, r2, lsl #24
    48c4:	e59f2204 	ldr	r2, [pc, #516]	; 0x4ad0
    48c8:	e5803018 	str	r3, [r0, #24]
    48cc:	e5813018 	str	r3, [r1, #24]
    48d0:	e5823018 	str	r3, [r2, #24]
    48d4:	e580301c 	str	r3, [r0, #28]
    48d8:	e581301c 	str	r3, [r1, #28]
    48dc:	e582301c 	str	r3, [r2, #28]
    48e0:	e28d203c 	add	r2, sp, #60	; 0x3c
    48e4:	e3a03000 	mov	r3, #0
    48e8:	e2822005 	add	r2, r2, #5
    48ec:	ea00001f 	b	0x4970
    48f0:	e08c0001 	add	r0, ip, r1
    48f4:	e2811006 	add	r1, r1, #6
    48f8:	e5d06005 	ldrb	r6, [r0, #5]
    48fc:	e5d05004 	ldrb	r5, [r0, #4]
    4900:	e065500e 	rsb	r5, r5, lr
    4904:	e0855006 	add	r5, r5, r6
    4908:	e355000f 	cmp	r5, #15
    490c:	23a0500f 	movcs	r5, #15
    4910:	e3510018 	cmp	r1, #24
    4914:	e5c05005 	strb	r5, [r0, #5]
    4918:	1afffff4 	bne	0x48f0
    491c:	e5d21006 	ldrb	r1, [r2, #6]
    4920:	e5d2000c 	ldrb	r0, [r2, #12]
    4924:	e1a00800 	lsl	r0, r0, #16
    4928:	e0800401 	add	r0, r0, r1, lsl #8
    492c:	e5d21000 	ldrb	r1, [r2]
    4930:	e0800001 	add	r0, r0, r1
    4934:	e5d21012 	ldrb	r1, [r2, #18]
    4938:	e2822018 	add	r2, r2, #24
    493c:	e0800c01 	add	r0, r0, r1, lsl #24
    4940:	e59f1178 	ldr	r1, [pc, #376]	; 0x4ac0
    4944:	e0831001 	add	r1, r3, r1
    4948:	e5810000 	str	r0, [r1]
    494c:	e59f1180 	ldr	r1, [pc, #384]	; 0x4ad4
    4950:	e0831001 	add	r1, r3, r1
    4954:	e5810000 	str	r0, [r1]
    4958:	e59f1178 	ldr	r1, [pc, #376]	; 0x4ad8
    495c:	e0831001 	add	r1, r3, r1
    4960:	e2833004 	add	r3, r3, #4
    4964:	e5810000 	str	r0, [r1]
    4968:	e3530020 	cmp	r3, #32
    496c:	0a000005 	beq	0x4988
    4970:	e28d0d07 	add	r0, sp, #448	; 0x1c0
    4974:	e242c005 	sub	ip, r2, #5
    4978:	e08011a3 	add	r1, r0, r3, lsr #3
    497c:	e551e004 	ldrb	lr, [r1, #-4]
    4980:	e3a01000 	mov	r1, #0
    4984:	eaffffd9 	b	0x48f0
    4988:	e59f014c 	ldr	r0, [pc, #332]	; 0x4adc
    498c:	e08f0000 	add	r0, pc, r0
    4990:	e28d503c 	add	r5, sp, #60	; 0x3c
    4994:	e59f7144 	ldr	r7, [pc, #324]	; 0x4ae0
    4998:	eb001249 	bl	0x92c4
    499c:	e3a06000 	mov	r6, #0
    49a0:	e2855002 	add	r5, r5, #2
    49a4:	e08f7007 	add	r7, pc, r7
    49a8:	e1d520d0 	ldrsb	r2, [r5]
    49ac:	e1d530d1 	ldrsb	r3, [r5, #1]
    49b0:	e1a01006 	mov	r1, r6
    49b4:	e1a00007 	mov	r0, r7
    49b8:	e5d5c002 	ldrb	ip, [r5, #2]
    49bc:	e58dc000 	str	ip, [sp]
    49c0:	e1d5c3d0 	ldrsb	ip, [r5, #48]	; 0x30
    49c4:	e58dc008 	str	ip, [sp, #8]
    49c8:	e1d5c3d1 	ldrsb	ip, [r5, #49]	; 0x31
    49cc:	e58dc00c 	str	ip, [sp, #12]
    49d0:	e5d5c032 	ldrb	ip, [r5, #50]	; 0x32
    49d4:	e58dc010 	str	ip, [sp, #16]
    49d8:	e1d5c6d0 	ldrsb	ip, [r5, #96]	; 0x60
    49dc:	e58dc018 	str	ip, [sp, #24]
    49e0:	e1d5c6d1 	ldrsb	ip, [r5, #97]	; 0x61
    49e4:	e58dc01c 	str	ip, [sp, #28]
    49e8:	e5d5c062 	ldrb	ip, [r5, #98]	; 0x62
    49ec:	e58dc020 	str	ip, [sp, #32]
    49f0:	e1d5c9d0 	ldrsb	ip, [r5, #144]	; 0x90
    49f4:	e58dc028 	str	ip, [sp, #40]	; 0x28
    49f8:	e1d5c9d1 	ldrsb	ip, [r5, #145]	; 0x91
    49fc:	e58dc02c 	str	ip, [sp, #44]	; 0x2c
    4a00:	e5d5c092 	ldrb	ip, [r5, #146]	; 0x92
    4a04:	e2855006 	add	r5, r5, #6
    4a08:	e58dc030 	str	ip, [sp, #48]	; 0x30
    4a0c:	e286c008 	add	ip, r6, #8
    4a10:	e58dc004 	str	ip, [sp, #4]
    4a14:	e286c010 	add	ip, r6, #16
    4a18:	e58dc014 	str	ip, [sp, #20]
    4a1c:	e286c018 	add	ip, r6, #24
    4a20:	e2866001 	add	r6, r6, #1
    4a24:	e58dc024 	str	ip, [sp, #36]	; 0x24
    4a28:	eb001225 	bl	0x92c4
    4a2c:	e3560008 	cmp	r6, #8
    4a30:	1affffdc 	bne	0x49a8
    4a34:	e59f00a8 	ldr	r0, [pc, #168]	; 0x4ae4
    4a38:	e59f30a8 	ldr	r3, [pc, #168]	; 0x4ae8
    4a3c:	e08f0000 	add	r0, pc, r0
    4a40:	e7943003 	ldr	r3, [r4, r3]
    4a44:	e5931000 	ldr	r1, [r3]
    4a48:	e3a05000 	mov	r5, #0
    4a4c:	e59f8098 	ldr	r8, [pc, #152]	; 0x4aec
    4a50:	eb00121b 	bl	0x92c4
    4a54:	e1a06005 	mov	r6, r5
    4a58:	e08f8008 	add	r8, pc, r8
    4a5c:	e28d703c 	add	r7, sp, #60	; 0x3c
    4a60:	e0873005 	add	r3, r7, r5
    4a64:	e1a01006 	mov	r1, r6
    4a68:	e1d320d2 	ldrsb	r2, [r3, #2]
    4a6c:	e1a00008 	mov	r0, r8
    4a70:	e1d330d3 	ldrsb	r3, [r3, #3]
    4a74:	e0622003 	rsb	r2, r2, r3
    4a78:	eb001211 	bl	0x92c4
    4a7c:	e2855006 	add	r5, r5, #6
    4a80:	e2866001 	add	r6, r6, #1
    4a84:	e35500c0 	cmp	r5, #192	; 0xc0
    4a88:	1afffff4 	bne	0x4a60
    4a8c:	e3a03000 	mov	r3, #0
    4a90:	e2833006 	add	r3, r3, #6
    4a94:	e3530030 	cmp	r3, #48	; 0x30
    4a98:	1afffffc 	bne	0x4a90
    4a9c:	e3a03000 	mov	r3, #0
    4aa0:	e59f2048 	ldr	r2, [pc, #72]	; 0x4af0
    4aa4:	e1a00003 	mov	r0, r3
    4aa8:	e7942002 	ldr	r2, [r4, r2]
    4aac:	e5823000 	str	r3, [r2]
    4ab0:	e28ddf71 	add	sp, sp, #452	; 0x1c4
    4ab4:	e8bd8ff0 	pop	{r4, r5, r6, r7, r8, r9, sl, fp, pc}
    4ab8:	10207000 	eorne	r7, r0, r0
    4abc:	0000ca90 	muleq	r0, r0, sl
    4ac0:	10207210 	eorne	r7, r0, r0, lsl r2
    4ac4:	10207230 	eorne	r7, r0, r0, lsr r2
    4ac8:	efdf8df0 	svc	0x00df8df0
    4acc:	10208000 	eorne	r8, r0, r0
    4ad0:	10206000 	eorne	r6, r0, r0
    4ad4:	10208210 	eorne	r8, r0, r0, lsl r2
    4ad8:	10206210 	eorne	r6, r0, r0, lsl r2
    4adc:	00007974 	andeq	r7, r0, r4, ror r9
    4ae0:	00007a37 	andeq	r7, r0, r7, lsr sl
    4ae4:	000079db 	ldrdeq	r7, [r0], -fp
    4ae8:	00000068 	andeq	r0, r0, r8, rrx
    4aec:	000079c7 	andeq	r7, r0, r7, asr #19
    4af0:	000000e4 	andeq	r0, r0, r4, ror #1
    4af4:	e59f3048 	ldr	r3, [pc, #72]	; 0x4b44
    4af8:	e3a02000 	mov	r2, #0
    4afc:	e59f0044 	ldr	r0, [pc, #68]	; 0x4b48
    4b00:	e3a0c058 	mov	ip, #88	; 0x58
    4b04:	e5901900 	ldr	r1, [r0, #2304]	; 0x900
    4b08:	e583c920 	str	ip, [r3, #2336]	; 0x920
    4b0c:	e3811d82 	orr	r1, r1, #8320	; 0x2080
    4b10:	e28cc0a2 	add	ip, ip, #162	; 0xa2
    4b14:	e3811002 	orr	r1, r1, #2
    4b18:	e583c920 	str	ip, [r3, #2336]	; 0x920
    4b1c:	e3a0c065 	mov	ip, #101	; 0x65
    4b20:	e583c920 	str	ip, [r3, #2336]	; 0x920
    4b24:	e28cc01e 	add	ip, ip, #30
    4b28:	e583c920 	str	ip, [r3, #2336]	; 0x920
    4b2c:	e5801900 	str	r1, [r0, #2304]	; 0x900
    4b30:	e5832920 	str	r2, [r3, #2336]	; 0x920
    4b34:	e5832920 	str	r2, [r3, #2336]	; 0x920
    4b38:	e5832920 	str	r2, [r3, #2336]	; 0x920
    4b3c:	e5832920 	str	r2, [r3, #2336]	; 0x920
    4b40:	e12fff1e 	bx	lr
    4b44:	1020c000 	eorne	ip, r0, r0
    4b48:	10005000 	andne	r5, r0, r0
    4b4c:	e92d4010 	push	{r4, lr}
    4b50:	ebffef77 	bl	0x934
    4b54:	ebffffe6 	bl	0x4af4
    4b58:	eb00139c 	bl	0x99d0
    4b5c:	e59f001c 	ldr	r0, [pc, #28]	; 0x4b80
    4b60:	e08f0000 	add	r0, pc, r0
    4b64:	eb0011d6 	bl	0x92c4
    4b68:	eb000ebf 	bl	0x866c
    4b6c:	ebfff62d 	bl	0x2428
    4b70:	eb00152b 	bl	0xa024
    4b74:	eb001527 	bl	0xa018
    4b78:	e8bd4010 	pop	{r4, lr}
    4b7c:	ea0017cc 	b	0xaab4
    4b80:	000078e8 	andeq	r7, r0, r8, ror #17
    4b84:	e92d4010 	push	{r4, lr}
    4b88:	e3a01c05 	mov	r1, #1280	; 0x500
    4b8c:	e59f00c0 	ldr	r0, [pc, #192]	; 0x4c54
    4b90:	e08f0000 	add	r0, pc, r0
    4b94:	eb0011ca 	bl	0x92c4
    4b98:	e59f40b8 	ldr	r4, [pc, #184]	; 0x4c58
    4b9c:	e3a02000 	mov	r2, #0
    4ba0:	e08f4004 	add	r4, pc, r4
    4ba4:	e59f30b0 	ldr	r3, [pc, #176]	; 0x4c5c
    4ba8:	e59f10b0 	ldr	r1, [pc, #176]	; 0x4c60
    4bac:	e7943003 	ldr	r3, [r4, r3]
    4bb0:	e7941001 	ldr	r1, [r4, r1]
    4bb4:	e5832000 	str	r2, [r3]
    4bb8:	e5812000 	str	r2, [r1]
    4bbc:	e59f20a0 	ldr	r2, [pc, #160]	; 0x4c64
    4bc0:	e5922174 	ldr	r2, [r2, #372]	; 0x174
    4bc4:	e3120008 	tst	r2, #8
    4bc8:	03002535 	movweq	r2, #1333	; 0x535
    4bcc:	05832000 	streq	r2, [r3]
    4bd0:	0a000008 	beq	0x4bf8
    4bd4:	e59f008c 	ldr	r0, [pc, #140]	; 0x4c68
    4bd8:	e08f0000 	add	r0, pc, r0
    4bdc:	eb0011b8 	bl	0x92c4
    4be0:	e59f0084 	ldr	r0, [pc, #132]	; 0x4c6c
    4be4:	e59f1084 	ldr	r1, [pc, #132]	; 0x4c70
    4be8:	e08f0000 	add	r0, pc, r0
    4bec:	e08f1001 	add	r1, pc, r1
    4bf0:	e3a02064 	mov	r2, #100	; 0x64
    4bf4:	eb0013c3 	bl	0x9b08
    4bf8:	e300242a 	movw	r2, #1066	; 0x42a
    4bfc:	e59f305c 	ldr	r3, [pc, #92]	; 0x4c60
    4c00:	e7943003 	ldr	r3, [r4, r3]
    4c04:	e5832000 	str	r2, [r3]
    4c08:	e59f304c 	ldr	r3, [pc, #76]	; 0x4c5c
    4c0c:	e2822e19 	add	r2, r2, #400	; 0x190
    4c10:	e7943003 	ldr	r3, [r4, r3]
    4c14:	e5933000 	ldr	r3, [r3]
    4c18:	e1530002 	cmp	r3, r2
    4c1c:	08bd8010 	popeq	{r4, pc}
    4c20:	e2422085 	sub	r2, r2, #133	; 0x85
    4c24:	e1530002 	cmp	r3, r2
    4c28:	08bd8010 	popeq	{r4, pc}
    4c2c:	e59f0040 	ldr	r0, [pc, #64]	; 0x4c74
    4c30:	e08f0000 	add	r0, pc, r0
    4c34:	eb0011a2 	bl	0x92c4
    4c38:	e59f0038 	ldr	r0, [pc, #56]	; 0x4c78
    4c3c:	e59f1038 	ldr	r1, [pc, #56]	; 0x4c7c
    4c40:	e08f0000 	add	r0, pc, r0
    4c44:	e08f1001 	add	r1, pc, r1
    4c48:	e3a020ad 	mov	r2, #173	; 0xad
    4c4c:	e8bd4010 	pop	{r4, lr}
    4c50:	ea0013ac 	b	0x9b08
    4c54:	000078d7 	ldrdeq	r7, [r0], -r7	; <UNPREDICTABLE>
    4c58:	0000c464 	andeq	ip, r0, r4, ror #8
    4c5c:	0000004c 	andeq	r0, r0, ip, asr #32
    4c60:	000000c4 	andeq	r0, r0, r4, asr #1
    4c64:	10206000 	eorne	r6, r0, r0
    4c68:	000078ad 	andeq	r7, r0, sp, lsr #17
    4c6c:	00007840 	andeq	r7, r0, r0, asr #16
    4c70:	000078c7 	andeq	r7, r0, r7, asr #17
    4c74:	000078a0 	andeq	r7, r0, r0, lsr #17
    4c78:	000077e8 	andeq	r7, r0, r8, ror #15
    4c7c:	0000786f 	andeq	r7, r0, pc, ror #16
    4c80:	e59fc1d4 	ldr	ip, [pc, #468]	; 0x4e5c
    4c84:	e59f21d4 	ldr	r2, [pc, #468]	; 0x4e60
    4c88:	e59c31e4 	ldr	r3, [ip, #484]	; 0x1e4
    4c8c:	e92d4073 	push	{r0, r1, r4, r5, r6, lr}
    4c90:	e3833c02 	orr	r3, r3, #512	; 0x200
    4c94:	e58c31e4 	str	r3, [ip, #484]	; 0x1e4
    4c98:	e59f31c4 	ldr	r3, [pc, #452]	; 0x4e64
    4c9c:	e59241e4 	ldr	r4, [r2, #484]	; 0x1e4
    4ca0:	e3844c02 	orr	r4, r4, #512	; 0x200
    4ca4:	e58241e4 	str	r4, [r2, #484]	; 0x1e4
    4ca8:	e59341e4 	ldr	r4, [r3, #484]	; 0x1e4
    4cac:	e3844c02 	orr	r4, r4, #512	; 0x200
    4cb0:	e58341e4 	str	r4, [r3, #484]	; 0x1e4
    4cb4:	e3a04000 	mov	r4, #0
    4cb8:	e59c51e4 	ldr	r5, [ip, #484]	; 0x1e4
    4cbc:	e3c55c02 	bic	r5, r5, #512	; 0x200
    4cc0:	e58c51e4 	str	r5, [ip, #484]	; 0x1e4
    4cc4:	e59251e4 	ldr	r5, [r2, #484]	; 0x1e4
    4cc8:	e3c55c02 	bic	r5, r5, #512	; 0x200
    4ccc:	e58251e4 	str	r5, [r2, #484]	; 0x1e4
    4cd0:	e59351e4 	ldr	r5, [r3, #484]	; 0x1e4
    4cd4:	e3c55c02 	bic	r5, r5, #512	; 0x200
    4cd8:	e58351e4 	str	r5, [r3, #484]	; 0x1e4
    4cdc:	e59c60f0 	ldr	r6, [ip, #240]	; 0xf0
    4ce0:	e59250f0 	ldr	r5, [r2, #240]	; 0xf0
    4ce4:	e1865005 	orr	r5, r6, r5
    4ce8:	e59360f0 	ldr	r6, [r3, #240]	; 0xf0
    4cec:	e3855201 	orr	r5, r5, #268435456	; 0x10000000
    4cf0:	e1855006 	orr	r5, r5, r6
    4cf4:	e58c50f0 	str	r5, [ip, #240]	; 0xf0
    4cf8:	e59c60f0 	ldr	r6, [ip, #240]	; 0xf0
    4cfc:	e59250f0 	ldr	r5, [r2, #240]	; 0xf0
    4d00:	e1865005 	orr	r5, r6, r5
    4d04:	e59360f0 	ldr	r6, [r3, #240]	; 0xf0
    4d08:	e3855201 	orr	r5, r5, #268435456	; 0x10000000
    4d0c:	e1855006 	orr	r5, r5, r6
    4d10:	e58250f0 	str	r5, [r2, #240]	; 0xf0
    4d14:	e59c60f0 	ldr	r6, [ip, #240]	; 0xf0
    4d18:	e59250f0 	ldr	r5, [r2, #240]	; 0xf0
    4d1c:	e1865005 	orr	r5, r6, r5
    4d20:	e59360f0 	ldr	r6, [r3, #240]	; 0xf0
    4d24:	e3855201 	orr	r5, r5, #268435456	; 0x10000000
    4d28:	e1855006 	orr	r5, r5, r6
    4d2c:	e58350f0 	str	r5, [r3, #240]	; 0xf0
    4d30:	e59c60f4 	ldr	r6, [ip, #244]	; 0xf4
    4d34:	e59250f4 	ldr	r5, [r2, #244]	; 0xf4
    4d38:	e1865005 	orr	r5, r6, r5
    4d3c:	e59360f4 	ldr	r6, [r3, #244]	; 0xf4
    4d40:	e3855402 	orr	r5, r5, #33554432	; 0x2000000
    4d44:	e1855006 	orr	r5, r5, r6
    4d48:	e58c50f4 	str	r5, [ip, #244]	; 0xf4
    4d4c:	e59c60f4 	ldr	r6, [ip, #244]	; 0xf4
    4d50:	e59250f4 	ldr	r5, [r2, #244]	; 0xf4
    4d54:	e1865005 	orr	r5, r6, r5
    4d58:	e59360f4 	ldr	r6, [r3, #244]	; 0xf4
    4d5c:	e3855402 	orr	r5, r5, #33554432	; 0x2000000
    4d60:	e1855006 	orr	r5, r5, r6
    4d64:	e58250f4 	str	r5, [r2, #244]	; 0xf4
    4d68:	e59c60f4 	ldr	r6, [ip, #244]	; 0xf4
    4d6c:	e59250f4 	ldr	r5, [r2, #244]	; 0xf4
    4d70:	e1865005 	orr	r5, r6, r5
    4d74:	e59360f4 	ldr	r6, [r3, #244]	; 0xf4
    4d78:	e3855402 	orr	r5, r5, #33554432	; 0x2000000
    4d7c:	e1855006 	orr	r5, r5, r6
    4d80:	e58350f4 	str	r5, [r3, #244]	; 0xf4
    4d84:	e3a05ffa 	mov	r5, #1000	; 0x3e8
    4d88:	e1a04005 	mov	r4, r5
    4d8c:	e2544001 	subs	r4, r4, #1
    4d90:	1afffffd 	bne	0x4d8c
    4d94:	e3a04000 	mov	r4, #0
    4d98:	e59c50f0 	ldr	r5, [ip, #240]	; 0xf0
    4d9c:	e59260f0 	ldr	r6, [r2, #240]	; 0xf0
    4da0:	e1865005 	orr	r5, r6, r5
    4da4:	e59360f0 	ldr	r6, [r3, #240]	; 0xf0
    4da8:	e1855006 	orr	r5, r5, r6
    4dac:	e3c55201 	bic	r5, r5, #268435456	; 0x10000000
    4db0:	e58c50f0 	str	r5, [ip, #240]	; 0xf0
    4db4:	e59c50f0 	ldr	r5, [ip, #240]	; 0xf0
    4db8:	e59260f0 	ldr	r6, [r2, #240]	; 0xf0
    4dbc:	e1865005 	orr	r5, r6, r5
    4dc0:	e59360f0 	ldr	r6, [r3, #240]	; 0xf0
    4dc4:	e1855006 	orr	r5, r5, r6
    4dc8:	e3c55201 	bic	r5, r5, #268435456	; 0x10000000
    4dcc:	e58250f0 	str	r5, [r2, #240]	; 0xf0
    4dd0:	e59c50f0 	ldr	r5, [ip, #240]	; 0xf0
    4dd4:	e59260f0 	ldr	r6, [r2, #240]	; 0xf0
    4dd8:	e1865005 	orr	r5, r6, r5
    4ddc:	e59360f0 	ldr	r6, [r3, #240]	; 0xf0
    4de0:	e1855006 	orr	r5, r5, r6
    4de4:	e3c55201 	bic	r5, r5, #268435456	; 0x10000000
    4de8:	e58350f0 	str	r5, [r3, #240]	; 0xf0
    4dec:	e59c50f4 	ldr	r5, [ip, #244]	; 0xf4
    4df0:	e59260f4 	ldr	r6, [r2, #244]	; 0xf4
    4df4:	e1865005 	orr	r5, r6, r5
    4df8:	e59360f4 	ldr	r6, [r3, #244]	; 0xf4
    4dfc:	e1855006 	orr	r5, r5, r6
    4e00:	e3c55402 	bic	r5, r5, #33554432	; 0x2000000
    4e04:	e58c50f4 	str	r5, [ip, #244]	; 0xf4
    4e08:	e59c50f4 	ldr	r5, [ip, #244]	; 0xf4
    4e0c:	e59260f4 	ldr	r6, [r2, #244]	; 0xf4
    4e10:	e1865005 	orr	r5, r6, r5
    4e14:	e59360f4 	ldr	r6, [r3, #244]	; 0xf4
    4e18:	e1855006 	orr	r5, r5, r6
    4e1c:	e3c55402 	bic	r5, r5, #33554432	; 0x2000000
    4e20:	e58250f4 	str	r5, [r2, #244]	; 0xf4
    4e24:	e59cc0f4 	ldr	ip, [ip, #244]	; 0xf4
    4e28:	e59220f4 	ldr	r2, [r2, #244]	; 0xf4
    4e2c:	e182200c 	orr	r2, r2, ip
    4e30:	e593c0f4 	ldr	ip, [r3, #244]	; 0xf4
    4e34:	e182200c 	orr	r2, r2, ip
    4e38:	e3c22402 	bic	r2, r2, #33554432	; 0x2000000
    4e3c:	e58320f4 	str	r2, [r3, #244]	; 0xf4
    4e40:	ea000002 	b	0x4e50
    4e44:	e5903000 	ldr	r3, [r0]
    4e48:	e2844001 	add	r4, r4, #1
    4e4c:	e58d3004 	str	r3, [sp, #4]
    4e50:	e1540001 	cmp	r4, r1
    4e54:	1afffffa 	bne	0x4e44
    4e58:	e8bd807c 	pop	{r2, r3, r4, r5, r6, pc}
    4e5c:	10207000 	eorne	r7, r0, r0
    4e60:	10208000 	eorne	r8, r0, r0
    4e64:	10206000 	eorne	r6, r0, r0
    4e68:	e92d47f0 	push	{r4, r5, r6, r7, r8, r9, sl, lr}
    4e6c:	e1a0a000 	mov	sl, r0
    4e70:	e1a08001 	mov	r8, r1
    4e74:	e1a09002 	mov	r9, r2
    4e78:	e59f7060 	ldr	r7, [pc, #96]	; 0x4ee0
    4e7c:	ebffff7f 	bl	0x4c80
    4e80:	e59f605c 	ldr	r6, [pc, #92]	; 0x4ee4
    4e84:	e59733c0 	ldr	r3, [r7, #960]	; 0x3c0
    4e88:	e59f5058 	ldr	r5, [pc, #88]	; 0x4ee8
    4e8c:	e59643c0 	ldr	r4, [r6, #960]	; 0x3c0
    4e90:	e1844003 	orr	r4, r4, r3
    4e94:	e59533c0 	ldr	r3, [r5, #960]	; 0x3c0
    4e98:	e1844003 	orr	r4, r4, r3
    4e9c:	e59f3048 	ldr	r3, [pc, #72]	; 0x4eec
    4ea0:	e1540003 	cmp	r4, r3
    4ea4:	1a00000b 	bne	0x4ed8
    4ea8:	e1a0000a 	mov	r0, sl
    4eac:	e1a02009 	mov	r2, r9
    4eb0:	e1a01008 	mov	r1, r8
    4eb4:	ebffff71 	bl	0x4c80
    4eb8:	e59733c0 	ldr	r3, [r7, #960]	; 0x3c0
    4ebc:	e59623c0 	ldr	r2, [r6, #960]	; 0x3c0
    4ec0:	e1823003 	orr	r3, r2, r3
    4ec4:	e59523c0 	ldr	r2, [r5, #960]	; 0x3c0
    4ec8:	e1833002 	orr	r3, r3, r2
    4ecc:	e1530004 	cmp	r3, r4
    4ed0:	03a00000 	moveq	r0, #0
    4ed4:	08bd87f0 	popeq	{r4, r5, r6, r7, r8, r9, sl, pc}
    4ed8:	e3e00000 	mvn	r0, #0
    4edc:	e8bd87f0 	pop	{r4, r5, r6, r7, r8, r9, sl, pc}
    4ee0:	10207000 	eorne	r7, r0, r0
    4ee4:	10208000 	eorne	r8, r0, r0
    4ee8:	10206000 	eorne	r6, r0, r0
    4eec:	04040404 	streq	r0, [r4], #-1028	; 0x404
    4ef0:	e92d4070 	push	{r4, r5, r6, lr}
    4ef4:	e3a01001 	mov	r1, #1
    4ef8:	ebffffda 	bl	0x4e68
    4efc:	e59f11b4 	ldr	r1, [pc, #436]	; 0x50b8
    4f00:	e59f21b4 	ldr	r2, [pc, #436]	; 0x50bc
    4f04:	e59131e4 	ldr	r3, [r1, #484]	; 0x1e4
    4f08:	e3833c02 	orr	r3, r3, #512	; 0x200
    4f0c:	e58131e4 	str	r3, [r1, #484]	; 0x1e4
    4f10:	e59f31a8 	ldr	r3, [pc, #424]	; 0x50c0
    4f14:	e592c1e4 	ldr	ip, [r2, #484]	; 0x1e4
    4f18:	e38ccc02 	orr	ip, ip, #512	; 0x200
    4f1c:	e582c1e4 	str	ip, [r2, #484]	; 0x1e4
    4f20:	e593c1e4 	ldr	ip, [r3, #484]	; 0x1e4
    4f24:	e38ccc02 	orr	ip, ip, #512	; 0x200
    4f28:	e583c1e4 	str	ip, [r3, #484]	; 0x1e4
    4f2c:	e3a0c000 	mov	ip, #0
    4f30:	e59141e4 	ldr	r4, [r1, #484]	; 0x1e4
    4f34:	e3c44c02 	bic	r4, r4, #512	; 0x200
    4f38:	e58141e4 	str	r4, [r1, #484]	; 0x1e4
    4f3c:	e59241e4 	ldr	r4, [r2, #484]	; 0x1e4
    4f40:	e3c44c02 	bic	r4, r4, #512	; 0x200
    4f44:	e58241e4 	str	r4, [r2, #484]	; 0x1e4
    4f48:	e59341e4 	ldr	r4, [r3, #484]	; 0x1e4
    4f4c:	e3c44c02 	bic	r4, r4, #512	; 0x200
    4f50:	e58341e4 	str	r4, [r3, #484]	; 0x1e4
    4f54:	e59150f0 	ldr	r5, [r1, #240]	; 0xf0
    4f58:	e59240f0 	ldr	r4, [r2, #240]	; 0xf0
    4f5c:	e1854004 	orr	r4, r5, r4
    4f60:	e59350f0 	ldr	r5, [r3, #240]	; 0xf0
    4f64:	e3844201 	orr	r4, r4, #268435456	; 0x10000000
    4f68:	e1844005 	orr	r4, r4, r5
    4f6c:	e58140f0 	str	r4, [r1, #240]	; 0xf0
    4f70:	e59150f0 	ldr	r5, [r1, #240]	; 0xf0
    4f74:	e59240f0 	ldr	r4, [r2, #240]	; 0xf0
    4f78:	e1854004 	orr	r4, r5, r4
    4f7c:	e59350f0 	ldr	r5, [r3, #240]	; 0xf0
    4f80:	e3844201 	orr	r4, r4, #268435456	; 0x10000000
    4f84:	e1844005 	orr	r4, r4, r5
    4f88:	e58240f0 	str	r4, [r2, #240]	; 0xf0
    4f8c:	e59150f0 	ldr	r5, [r1, #240]	; 0xf0
    4f90:	e59240f0 	ldr	r4, [r2, #240]	; 0xf0
    4f94:	e1854004 	orr	r4, r5, r4
    4f98:	e59350f0 	ldr	r5, [r3, #240]	; 0xf0
    4f9c:	e3844201 	orr	r4, r4, #268435456	; 0x10000000
    4fa0:	e1844005 	orr	r4, r4, r5
    4fa4:	e58340f0 	str	r4, [r3, #240]	; 0xf0
    4fa8:	e59150f4 	ldr	r5, [r1, #244]	; 0xf4
    4fac:	e59240f4 	ldr	r4, [r2, #244]	; 0xf4
    4fb0:	e1854004 	orr	r4, r5, r4
    4fb4:	e59350f4 	ldr	r5, [r3, #244]	; 0xf4
    4fb8:	e3844402 	orr	r4, r4, #33554432	; 0x2000000
    4fbc:	e1844005 	orr	r4, r4, r5
    4fc0:	e58140f4 	str	r4, [r1, #244]	; 0xf4
    4fc4:	e59150f4 	ldr	r5, [r1, #244]	; 0xf4
    4fc8:	e59240f4 	ldr	r4, [r2, #244]	; 0xf4
    4fcc:	e1854004 	orr	r4, r5, r4
    4fd0:	e59350f4 	ldr	r5, [r3, #244]	; 0xf4
    4fd4:	e3844402 	orr	r4, r4, #33554432	; 0x2000000
    4fd8:	e1844005 	orr	r4, r4, r5
    4fdc:	e58240f4 	str	r4, [r2, #244]	; 0xf4
    4fe0:	e59150f4 	ldr	r5, [r1, #244]	; 0xf4
    4fe4:	e59240f4 	ldr	r4, [r2, #244]	; 0xf4
    4fe8:	e1854004 	orr	r4, r5, r4
    4fec:	e59350f4 	ldr	r5, [r3, #244]	; 0xf4
    4ff0:	e3844402 	orr	r4, r4, #33554432	; 0x2000000
    4ff4:	e1844005 	orr	r4, r4, r5
    4ff8:	e58340f4 	str	r4, [r3, #244]	; 0xf4
    4ffc:	e3a04ffa 	mov	r4, #1000	; 0x3e8
    5000:	e1a0c004 	mov	ip, r4
    5004:	e25cc001 	subs	ip, ip, #1
    5008:	1afffffd 	bne	0x5004
    500c:	e591c0f0 	ldr	ip, [r1, #240]	; 0xf0
    5010:	e59240f0 	ldr	r4, [r2, #240]	; 0xf0
    5014:	e184c00c 	orr	ip, r4, ip
    5018:	e59340f0 	ldr	r4, [r3, #240]	; 0xf0
    501c:	e18cc004 	orr	ip, ip, r4
    5020:	e3ccc201 	bic	ip, ip, #268435456	; 0x10000000
    5024:	e581c0f0 	str	ip, [r1, #240]	; 0xf0
    5028:	e591c0f0 	ldr	ip, [r1, #240]	; 0xf0
    502c:	e59240f0 	ldr	r4, [r2, #240]	; 0xf0
    5030:	e184c00c 	orr	ip, r4, ip
    5034:	e59340f0 	ldr	r4, [r3, #240]	; 0xf0
    5038:	e18cc004 	orr	ip, ip, r4
    503c:	e3ccc201 	bic	ip, ip, #268435456	; 0x10000000
    5040:	e582c0f0 	str	ip, [r2, #240]	; 0xf0
    5044:	e591c0f0 	ldr	ip, [r1, #240]	; 0xf0
    5048:	e59240f0 	ldr	r4, [r2, #240]	; 0xf0
    504c:	e184c00c 	orr	ip, r4, ip
    5050:	e59340f0 	ldr	r4, [r3, #240]	; 0xf0
    5054:	e18cc004 	orr	ip, ip, r4
    5058:	e3ccc201 	bic	ip, ip, #268435456	; 0x10000000
    505c:	e583c0f0 	str	ip, [r3, #240]	; 0xf0
    5060:	e591c0f4 	ldr	ip, [r1, #244]	; 0xf4
    5064:	e59240f4 	ldr	r4, [r2, #244]	; 0xf4
    5068:	e184c00c 	orr	ip, r4, ip
    506c:	e59340f4 	ldr	r4, [r3, #244]	; 0xf4
    5070:	e18cc004 	orr	ip, ip, r4
    5074:	e3ccc402 	bic	ip, ip, #33554432	; 0x2000000
    5078:	e581c0f4 	str	ip, [r1, #244]	; 0xf4
    507c:	e591c0f4 	ldr	ip, [r1, #244]	; 0xf4
    5080:	e59240f4 	ldr	r4, [r2, #244]	; 0xf4
    5084:	e184c00c 	orr	ip, r4, ip
    5088:	e59340f4 	ldr	r4, [r3, #244]	; 0xf4
    508c:	e18cc004 	orr	ip, ip, r4
    5090:	e3ccc402 	bic	ip, ip, #33554432	; 0x2000000
    5094:	e582c0f4 	str	ip, [r2, #244]	; 0xf4
    5098:	e59110f4 	ldr	r1, [r1, #244]	; 0xf4
    509c:	e59220f4 	ldr	r2, [r2, #244]	; 0xf4
    50a0:	e1822001 	orr	r2, r2, r1
    50a4:	e59310f4 	ldr	r1, [r3, #244]	; 0xf4
    50a8:	e1822001 	orr	r2, r2, r1
    50ac:	e3c22402 	bic	r2, r2, #33554432	; 0x2000000
    50b0:	e58320f4 	str	r2, [r3, #244]	; 0xf4
    50b4:	e8bd8070 	pop	{r4, r5, r6, pc}
    50b8:	10207000 	eorne	r7, r0, r0
    50bc:	10208000 	eorne	r8, r0, r0
    50c0:	10206000 	eorne	r6, r0, r0
    50c4:	e59f0614 	ldr	r0, [pc, #1556]	; 0x56e0
    50c8:	e59f1614 	ldr	r1, [pc, #1556]	; 0x56e4
    50cc:	e59f3614 	ldr	r3, [pc, #1556]	; 0x56e8
    50d0:	e92d45f0 	push	{r4, r5, r6, r7, r8, sl, lr}
    50d4:	e59040f0 	ldr	r4, [r0, #240]	; 0xf0
    50d8:	e591c0f0 	ldr	ip, [r1, #240]	; 0xf0
    50dc:	e184c00c 	orr	ip, r4, ip
    50e0:	e59340f0 	ldr	r4, [r3, #240]	; 0xf0
    50e4:	e38cc201 	orr	ip, ip, #268435456	; 0x10000000
    50e8:	e18cc004 	orr	ip, ip, r4
    50ec:	e59f45f8 	ldr	r4, [pc, #1528]	; 0x56ec
    50f0:	e580c0f0 	str	ip, [r0, #240]	; 0xf0
    50f4:	e08f4004 	add	r4, pc, r4
    50f8:	e59050f0 	ldr	r5, [r0, #240]	; 0xf0
    50fc:	e591c0f0 	ldr	ip, [r1, #240]	; 0xf0
    5100:	e185c00c 	orr	ip, r5, ip
    5104:	e59350f0 	ldr	r5, [r3, #240]	; 0xf0
    5108:	e38cc201 	orr	ip, ip, #268435456	; 0x10000000
    510c:	e18cc005 	orr	ip, ip, r5
    5110:	e581c0f0 	str	ip, [r1, #240]	; 0xf0
    5114:	e3a0c000 	mov	ip, #0
    5118:	e59060f0 	ldr	r6, [r0, #240]	; 0xf0
    511c:	e59150f0 	ldr	r5, [r1, #240]	; 0xf0
    5120:	e1865005 	orr	r5, r6, r5
    5124:	e59360f0 	ldr	r6, [r3, #240]	; 0xf0
    5128:	e3855201 	orr	r5, r5, #268435456	; 0x10000000
    512c:	e1855006 	orr	r5, r5, r6
    5130:	e58350f0 	str	r5, [r3, #240]	; 0xf0
    5134:	e59060f4 	ldr	r6, [r0, #244]	; 0xf4
    5138:	e59150f4 	ldr	r5, [r1, #244]	; 0xf4
    513c:	e1865005 	orr	r5, r6, r5
    5140:	e59360f4 	ldr	r6, [r3, #244]	; 0xf4
    5144:	e3855402 	orr	r5, r5, #33554432	; 0x2000000
    5148:	e1855006 	orr	r5, r5, r6
    514c:	e58050f4 	str	r5, [r0, #244]	; 0xf4
    5150:	e59060f4 	ldr	r6, [r0, #244]	; 0xf4
    5154:	e59150f4 	ldr	r5, [r1, #244]	; 0xf4
    5158:	e1865005 	orr	r5, r6, r5
    515c:	e59360f4 	ldr	r6, [r3, #244]	; 0xf4
    5160:	e3855402 	orr	r5, r5, #33554432	; 0x2000000
    5164:	e1855006 	orr	r5, r5, r6
    5168:	e58150f4 	str	r5, [r1, #244]	; 0xf4
    516c:	e59060f4 	ldr	r6, [r0, #244]	; 0xf4
    5170:	e59150f4 	ldr	r5, [r1, #244]	; 0xf4
    5174:	e1865005 	orr	r5, r6, r5
    5178:	e59360f4 	ldr	r6, [r3, #244]	; 0xf4
    517c:	e3855402 	orr	r5, r5, #33554432	; 0x2000000
    5180:	e1855006 	orr	r5, r5, r6
    5184:	e58350f4 	str	r5, [r3, #244]	; 0xf4
    5188:	e3a05ffa 	mov	r5, #1000	; 0x3e8
    518c:	e1a0c005 	mov	ip, r5
    5190:	e25cc001 	subs	ip, ip, #1
    5194:	1afffffd 	bne	0x5190
    5198:	e59f5550 	ldr	r5, [pc, #1360]	; 0x56f0
    519c:	e590c0f0 	ldr	ip, [r0, #240]	; 0xf0
    51a0:	e3720003 	cmn	r2, #3
    51a4:	11520005 	cmpne	r2, r5
    51a8:	e59160f0 	ldr	r6, [r1, #240]	; 0xf0
    51ac:	13a05000 	movne	r5, #0
    51b0:	03a05001 	moveq	r5, #1
    51b4:	e186c00c 	orr	ip, r6, ip
    51b8:	e59360f0 	ldr	r6, [r3, #240]	; 0xf0
    51bc:	e18cc006 	orr	ip, ip, r6
    51c0:	e3ccc201 	bic	ip, ip, #268435456	; 0x10000000
    51c4:	e580c0f0 	str	ip, [r0, #240]	; 0xf0
    51c8:	e590c0f0 	ldr	ip, [r0, #240]	; 0xf0
    51cc:	e59160f0 	ldr	r6, [r1, #240]	; 0xf0
    51d0:	e186c00c 	orr	ip, r6, ip
    51d4:	e59360f0 	ldr	r6, [r3, #240]	; 0xf0
    51d8:	e18cc006 	orr	ip, ip, r6
    51dc:	e3ccc201 	bic	ip, ip, #268435456	; 0x10000000
    51e0:	e581c0f0 	str	ip, [r1, #240]	; 0xf0
    51e4:	e590c0f0 	ldr	ip, [r0, #240]	; 0xf0
    51e8:	e59160f0 	ldr	r6, [r1, #240]	; 0xf0
    51ec:	e186c00c 	orr	ip, r6, ip
    51f0:	e59360f0 	ldr	r6, [r3, #240]	; 0xf0
    51f4:	e18cc006 	orr	ip, ip, r6
    51f8:	e3ccc201 	bic	ip, ip, #268435456	; 0x10000000
    51fc:	e583c0f0 	str	ip, [r3, #240]	; 0xf0
    5200:	e590c0f4 	ldr	ip, [r0, #244]	; 0xf4
    5204:	e59160f4 	ldr	r6, [r1, #244]	; 0xf4
    5208:	e186c00c 	orr	ip, r6, ip
    520c:	e59360f4 	ldr	r6, [r3, #244]	; 0xf4
    5210:	e18cc006 	orr	ip, ip, r6
    5214:	e3ccc402 	bic	ip, ip, #33554432	; 0x2000000
    5218:	e580c0f4 	str	ip, [r0, #244]	; 0xf4
    521c:	e590c0f4 	ldr	ip, [r0, #244]	; 0xf4
    5220:	e59160f4 	ldr	r6, [r1, #244]	; 0xf4
    5224:	e186c00c 	orr	ip, r6, ip
    5228:	e59360f4 	ldr	r6, [r3, #244]	; 0xf4
    522c:	e18cc006 	orr	ip, ip, r6
    5230:	e3ccc402 	bic	ip, ip, #33554432	; 0x2000000
    5234:	e581c0f4 	str	ip, [r1, #244]	; 0xf4
    5238:	e590c0f4 	ldr	ip, [r0, #244]	; 0xf4
    523c:	e59160f4 	ldr	r6, [r1, #244]	; 0xf4
    5240:	e186c00c 	orr	ip, r6, ip
    5244:	e59360f4 	ldr	r6, [r3, #244]	; 0xf4
    5248:	e18cc006 	orr	ip, ip, r6
    524c:	e3ccc402 	bic	ip, ip, #33554432	; 0x2000000
    5250:	e583c0f4 	str	ip, [r3, #244]	; 0xf4
    5254:	0a000005 	beq	0x5270
    5258:	e59fc494 	ldr	ip, [pc, #1172]	; 0x56f4
    525c:	e3720001 	cmn	r2, #1
    5260:	1152000c 	cmpne	r2, ip
    5264:	0a000001 	beq	0x5270
    5268:	e3720002 	cmn	r2, #2
    526c:	1a000031 	bne	0x5338
    5270:	e59f0468 	ldr	r0, [pc, #1128]	; 0x56e0
    5274:	e59f1468 	ldr	r1, [pc, #1128]	; 0x56e4
    5278:	e59f3468 	ldr	r3, [pc, #1128]	; 0x56e8
    527c:	e3a0c455 	mov	ip, #1426063360	; 0x55000000
    5280:	e1a08000 	mov	r8, r0
    5284:	e580c03c 	str	ip, [r0, #60]	; 0x3c
    5288:	e1a07001 	mov	r7, r1
    528c:	e581c03c 	str	ip, [r1, #60]	; 0x3c
    5290:	e1a06003 	mov	r6, r3
    5294:	e583c03c 	str	ip, [r3, #60]	; 0x3c
    5298:	e590c040 	ldr	ip, [r0, #64]	; 0x40
    529c:	e591a040 	ldr	sl, [r1, #64]	; 0x40
    52a0:	e18ac00c 	orr	ip, sl, ip
    52a4:	e593a040 	ldr	sl, [r3, #64]	; 0x40
    52a8:	e18cc00a 	orr	ip, ip, sl
    52ac:	e20cc4aa 	and	ip, ip, #-1442840576	; 0xaa000000
    52b0:	e1e0c52c 	mvn	ip, ip, lsr #10
    52b4:	e1e0c50c 	mvn	ip, ip, lsl #10
    52b8:	e580c040 	str	ip, [r0, #64]	; 0x40
    52bc:	e581c040 	str	ip, [r1, #64]	; 0x40
    52c0:	e583c040 	str	ip, [r3, #64]	; 0x40
    52c4:	e590c008 	ldr	ip, [r0, #8]
    52c8:	e38cc102 	orr	ip, ip, #-2147483648	; 0x80000000
    52cc:	e580c008 	str	ip, [r0, #8]
    52d0:	e5910008 	ldr	r0, [r1, #8]
    52d4:	e3800102 	orr	r0, r0, #-2147483648	; 0x80000000
    52d8:	e5810008 	str	r0, [r1, #8]
    52dc:	e5931008 	ldr	r1, [r3, #8]
    52e0:	e3811102 	orr	r1, r1, #-2147483648	; 0x80000000
    52e4:	e5831008 	str	r1, [r3, #8]
    52e8:	e59833fc 	ldr	r3, [r8, #1020]	; 0x3fc
    52ec:	e59f03ec 	ldr	r0, [pc, #1004]	; 0x56e0
    52f0:	e59713fc 	ldr	r1, [r7, #1020]	; 0x3fc
    52f4:	e1813003 	orr	r3, r1, r3
    52f8:	e59613fc 	ldr	r1, [r6, #1020]	; 0x3fc
    52fc:	e1833001 	orr	r3, r3, r1
    5300:	e59f13dc 	ldr	r1, [pc, #988]	; 0x56e4
    5304:	e3130b01 	tst	r3, #1024	; 0x400
    5308:	e59f33d8 	ldr	r3, [pc, #984]	; 0x56e8
    530c:	0afffff5 	beq	0x52e8
    5310:	e590c008 	ldr	ip, [r0, #8]
    5314:	e3ccc102 	bic	ip, ip, #-2147483648	; 0x80000000
    5318:	e580c008 	str	ip, [r0, #8]
    531c:	e591c008 	ldr	ip, [r1, #8]
    5320:	e3ccc102 	bic	ip, ip, #-2147483648	; 0x80000000
    5324:	e581c008 	str	ip, [r1, #8]
    5328:	e593c008 	ldr	ip, [r3, #8]
    532c:	e3ccc102 	bic	ip, ip, #-2147483648	; 0x80000000
    5330:	e583c008 	str	ip, [r3, #8]
    5334:	ea00000d 	b	0x5370
    5338:	e3a0c455 	mov	ip, #1426063360	; 0x55000000
    533c:	e580c03c 	str	ip, [r0, #60]	; 0x3c
    5340:	e581c03c 	str	ip, [r1, #60]	; 0x3c
    5344:	e583c03c 	str	ip, [r3, #60]	; 0x3c
    5348:	e590c040 	ldr	ip, [r0, #64]	; 0x40
    534c:	e5916040 	ldr	r6, [r1, #64]	; 0x40
    5350:	e186c00c 	orr	ip, r6, ip
    5354:	e5936040 	ldr	r6, [r3, #64]	; 0x40
    5358:	e18cc006 	orr	ip, ip, r6
    535c:	e20cc4aa 	and	ip, ip, #-1442840576	; 0xaa000000
    5360:	e38cc010 	orr	ip, ip, #16
    5364:	e580c040 	str	ip, [r0, #64]	; 0x40
    5368:	e581c040 	str	ip, [r1, #64]	; 0x40
    536c:	e583c040 	str	ip, [r3, #64]	; 0x40
    5370:	e590c008 	ldr	ip, [r0, #8]
    5374:	e59f7364 	ldr	r7, [pc, #868]	; 0x56e0
    5378:	e38cc101 	orr	ip, ip, #1073741824	; 0x40000000
    537c:	e59f6360 	ldr	r6, [pc, #864]	; 0x56e4
    5380:	e580c008 	str	ip, [r0, #8]
    5384:	e59fc35c 	ldr	ip, [pc, #860]	; 0x56e8
    5388:	e5910008 	ldr	r0, [r1, #8]
    538c:	e3800101 	orr	r0, r0, #1073741824	; 0x40000000
    5390:	e5810008 	str	r0, [r1, #8]
    5394:	e5931008 	ldr	r1, [r3, #8]
    5398:	e3811101 	orr	r1, r1, #1073741824	; 0x40000000
    539c:	e5831008 	str	r1, [r3, #8]
    53a0:	e59733fc 	ldr	r3, [r7, #1020]	; 0x3fc
    53a4:	e59f0334 	ldr	r0, [pc, #820]	; 0x56e0
    53a8:	e59613fc 	ldr	r1, [r6, #1020]	; 0x3fc
    53ac:	e1813003 	orr	r3, r1, r3
    53b0:	e59c13fc 	ldr	r1, [ip, #1020]	; 0x3fc
    53b4:	e1833001 	orr	r3, r3, r1
    53b8:	e59f1324 	ldr	r1, [pc, #804]	; 0x56e4
    53bc:	e3130b01 	tst	r3, #1024	; 0x400
    53c0:	e59f3320 	ldr	r3, [pc, #800]	; 0x56e8
    53c4:	0afffff5 	beq	0x53a0
    53c8:	e3a0c000 	mov	ip, #0
    53cc:	e3a06e19 	mov	r6, #400	; 0x190
    53d0:	e1a0c006 	mov	ip, r6
    53d4:	e25cc001 	subs	ip, ip, #1
    53d8:	1afffffd 	bne	0x53d4
    53dc:	e3520000 	cmp	r2, #0
    53e0:	0a00001f 	beq	0x5464
    53e4:	e3550000 	cmp	r5, #0
    53e8:	0a00000f 	beq	0x542c
    53ec:	e5905370 	ldr	r5, [r0, #880]	; 0x370
    53f0:	e59fc300 	ldr	ip, [pc, #768]	; 0x56f8
    53f4:	e794c00c 	ldr	ip, [r4, ip]
    53f8:	e5914370 	ldr	r4, [r1, #880]	; 0x370
    53fc:	e59cc000 	ldr	ip, [ip]
    5400:	e1845005 	orr	r5, r4, r5
    5404:	e1a0c18c 	lsl	ip, ip, #3
    5408:	e5934370 	ldr	r4, [r3, #880]	; 0x370
    540c:	e5900010 	ldr	r0, [r0, #16]
    5410:	e1850004 	orr	r0, r5, r4
    5414:	e5911010 	ldr	r1, [r1, #16]
    5418:	e5933010 	ldr	r3, [r3, #16]
    541c:	e3a030ff 	mov	r3, #255	; 0xff
    5420:	e0100c13 	ands	r0, r0, r3, lsl ip
    5424:	1a000010 	bne	0x546c
    5428:	ea00000d 	b	0x5464
    542c:	e590c3fc 	ldr	ip, [r0, #1020]	; 0x3fc
    5430:	e59143fc 	ldr	r4, [r1, #1020]	; 0x3fc
    5434:	e184c00c 	orr	ip, r4, ip
    5438:	e59343fc 	ldr	r4, [r3, #1020]	; 0x3fc
    543c:	e18cc004 	orr	ip, ip, r4
    5440:	e31c0901 	tst	ip, #16384	; 0x4000
    5444:	1a000008 	bne	0x546c
    5448:	e59003fc 	ldr	r0, [r0, #1020]	; 0x3fc
    544c:	e59113fc 	ldr	r1, [r1, #1020]	; 0x3fc
    5450:	e1810000 	orr	r0, r1, r0
    5454:	e59313fc 	ldr	r1, [r3, #1020]	; 0x3fc
    5458:	e1803001 	orr	r3, r0, r1
    545c:	e3130701 	tst	r3, #262144	; 0x40000
    5460:	0a000001 	beq	0x546c
    5464:	e3a00000 	mov	r0, #0
    5468:	ea000000 	b	0x5470
    546c:	e3e00000 	mvn	r0, #0
    5470:	e59fc268 	ldr	ip, [pc, #616]	; 0x56e0
    5474:	e59f1268 	ldr	r1, [pc, #616]	; 0x56e4
    5478:	e59c3008 	ldr	r3, [ip, #8]
    547c:	e3c33103 	bic	r3, r3, #-1073741824	; 0xc0000000
    5480:	e58c3008 	str	r3, [ip, #8]
    5484:	e59f325c 	ldr	r3, [pc, #604]	; 0x56e8
    5488:	e5914008 	ldr	r4, [r1, #8]
    548c:	e3c44103 	bic	r4, r4, #-1073741824	; 0xc0000000
    5490:	e5814008 	str	r4, [r1, #8]
    5494:	e59f4254 	ldr	r4, [pc, #596]	; 0x56f0
    5498:	e3720003 	cmn	r2, #3
    549c:	11520004 	cmpne	r2, r4
    54a0:	e5934008 	ldr	r4, [r3, #8]
    54a4:	e3c44103 	bic	r4, r4, #-1073741824	; 0xc0000000
    54a8:	e5834008 	str	r4, [r3, #8]
    54ac:	0a000003 	beq	0x54c0
    54b0:	e3720001 	cmn	r2, #1
    54b4:	08bd85f0 	popeq	{r4, r5, r6, r7, r8, sl, pc}
    54b8:	e3720002 	cmn	r2, #2
    54bc:	1a000002 	bne	0x54cc
    54c0:	e3500000 	cmp	r0, #0
    54c4:	1a000083 	bne	0x56d8
    54c8:	ea000080 	b	0x56d0
    54cc:	e59c40f0 	ldr	r4, [ip, #240]	; 0xf0
    54d0:	e59120f0 	ldr	r2, [r1, #240]	; 0xf0
    54d4:	e1842002 	orr	r2, r4, r2
    54d8:	e59340f0 	ldr	r4, [r3, #240]	; 0xf0
    54dc:	e3822201 	orr	r2, r2, #268435456	; 0x10000000
    54e0:	e1822004 	orr	r2, r2, r4
    54e4:	e58c20f0 	str	r2, [ip, #240]	; 0xf0
    54e8:	e3a02000 	mov	r2, #0
    54ec:	e59c50f0 	ldr	r5, [ip, #240]	; 0xf0
    54f0:	e59140f0 	ldr	r4, [r1, #240]	; 0xf0
    54f4:	e1854004 	orr	r4, r5, r4
    54f8:	e59350f0 	ldr	r5, [r3, #240]	; 0xf0
    54fc:	e3844201 	orr	r4, r4, #268435456	; 0x10000000
    5500:	e1844005 	orr	r4, r4, r5
    5504:	e58140f0 	str	r4, [r1, #240]	; 0xf0
    5508:	e59c50f0 	ldr	r5, [ip, #240]	; 0xf0
    550c:	e59140f0 	ldr	r4, [r1, #240]	; 0xf0
    5510:	e1854004 	orr	r4, r5, r4
    5514:	e59350f0 	ldr	r5, [r3, #240]	; 0xf0
    5518:	e3844201 	orr	r4, r4, #268435456	; 0x10000000
    551c:	e1844005 	orr	r4, r4, r5
    5520:	e58340f0 	str	r4, [r3, #240]	; 0xf0
    5524:	e59c50f4 	ldr	r5, [ip, #244]	; 0xf4
    5528:	e59140f4 	ldr	r4, [r1, #244]	; 0xf4
    552c:	e1854004 	orr	r4, r5, r4
    5530:	e59350f4 	ldr	r5, [r3, #244]	; 0xf4
    5534:	e3844402 	orr	r4, r4, #33554432	; 0x2000000
    5538:	e1844005 	orr	r4, r4, r5
    553c:	e58c40f4 	str	r4, [ip, #244]	; 0xf4
    5540:	e59c50f4 	ldr	r5, [ip, #244]	; 0xf4
    5544:	e59140f4 	ldr	r4, [r1, #244]	; 0xf4
    5548:	e1854004 	orr	r4, r5, r4
    554c:	e59350f4 	ldr	r5, [r3, #244]	; 0xf4
    5550:	e3844402 	orr	r4, r4, #33554432	; 0x2000000
    5554:	e1844005 	orr	r4, r4, r5
    5558:	e58140f4 	str	r4, [r1, #244]	; 0xf4
    555c:	e59c50f4 	ldr	r5, [ip, #244]	; 0xf4
    5560:	e59140f4 	ldr	r4, [r1, #244]	; 0xf4
    5564:	e1854004 	orr	r4, r5, r4
    5568:	e59350f4 	ldr	r5, [r3, #244]	; 0xf4
    556c:	e3844402 	orr	r4, r4, #33554432	; 0x2000000
    5570:	e1844005 	orr	r4, r4, r5
    5574:	e58340f4 	str	r4, [r3, #244]	; 0xf4
    5578:	e3a04ffa 	mov	r4, #1000	; 0x3e8
    557c:	e1a02004 	mov	r2, r4
    5580:	e2522001 	subs	r2, r2, #1
    5584:	1afffffd 	bne	0x5580
    5588:	e59c20f0 	ldr	r2, [ip, #240]	; 0xf0
    558c:	e3500000 	cmp	r0, #0
    5590:	e59140f0 	ldr	r4, [r1, #240]	; 0xf0
    5594:	e1842002 	orr	r2, r4, r2
    5598:	e59340f0 	ldr	r4, [r3, #240]	; 0xf0
    559c:	e1822004 	orr	r2, r2, r4
    55a0:	e3c22201 	bic	r2, r2, #268435456	; 0x10000000
    55a4:	e58c20f0 	str	r2, [ip, #240]	; 0xf0
    55a8:	e59c20f0 	ldr	r2, [ip, #240]	; 0xf0
    55ac:	e59140f0 	ldr	r4, [r1, #240]	; 0xf0
    55b0:	e1842002 	orr	r2, r4, r2
    55b4:	e59340f0 	ldr	r4, [r3, #240]	; 0xf0
    55b8:	e1822004 	orr	r2, r2, r4
    55bc:	e3c22201 	bic	r2, r2, #268435456	; 0x10000000
    55c0:	e58120f0 	str	r2, [r1, #240]	; 0xf0
    55c4:	e59c20f0 	ldr	r2, [ip, #240]	; 0xf0
    55c8:	e59140f0 	ldr	r4, [r1, #240]	; 0xf0
    55cc:	e1842002 	orr	r2, r4, r2
    55d0:	e59340f0 	ldr	r4, [r3, #240]	; 0xf0
    55d4:	e1822004 	orr	r2, r2, r4
    55d8:	e3c22201 	bic	r2, r2, #268435456	; 0x10000000
    55dc:	e58320f0 	str	r2, [r3, #240]	; 0xf0
    55e0:	e59c20f4 	ldr	r2, [ip, #244]	; 0xf4
    55e4:	e59140f4 	ldr	r4, [r1, #244]	; 0xf4
    55e8:	e1842002 	orr	r2, r4, r2
    55ec:	e59340f4 	ldr	r4, [r3, #244]	; 0xf4
    55f0:	e1822004 	orr	r2, r2, r4
    55f4:	e3c22402 	bic	r2, r2, #33554432	; 0x2000000
    55f8:	e58c20f4 	str	r2, [ip, #244]	; 0xf4
    55fc:	e59c20f4 	ldr	r2, [ip, #244]	; 0xf4
    5600:	e59140f4 	ldr	r4, [r1, #244]	; 0xf4
    5604:	e1842002 	orr	r2, r4, r2
    5608:	e59340f4 	ldr	r4, [r3, #244]	; 0xf4
    560c:	e1822004 	orr	r2, r2, r4
    5610:	e3c22402 	bic	r2, r2, #33554432	; 0x2000000
    5614:	e58120f4 	str	r2, [r1, #244]	; 0xf4
    5618:	e59c20f4 	ldr	r2, [ip, #244]	; 0xf4
    561c:	e59140f4 	ldr	r4, [r1, #244]	; 0xf4
    5620:	e1842002 	orr	r2, r4, r2
    5624:	e59340f4 	ldr	r4, [r3, #244]	; 0xf4
    5628:	e1822004 	orr	r2, r2, r4
    562c:	e3c22402 	bic	r2, r2, #33554432	; 0x2000000
    5630:	e58320f4 	str	r2, [r3, #244]	; 0xf4
    5634:	1a00000e 	bne	0x5674
    5638:	e59c23c0 	ldr	r2, [ip, #960]	; 0x3c0
    563c:	e59143c0 	ldr	r4, [r1, #960]	; 0x3c0
    5640:	e1842002 	orr	r2, r4, r2
    5644:	e59343c0 	ldr	r4, [r3, #960]	; 0x3c0
    5648:	e1822004 	orr	r2, r2, r4
    564c:	e59f40a8 	ldr	r4, [pc, #168]	; 0x56fc
    5650:	e1520004 	cmp	r2, r4
    5654:	1a000006 	bne	0x5674
    5658:	e59cc3c4 	ldr	ip, [ip, #964]	; 0x3c4
    565c:	e59113c4 	ldr	r1, [r1, #964]	; 0x3c4
    5660:	e181c00c 	orr	ip, r1, ip
    5664:	e59313c4 	ldr	r1, [r3, #964]	; 0x3c4
    5668:	e18c3001 	orr	r3, ip, r1
    566c:	e1530002 	cmp	r3, r2
    5670:	0a000000 	beq	0x5678
    5674:	e3e00000 	mvn	r0, #0
    5678:	e59f1060 	ldr	r1, [pc, #96]	; 0x56e0
    567c:	e59f2060 	ldr	r2, [pc, #96]	; 0x56e4
    5680:	e59131e4 	ldr	r3, [r1, #484]	; 0x1e4
    5684:	e3833c02 	orr	r3, r3, #512	; 0x200
    5688:	e58131e4 	str	r3, [r1, #484]	; 0x1e4
    568c:	e59f3054 	ldr	r3, [pc, #84]	; 0x56e8
    5690:	e592c1e4 	ldr	ip, [r2, #484]	; 0x1e4
    5694:	e38ccc02 	orr	ip, ip, #512	; 0x200
    5698:	e582c1e4 	str	ip, [r2, #484]	; 0x1e4
    569c:	e593c1e4 	ldr	ip, [r3, #484]	; 0x1e4
    56a0:	e38ccc02 	orr	ip, ip, #512	; 0x200
    56a4:	e583c1e4 	str	ip, [r3, #484]	; 0x1e4
    56a8:	e591c1e4 	ldr	ip, [r1, #484]	; 0x1e4
    56ac:	e3cccc02 	bic	ip, ip, #512	; 0x200
    56b0:	e581c1e4 	str	ip, [r1, #484]	; 0x1e4
    56b4:	e59211e4 	ldr	r1, [r2, #484]	; 0x1e4
    56b8:	e3c11c02 	bic	r1, r1, #512	; 0x200
    56bc:	e58211e4 	str	r1, [r2, #484]	; 0x1e4
    56c0:	e59321e4 	ldr	r2, [r3, #484]	; 0x1e4
    56c4:	e3c22c02 	bic	r2, r2, #512	; 0x200
    56c8:	e58321e4 	str	r2, [r3, #484]	; 0x1e4
    56cc:	e8bd85f0 	pop	{r4, r5, r6, r7, r8, sl, pc}
    56d0:	e3a00003 	mov	r0, #3
    56d4:	e8bd85f0 	pop	{r4, r5, r6, r7, r8, sl, pc}
    56d8:	e3a00004 	mov	r0, #4
    56dc:	e8bd85f0 	pop	{r4, r5, r6, r7, r8, sl, pc}
    56e0:	10207000 	eorne	r7, r0, r0
    56e4:	10208000 	eorne	r8, r0, r0
    56e8:	10206000 	eorne	r6, r0, r0
    56ec:	0000bf10 	andeq	fp, r0, r0, lsl pc
    56f0:	eeeeeeee 	cdp	14, 14, cr14, cr14, cr14, {7}
    56f4:	eeeeeee0 	cdp	14, 14, cr14, cr14, cr0, {7}
    56f8:	000000a8 	andeq	r0, r0, r8, lsr #1
    56fc:	40404040 	submi	r4, r0, r0, asr #32
    5700:	e12fff1e 	bx	lr
    5704:	e59f1050 	ldr	r1, [pc, #80]	; 0x575c
    5708:	e59f2050 	ldr	r2, [pc, #80]	; 0x5760
    570c:	e59131e4 	ldr	r3, [r1, #484]	; 0x1e4
    5710:	e3833c02 	orr	r3, r3, #512	; 0x200
    5714:	e58131e4 	str	r3, [r1, #484]	; 0x1e4
    5718:	e59f3044 	ldr	r3, [pc, #68]	; 0x5764
    571c:	e59201e4 	ldr	r0, [r2, #484]	; 0x1e4
    5720:	e3800c02 	orr	r0, r0, #512	; 0x200
    5724:	e58201e4 	str	r0, [r2, #484]	; 0x1e4
    5728:	e59301e4 	ldr	r0, [r3, #484]	; 0x1e4
    572c:	e3800c02 	orr	r0, r0, #512	; 0x200
    5730:	e58301e4 	str	r0, [r3, #484]	; 0x1e4
    5734:	e59101e4 	ldr	r0, [r1, #484]	; 0x1e4
    5738:	e3c00c02 	bic	r0, r0, #512	; 0x200
    573c:	e58101e4 	str	r0, [r1, #484]	; 0x1e4
    5740:	e59211e4 	ldr	r1, [r2, #484]	; 0x1e4
    5744:	e3c11c02 	bic	r1, r1, #512	; 0x200
    5748:	e58211e4 	str	r1, [r2, #484]	; 0x1e4
    574c:	e59321e4 	ldr	r2, [r3, #484]	; 0x1e4
    5750:	e3c22c02 	bic	r2, r2, #512	; 0x200
    5754:	e58321e4 	str	r2, [r3, #484]	; 0x1e4
    5758:	e12fff1e 	bx	lr
    575c:	10207000 	eorne	r7, r0, r0
    5760:	10208000 	eorne	r8, r0, r0
    5764:	10206000 	eorne	r6, r0, r0
    5768:	e12fff1e 	bx	lr
    576c:	e12fff1e 	bx	lr
    5770:	e92d41f0 	push	{r4, r5, r6, r7, r8, lr}
    5774:	eb000d90 	bl	0x8dbc
    5778:	e59f109c 	ldr	r1, [pc, #156]	; 0x581c
    577c:	e200007f 	and	r0, r0, #127	; 0x7f
    5780:	e591c094 	ldr	ip, [r1, #148]	; 0x94
    5784:	e59f2094 	ldr	r2, [pc, #148]	; 0x5820
    5788:	e59f3094 	ldr	r3, [pc, #148]	; 0x5824
    578c:	e5926094 	ldr	r6, [r2, #148]	; 0x94
    5790:	e1a05400 	lsl	r5, r0, #8
    5794:	e1a04800 	lsl	r4, r0, #16
    5798:	e186600c 	orr	r6, r6, ip
    579c:	e593c094 	ldr	ip, [r3, #148]	; 0x94
    57a0:	e186600c 	orr	r6, r6, ip
    57a4:	e1a0cc00 	lsl	ip, r0, #24
    57a8:	e2066102 	and	r6, r6, #-2147483648	; 0x80000000
    57ac:	e1806006 	orr	r6, r0, r6
    57b0:	e1866005 	orr	r6, r6, r5
    57b4:	e1866004 	orr	r6, r6, r4
    57b8:	e186600c 	orr	r6, r6, ip
    57bc:	e5816094 	str	r6, [r1, #148]	; 0x94
    57c0:	e5916094 	ldr	r6, [r1, #148]	; 0x94
    57c4:	e5927094 	ldr	r7, [r2, #148]	; 0x94
    57c8:	e1876006 	orr	r6, r7, r6
    57cc:	e5937094 	ldr	r7, [r3, #148]	; 0x94
    57d0:	e1866007 	orr	r6, r6, r7
    57d4:	e2066102 	and	r6, r6, #-2147483648	; 0x80000000
    57d8:	e1806006 	orr	r6, r0, r6
    57dc:	e1866005 	orr	r6, r6, r5
    57e0:	e1866004 	orr	r6, r6, r4
    57e4:	e186600c 	orr	r6, r6, ip
    57e8:	e5826094 	str	r6, [r2, #148]	; 0x94
    57ec:	e5911094 	ldr	r1, [r1, #148]	; 0x94
    57f0:	e5922094 	ldr	r2, [r2, #148]	; 0x94
    57f4:	e1822001 	orr	r2, r2, r1
    57f8:	e5931094 	ldr	r1, [r3, #148]	; 0x94
    57fc:	e1822001 	orr	r2, r2, r1
    5800:	e2022102 	and	r2, r2, #-2147483648	; 0x80000000
    5804:	e1800002 	orr	r0, r0, r2
    5808:	e1805005 	orr	r5, r0, r5
    580c:	e1854004 	orr	r4, r5, r4
    5810:	e184c00c 	orr	ip, r4, ip
    5814:	e583c094 	str	ip, [r3, #148]	; 0x94
    5818:	e8bd81f0 	pop	{r4, r5, r6, r7, r8, pc}
    581c:	10207000 	eorne	r7, r0, r0
    5820:	10208000 	eorne	r8, r0, r0
    5824:	10206000 	eorne	r6, r0, r0
    5828:	e92d41f0 	push	{r4, r5, r6, r7, r8, lr}
    582c:	eb000d62 	bl	0x8dbc
    5830:	e59f109c 	ldr	r1, [pc, #156]	; 0x58d4
    5834:	e200007f 	and	r0, r0, #127	; 0x7f
    5838:	e591c098 	ldr	ip, [r1, #152]	; 0x98
    583c:	e59f2094 	ldr	r2, [pc, #148]	; 0x58d8
    5840:	e59f3094 	ldr	r3, [pc, #148]	; 0x58dc
    5844:	e5926098 	ldr	r6, [r2, #152]	; 0x98
    5848:	e1a05400 	lsl	r5, r0, #8
    584c:	e1a04800 	lsl	r4, r0, #16
    5850:	e186600c 	orr	r6, r6, ip
    5854:	e593c098 	ldr	ip, [r3, #152]	; 0x98
    5858:	e186600c 	orr	r6, r6, ip
    585c:	e1a0cc00 	lsl	ip, r0, #24
    5860:	e2066102 	and	r6, r6, #-2147483648	; 0x80000000
    5864:	e1806006 	orr	r6, r0, r6
    5868:	e1866005 	orr	r6, r6, r5
    586c:	e1866004 	orr	r6, r6, r4
    5870:	e186600c 	orr	r6, r6, ip
    5874:	e5816098 	str	r6, [r1, #152]	; 0x98
    5878:	e5916098 	ldr	r6, [r1, #152]	; 0x98
    587c:	e5927098 	ldr	r7, [r2, #152]	; 0x98
    5880:	e1876006 	orr	r6, r7, r6
    5884:	e5937098 	ldr	r7, [r3, #152]	; 0x98
    5888:	e1866007 	orr	r6, r6, r7
    588c:	e2066102 	and	r6, r6, #-2147483648	; 0x80000000
    5890:	e1806006 	orr	r6, r0, r6
    5894:	e1866005 	orr	r6, r6, r5
    5898:	e1866004 	orr	r6, r6, r4
    589c:	e186600c 	orr	r6, r6, ip
    58a0:	e5826098 	str	r6, [r2, #152]	; 0x98
    58a4:	e5911098 	ldr	r1, [r1, #152]	; 0x98
    58a8:	e5922098 	ldr	r2, [r2, #152]	; 0x98
    58ac:	e1822001 	orr	r2, r2, r1
    58b0:	e5931098 	ldr	r1, [r3, #152]	; 0x98
    58b4:	e1822001 	orr	r2, r2, r1
    58b8:	e2022102 	and	r2, r2, #-2147483648	; 0x80000000
    58bc:	e1800002 	orr	r0, r0, r2
    58c0:	e1805005 	orr	r5, r0, r5
    58c4:	e1854004 	orr	r4, r5, r4
    58c8:	e184c00c 	orr	ip, r4, ip
    58cc:	e583c098 	str	ip, [r3, #152]	; 0x98
    58d0:	e8bd81f0 	pop	{r4, r5, r6, r7, r8, pc}
    58d4:	10207000 	eorne	r7, r0, r0
    58d8:	10208000 	eorne	r8, r0, r0
    58dc:	10206000 	eorne	r6, r0, r0
    58e0:	e92d4070 	push	{r4, r5, r6, lr}
    58e4:	eb000d34 	bl	0x8dbc
    58e8:	e59f10e4 	ldr	r1, [pc, #228]	; 0x59d4
    58ec:	e59f20e4 	ldr	r2, [pc, #228]	; 0x59d8
    58f0:	e59140e0 	ldr	r4, [r1, #224]	; 0xe0
    58f4:	e59f30e0 	ldr	r3, [pc, #224]	; 0x59dc
    58f8:	e59250e0 	ldr	r5, [r2, #224]	; 0xe0
    58fc:	e200c003 	and	ip, r0, #3
    5900:	e1855004 	orr	r5, r5, r4
    5904:	e7e20150 	ubfx	r0, r0, #2, #3
    5908:	e59340e0 	ldr	r4, [r3, #224]	; 0xe0
    590c:	e1a00c00 	lsl	r0, r0, #24
    5910:	e1855004 	orr	r5, r5, r4
    5914:	e1a0420c 	lsl	r4, ip, #4
    5918:	e3c55407 	bic	r5, r5, #117440512	; 0x7000000
    591c:	e1805005 	orr	r5, r0, r5
    5920:	e58150e0 	str	r5, [r1, #224]	; 0xe0
    5924:	e59150e0 	ldr	r5, [r1, #224]	; 0xe0
    5928:	e59260e0 	ldr	r6, [r2, #224]	; 0xe0
    592c:	e1865005 	orr	r5, r6, r5
    5930:	e59360e0 	ldr	r6, [r3, #224]	; 0xe0
    5934:	e1855006 	orr	r5, r5, r6
    5938:	e3c55407 	bic	r5, r5, #117440512	; 0x7000000
    593c:	e1805005 	orr	r5, r0, r5
    5940:	e58250e0 	str	r5, [r2, #224]	; 0xe0
    5944:	e59150e0 	ldr	r5, [r1, #224]	; 0xe0
    5948:	e59260e0 	ldr	r6, [r2, #224]	; 0xe0
    594c:	e1865005 	orr	r5, r6, r5
    5950:	e59360e0 	ldr	r6, [r3, #224]	; 0xe0
    5954:	e1855006 	orr	r5, r5, r6
    5958:	e3c55407 	bic	r5, r5, #117440512	; 0x7000000
    595c:	e1800005 	orr	r0, r0, r5
    5960:	e58300e0 	str	r0, [r3, #224]	; 0xe0
    5964:	e5910124 	ldr	r0, [r1, #292]	; 0x124
    5968:	e5925124 	ldr	r5, [r2, #292]	; 0x124
    596c:	e1850000 	orr	r0, r5, r0
    5970:	e5935124 	ldr	r5, [r3, #292]	; 0x124
    5974:	e1800005 	orr	r0, r0, r5
    5978:	e3c00033 	bic	r0, r0, #51	; 0x33
    597c:	e18c0000 	orr	r0, ip, r0
    5980:	e1800004 	orr	r0, r0, r4
    5984:	e5810124 	str	r0, [r1, #292]	; 0x124
    5988:	e5910124 	ldr	r0, [r1, #292]	; 0x124
    598c:	e5925124 	ldr	r5, [r2, #292]	; 0x124
    5990:	e1850000 	orr	r0, r5, r0
    5994:	e5935124 	ldr	r5, [r3, #292]	; 0x124
    5998:	e1800005 	orr	r0, r0, r5
    599c:	e3c00033 	bic	r0, r0, #51	; 0x33
    59a0:	e18c0000 	orr	r0, ip, r0
    59a4:	e1800004 	orr	r0, r0, r4
    59a8:	e5820124 	str	r0, [r2, #292]	; 0x124
    59ac:	e5911124 	ldr	r1, [r1, #292]	; 0x124
    59b0:	e5922124 	ldr	r2, [r2, #292]	; 0x124
    59b4:	e1822001 	orr	r2, r2, r1
    59b8:	e5931124 	ldr	r1, [r3, #292]	; 0x124
    59bc:	e1822001 	orr	r2, r2, r1
    59c0:	e3c22033 	bic	r2, r2, #51	; 0x33
    59c4:	e18cc002 	orr	ip, ip, r2
    59c8:	e18c4004 	orr	r4, ip, r4
    59cc:	e5834124 	str	r4, [r3, #292]	; 0x124
    59d0:	e8bd8070 	pop	{r4, r5, r6, pc}
    59d4:	10207000 	eorne	r7, r0, r0
    59d8:	10208000 	eorne	r8, r0, r0
    59dc:	10206000 	eorne	r6, r0, r0
    59e0:	e92d4070 	push	{r4, r5, r6, lr}
    59e4:	eb000cf4 	bl	0x8dbc
    59e8:	e59f10dc 	ldr	r1, [pc, #220]	; 0x5acc
    59ec:	e59f20dc 	ldr	r2, [pc, #220]	; 0x5ad0
    59f0:	e591c118 	ldr	ip, [r1, #280]	; 0x118
    59f4:	e59f30d8 	ldr	r3, [pc, #216]	; 0x5ad4
    59f8:	e5925118 	ldr	r5, [r2, #280]	; 0x118
    59fc:	e2004003 	and	r4, r0, #3
    5a00:	e185500c 	orr	r5, r5, ip
    5a04:	e593c118 	ldr	ip, [r3, #280]	; 0x118
    5a08:	e185500c 	orr	r5, r5, ip
    5a0c:	e7e2c150 	ubfx	ip, r0, #2, #3
    5a10:	e3c55007 	bic	r5, r5, #7
    5a14:	e1a00300 	lsl	r0, r0, #6
    5a18:	e18c5005 	orr	r5, ip, r5
    5a1c:	e20000ff 	and	r0, r0, #255	; 0xff
    5a20:	e5815118 	str	r5, [r1, #280]	; 0x118
    5a24:	e1800104 	orr	r0, r0, r4, lsl #2
    5a28:	e5914118 	ldr	r4, [r1, #280]	; 0x118
    5a2c:	e5925118 	ldr	r5, [r2, #280]	; 0x118
    5a30:	e1854004 	orr	r4, r5, r4
    5a34:	e5935118 	ldr	r5, [r3, #280]	; 0x118
    5a38:	e1844005 	orr	r4, r4, r5
    5a3c:	e3c44007 	bic	r4, r4, #7
    5a40:	e18c4004 	orr	r4, ip, r4
    5a44:	e5824118 	str	r4, [r2, #280]	; 0x118
    5a48:	e5914118 	ldr	r4, [r1, #280]	; 0x118
    5a4c:	e5925118 	ldr	r5, [r2, #280]	; 0x118
    5a50:	e1854004 	orr	r4, r5, r4
    5a54:	e5935118 	ldr	r5, [r3, #280]	; 0x118
    5a58:	e1844005 	orr	r4, r4, r5
    5a5c:	e3c44007 	bic	r4, r4, #7
    5a60:	e18cc004 	orr	ip, ip, r4
    5a64:	e583c118 	str	ip, [r3, #280]	; 0x118
    5a68:	e591c124 	ldr	ip, [r1, #292]	; 0x124
    5a6c:	e5924124 	ldr	r4, [r2, #292]	; 0x124
    5a70:	e184c00c 	orr	ip, r4, ip
    5a74:	e5934124 	ldr	r4, [r3, #292]	; 0x124
    5a78:	e18cc004 	orr	ip, ip, r4
    5a7c:	e3ccc0cc 	bic	ip, ip, #204	; 0xcc
    5a80:	e180c00c 	orr	ip, r0, ip
    5a84:	e581c124 	str	ip, [r1, #292]	; 0x124
    5a88:	e591c124 	ldr	ip, [r1, #292]	; 0x124
    5a8c:	e5924124 	ldr	r4, [r2, #292]	; 0x124
    5a90:	e184c00c 	orr	ip, r4, ip
    5a94:	e5934124 	ldr	r4, [r3, #292]	; 0x124
    5a98:	e18cc004 	orr	ip, ip, r4
    5a9c:	e3ccc0cc 	bic	ip, ip, #204	; 0xcc
    5aa0:	e180c00c 	orr	ip, r0, ip
    5aa4:	e582c124 	str	ip, [r2, #292]	; 0x124
    5aa8:	e5911124 	ldr	r1, [r1, #292]	; 0x124
    5aac:	e5922124 	ldr	r2, [r2, #292]	; 0x124
    5ab0:	e1822001 	orr	r2, r2, r1
    5ab4:	e5931124 	ldr	r1, [r3, #292]	; 0x124
    5ab8:	e1822001 	orr	r2, r2, r1
    5abc:	e3c220cc 	bic	r2, r2, #204	; 0xcc
    5ac0:	e1800002 	orr	r0, r0, r2
    5ac4:	e5830124 	str	r0, [r3, #292]	; 0x124
    5ac8:	e8bd8070 	pop	{r4, r5, r6, pc}
    5acc:	10207000 	eorne	r7, r0, r0
    5ad0:	10208000 	eorne	r8, r0, r0
    5ad4:	10206000 	eorne	r6, r0, r0
    5ad8:	e92d000f 	push	{r0, r1, r2, r3}
    5adc:	e59f302c 	ldr	r3, [pc, #44]	; 0x5b10
    5ae0:	e59f202c 	ldr	r2, [pc, #44]	; 0x5b14
    5ae4:	e08f3003 	add	r3, pc, r3
    5ae8:	e92d4010 	push	{r4, lr}
    5aec:	e7933002 	ldr	r3, [r3, r2]
    5af0:	e5933000 	ldr	r3, [r3]
    5af4:	e3530001 	cmp	r3, #1
    5af8:	1a000001 	bne	0x5b04
    5afc:	e59d0008 	ldr	r0, [sp, #8]
    5b00:	eb000def 	bl	0x92c4
    5b04:	e8bd4010 	pop	{r4, lr}
    5b08:	e28dd010 	add	sp, sp, #16
    5b0c:	e12fff1e 	bx	lr
    5b10:	0000b520 	andeq	fp, r0, r0, lsr #10
    5b14:	000000c8 	andeq	r0, r0, r8, asr #1
    5b18:	e92d41f0 	push	{r4, r5, r6, r7, r8, lr}
    5b1c:	e3a01000 	mov	r1, #0
    5b20:	e59f43b4 	ldr	r4, [pc, #948]	; 0x5edc
    5b24:	e59f23b4 	ldr	r2, [pc, #948]	; 0x5ee0
    5b28:	e08f4004 	add	r4, pc, r4
    5b2c:	e08f2002 	add	r2, pc, r2
    5b30:	e1a08000 	mov	r8, r0
    5b34:	e1a06002 	mov	r6, r2
    5b38:	e5821000 	str	r1, [r2]
    5b3c:	e5821004 	str	r1, [r2, #4]
    5b40:	e1a03001 	mov	r3, r1
    5b44:	e2822008 	add	r2, r2, #8
    5b48:	e1a07001 	mov	r7, r1
    5b4c:	e7827003 	str	r7, [r2, r3]
    5b50:	e2833004 	add	r3, r3, #4
    5b54:	e3530080 	cmp	r3, #128	; 0x80
    5b58:	1afffffb 	bne	0x5b4c
    5b5c:	e1a01007 	mov	r1, r7
    5b60:	e3a0200c 	mov	r2, #12
    5b64:	e2860088 	add	r0, r6, #136	; 0x88
    5b68:	eb000ec7 	bl	0x968c
    5b6c:	e1a01007 	mov	r1, r7
    5b70:	e3a0200c 	mov	r2, #12
    5b74:	e2860094 	add	r0, r6, #148	; 0x94
    5b78:	eb000ec3 	bl	0x968c
    5b7c:	e59fe360 	ldr	lr, [pc, #864]	; 0x5ee4
    5b80:	e59fc360 	ldr	ip, [pc, #864]	; 0x5ee8
    5b84:	e1a02008 	mov	r2, r8
    5b88:	e59f335c 	ldr	r3, [pc, #860]	; 0x5eec
    5b8c:	e3a00001 	mov	r0, #1
    5b90:	e7941003 	ldr	r1, [r4, r3]
    5b94:	e59e30e0 	ldr	r3, [lr, #224]	; 0xe0
    5b98:	e3833201 	orr	r3, r3, #268435456	; 0x10000000
    5b9c:	e58e30e0 	str	r3, [lr, #224]	; 0xe0
    5ba0:	e59f3348 	ldr	r3, [pc, #840]	; 0x5ef0
    5ba4:	e59c80e0 	ldr	r8, [ip, #224]	; 0xe0
    5ba8:	e3888201 	orr	r8, r8, #268435456	; 0x10000000
    5bac:	e58c80e0 	str	r8, [ip, #224]	; 0xe0
    5bb0:	e59380e0 	ldr	r8, [r3, #224]	; 0xe0
    5bb4:	e3888201 	orr	r8, r8, #268435456	; 0x10000000
    5bb8:	e58380e0 	str	r8, [r3, #224]	; 0xe0
    5bbc:	e59e81e4 	ldr	r8, [lr, #484]	; 0x1e4
    5bc0:	e3888c01 	orr	r8, r8, #256	; 0x100
    5bc4:	e58e81e4 	str	r8, [lr, #484]	; 0x1e4
    5bc8:	e59ce1e4 	ldr	lr, [ip, #484]	; 0x1e4
    5bcc:	e38eec01 	orr	lr, lr, #256	; 0x100
    5bd0:	e58ce1e4 	str	lr, [ip, #484]	; 0x1e4
    5bd4:	e593c1e4 	ldr	ip, [r3, #484]	; 0x1e4
    5bd8:	e38ccc01 	orr	ip, ip, #256	; 0x100
    5bdc:	e583c1e4 	str	ip, [r3, #484]	; 0x1e4
    5be0:	ebffee78 	bl	0x15c8
    5be4:	e2866008 	add	r6, r6, #8
    5be8:	e1a03007 	mov	r3, r7
    5bec:	e3a00001 	mov	r0, #1
    5bf0:	e3a02000 	mov	r2, #0
    5bf4:	e796c103 	ldr	ip, [r6, r3, lsl #2]
    5bf8:	e1a01002 	mov	r1, r2
    5bfc:	e01ce110 	ands	lr, ip, r0, lsl r1
    5c00:	e2811001 	add	r1, r1, #1
    5c04:	12822001 	addne	r2, r2, #1
    5c08:	e3510020 	cmp	r1, #32
    5c0c:	1afffffa 	bne	0x5bfc
    5c10:	e1520007 	cmp	r2, r7
    5c14:	c1a05003 	movgt	r5, r3
    5c18:	c1a07002 	movgt	r7, r2
    5c1c:	e2833001 	add	r3, r3, #1
    5c20:	e3530020 	cmp	r3, #32
    5c24:	1afffff1 	bne	0x5bf0
    5c28:	e59f32c4 	ldr	r3, [pc, #708]	; 0x5ef4
    5c2c:	e3a06000 	mov	r6, #0
    5c30:	e08f3003 	add	r3, pc, r3
    5c34:	e3a01001 	mov	r1, #1
    5c38:	e0833105 	add	r3, r3, r5, lsl #2
    5c3c:	e5932008 	ldr	r2, [r3, #8]
    5c40:	e1a03006 	mov	r3, r6
    5c44:	e0120311 	ands	r0, r2, r1, lsl r3
    5c48:	e2833001 	add	r3, r3, #1
    5c4c:	12866001 	addne	r6, r6, #1
    5c50:	e3530020 	cmp	r3, #32
    5c54:	1afffffa 	bne	0x5c44
    5c58:	e3560000 	cmp	r6, #0
    5c5c:	0a000034 	beq	0x5d34
    5c60:	e3a03000 	mov	r3, #0
    5c64:	e3a01001 	mov	r1, #1
    5c68:	e012e311 	ands	lr, r2, r1, lsl r3
    5c6c:	1a000003 	bne	0x5c80
    5c70:	e2833001 	add	r3, r3, #1
    5c74:	e3530020 	cmp	r3, #32
    5c78:	1afffffa 	bne	0x5c68
    5c7c:	e3e03000 	mvn	r3, #0
    5c80:	e08360c6 	add	r6, r3, r6, asr #1
    5c84:	e59f226c 	ldr	r2, [pc, #620]	; 0x5ef8
    5c88:	e59f326c 	ldr	r3, [pc, #620]	; 0x5efc
    5c8c:	e7943003 	ldr	r3, [r4, r3]
    5c90:	e5933000 	ldr	r3, [r3]
    5c94:	e3530000 	cmp	r3, #0
    5c98:	e59f3260 	ldr	r3, [pc, #608]	; 0x5f00
    5c9c:	1a000008 	bne	0x5cc4
    5ca0:	e7942002 	ldr	r2, [r4, r2]
    5ca4:	e7943003 	ldr	r3, [r4, r3]
    5ca8:	e7921105 	ldr	r1, [r2, r5, lsl #2]
    5cac:	e7932106 	ldr	r2, [r3, r6, lsl #2]
    5cb0:	e59f324c 	ldr	r3, [pc, #588]	; 0x5f04
    5cb4:	e7943003 	ldr	r3, [r4, r3]
    5cb8:	e5831000 	str	r1, [r3]
    5cbc:	e59f3244 	ldr	r3, [pc, #580]	; 0x5f08
    5cc0:	ea000007 	b	0x5ce4
    5cc4:	e7942002 	ldr	r2, [r4, r2]
    5cc8:	e7943003 	ldr	r3, [r4, r3]
    5ccc:	e7921105 	ldr	r1, [r2, r5, lsl #2]
    5cd0:	e7932106 	ldr	r2, [r3, r6, lsl #2]
    5cd4:	e59f3230 	ldr	r3, [pc, #560]	; 0x5f0c
    5cd8:	e7943003 	ldr	r3, [r4, r3]
    5cdc:	e5831000 	str	r1, [r3]
    5ce0:	e59f3228 	ldr	r3, [pc, #552]	; 0x5f10
    5ce4:	e7943003 	ldr	r3, [r4, r3]
    5ce8:	e59f7224 	ldr	r7, [pc, #548]	; 0x5f14
    5cec:	e5832000 	str	r2, [r3]
    5cf0:	e08f7007 	add	r7, pc, r7
    5cf4:	e59f31fc 	ldr	r3, [pc, #508]	; 0x5ef8
    5cf8:	e1a00007 	mov	r0, r7
    5cfc:	e7948003 	ldr	r8, [r4, r3]
    5d00:	e7981105 	ldr	r1, [r8, r5, lsl #2]
    5d04:	ebffff73 	bl	0x5ad8
    5d08:	e59f31f0 	ldr	r3, [pc, #496]	; 0x5f00
    5d0c:	e1a00007 	mov	r0, r7
    5d10:	e7944003 	ldr	r4, [r4, r3]
    5d14:	e7941106 	ldr	r1, [r4, r6, lsl #2]
    5d18:	ebffff6e 	bl	0x5ad8
    5d1c:	e7980105 	ldr	r0, [r8, r5, lsl #2]
    5d20:	ebfffeee 	bl	0x58e0
    5d24:	e7940106 	ldr	r0, [r4, r6, lsl #2]
    5d28:	ebfffe90 	bl	0x5770
    5d2c:	e3a00000 	mov	r0, #0
    5d30:	ea000003 	b	0x5d44
    5d34:	e59f01dc 	ldr	r0, [pc, #476]	; 0x5f18
    5d38:	e08f0000 	add	r0, pc, r0
    5d3c:	ebffff65 	bl	0x5ad8
    5d40:	e3e00000 	mvn	r0, #0
    5d44:	e59f1198 	ldr	r1, [pc, #408]	; 0x5ee4
    5d48:	e59f2198 	ldr	r2, [pc, #408]	; 0x5ee8
    5d4c:	e59131e4 	ldr	r3, [r1, #484]	; 0x1e4
    5d50:	e3c33c01 	bic	r3, r3, #256	; 0x100
    5d54:	e58131e4 	str	r3, [r1, #484]	; 0x1e4
    5d58:	e59f3190 	ldr	r3, [pc, #400]	; 0x5ef0
    5d5c:	e592c1e4 	ldr	ip, [r2, #484]	; 0x1e4
    5d60:	e3cccc01 	bic	ip, ip, #256	; 0x100
    5d64:	e582c1e4 	str	ip, [r2, #484]	; 0x1e4
    5d68:	e593c1e4 	ldr	ip, [r3, #484]	; 0x1e4
    5d6c:	e3cccc01 	bic	ip, ip, #256	; 0x100
    5d70:	e583c1e4 	str	ip, [r3, #484]	; 0x1e4
    5d74:	e3a0c000 	mov	ip, #0
    5d78:	e59150f0 	ldr	r5, [r1, #240]	; 0xf0
    5d7c:	e59240f0 	ldr	r4, [r2, #240]	; 0xf0
    5d80:	e1854004 	orr	r4, r5, r4
    5d84:	e59350f0 	ldr	r5, [r3, #240]	; 0xf0
    5d88:	e3844201 	orr	r4, r4, #268435456	; 0x10000000
    5d8c:	e1844005 	orr	r4, r4, r5
    5d90:	e58140f0 	str	r4, [r1, #240]	; 0xf0
    5d94:	e59150f0 	ldr	r5, [r1, #240]	; 0xf0
    5d98:	e59240f0 	ldr	r4, [r2, #240]	; 0xf0
    5d9c:	e1854004 	orr	r4, r5, r4
    5da0:	e59350f0 	ldr	r5, [r3, #240]	; 0xf0
    5da4:	e3844201 	orr	r4, r4, #268435456	; 0x10000000
    5da8:	e1844005 	orr	r4, r4, r5
    5dac:	e58240f0 	str	r4, [r2, #240]	; 0xf0
    5db0:	e59150f0 	ldr	r5, [r1, #240]	; 0xf0
    5db4:	e59240f0 	ldr	r4, [r2, #240]	; 0xf0
    5db8:	e1854004 	orr	r4, r5, r4
    5dbc:	e59350f0 	ldr	r5, [r3, #240]	; 0xf0
    5dc0:	e3844201 	orr	r4, r4, #268435456	; 0x10000000
    5dc4:	e1844005 	orr	r4, r4, r5
    5dc8:	e58340f0 	str	r4, [r3, #240]	; 0xf0
    5dcc:	e59150f4 	ldr	r5, [r1, #244]	; 0xf4
    5dd0:	e59240f4 	ldr	r4, [r2, #244]	; 0xf4
    5dd4:	e1854004 	orr	r4, r5, r4
    5dd8:	e59350f4 	ldr	r5, [r3, #244]	; 0xf4
    5ddc:	e3844402 	orr	r4, r4, #33554432	; 0x2000000
    5de0:	e1844005 	orr	r4, r4, r5
    5de4:	e58140f4 	str	r4, [r1, #244]	; 0xf4
    5de8:	e59150f4 	ldr	r5, [r1, #244]	; 0xf4
    5dec:	e59240f4 	ldr	r4, [r2, #244]	; 0xf4
    5df0:	e1854004 	orr	r4, r5, r4
    5df4:	e59350f4 	ldr	r5, [r3, #244]	; 0xf4
    5df8:	e3844402 	orr	r4, r4, #33554432	; 0x2000000
    5dfc:	e1844005 	orr	r4, r4, r5
    5e00:	e58240f4 	str	r4, [r2, #244]	; 0xf4
    5e04:	e59150f4 	ldr	r5, [r1, #244]	; 0xf4
    5e08:	e59240f4 	ldr	r4, [r2, #244]	; 0xf4
    5e0c:	e1854004 	orr	r4, r5, r4
    5e10:	e59350f4 	ldr	r5, [r3, #244]	; 0xf4
    5e14:	e3844402 	orr	r4, r4, #33554432	; 0x2000000
    5e18:	e1844005 	orr	r4, r4, r5
    5e1c:	e58340f4 	str	r4, [r3, #244]	; 0xf4
    5e20:	e3a04ffa 	mov	r4, #1000	; 0x3e8
    5e24:	e1a0c004 	mov	ip, r4
    5e28:	e25cc001 	subs	ip, ip, #1
    5e2c:	1afffffd 	bne	0x5e28
    5e30:	e591c0f0 	ldr	ip, [r1, #240]	; 0xf0
    5e34:	e59240f0 	ldr	r4, [r2, #240]	; 0xf0
    5e38:	e184c00c 	orr	ip, r4, ip
    5e3c:	e59340f0 	ldr	r4, [r3, #240]	; 0xf0
    5e40:	e18cc004 	orr	ip, ip, r4
    5e44:	e3ccc201 	bic	ip, ip, #268435456	; 0x10000000
    5e48:	e581c0f0 	str	ip, [r1, #240]	; 0xf0
    5e4c:	e591c0f0 	ldr	ip, [r1, #240]	; 0xf0
    5e50:	e59240f0 	ldr	r4, [r2, #240]	; 0xf0
    5e54:	e184c00c 	orr	ip, r4, ip
    5e58:	e59340f0 	ldr	r4, [r3, #240]	; 0xf0
    5e5c:	e18cc004 	orr	ip, ip, r4
    5e60:	e3ccc201 	bic	ip, ip, #268435456	; 0x10000000
    5e64:	e582c0f0 	str	ip, [r2, #240]	; 0xf0
    5e68:	e591c0f0 	ldr	ip, [r1, #240]	; 0xf0
    5e6c:	e59240f0 	ldr	r4, [r2, #240]	; 0xf0
    5e70:	e184c00c 	orr	ip, r4, ip
    5e74:	e59340f0 	ldr	r4, [r3, #240]	; 0xf0
    5e78:	e18cc004 	orr	ip, ip, r4
    5e7c:	e3ccc201 	bic	ip, ip, #268435456	; 0x10000000
    5e80:	e583c0f0 	str	ip, [r3, #240]	; 0xf0
    5e84:	e591c0f4 	ldr	ip, [r1, #244]	; 0xf4
    5e88:	e59240f4 	ldr	r4, [r2, #244]	; 0xf4
    5e8c:	e184c00c 	orr	ip, r4, ip
    5e90:	e59340f4 	ldr	r4, [r3, #244]	; 0xf4
    5e94:	e18cc004 	orr	ip, ip, r4
    5e98:	e3ccc402 	bic	ip, ip, #33554432	; 0x2000000
    5e9c:	e581c0f4 	str	ip, [r1, #244]	; 0xf4
    5ea0:	e591c0f4 	ldr	ip, [r1, #244]	; 0xf4
    5ea4:	e59240f4 	ldr	r4, [r2, #244]	; 0xf4
    5ea8:	e184c00c 	orr	ip, r4, ip
    5eac:	e59340f4 	ldr	r4, [r3, #244]	; 0xf4
    5eb0:	e18cc004 	orr	ip, ip, r4
    5eb4:	e3ccc402 	bic	ip, ip, #33554432	; 0x2000000
    5eb8:	e582c0f4 	str	ip, [r2, #244]	; 0xf4
    5ebc:	e59110f4 	ldr	r1, [r1, #244]	; 0xf4
    5ec0:	e59220f4 	ldr	r2, [r2, #244]	; 0xf4
    5ec4:	e1822001 	orr	r2, r2, r1
    5ec8:	e59310f4 	ldr	r1, [r3, #244]	; 0xf4
    5ecc:	e1822001 	orr	r2, r2, r1
    5ed0:	e3c22402 	bic	r2, r2, #33554432	; 0x2000000
    5ed4:	e58320f4 	str	r2, [r3, #244]	; 0xf4
    5ed8:	e8bd81f0 	pop	{r4, r5, r6, r7, r8, pc}
    5edc:	0000b4dc 	ldrdeq	fp, [r0], -ip
    5ee0:	0000d184 	andeq	sp, r0, r4, lsl #3
    5ee4:	10207000 	eorne	r7, r0, r0
    5ee8:	10208000 	eorne	r8, r0, r0
    5eec:	000000e0 	andeq	r0, r0, r0, ror #1
    5ef0:	10206000 	eorne	r6, r0, r0
    5ef4:	0000d080 	andeq	sp, r0, r0, lsl #1
    5ef8:	000000ec 	andeq	r0, r0, ip, ror #1
    5efc:	00000068 	andeq	r0, r0, r8, rrx
    5f00:	00000028 	andeq	r0, r0, r8, lsr #32
    5f04:	00000058 	andeq	r0, r0, r8, asr r0
    5f08:	00000018 	andeq	r0, r0, r8, lsl r0
    5f0c:	0000009c 	muleq	r0, ip, r0
    5f10:	000000bc 	strheq	r0, [r0], -ip
    5f14:	000060fd 	strdeq	r6, [r0], -sp
    5f18:	000067c0 	andeq	r6, r0, r0, asr #15
    5f1c:	e52de004 	push	{lr}		; (str lr, [sp, #-4]!)
    5f20:	e59fe028 	ldr	lr, [pc, #40]	; 0x5f50
    5f24:	e24dd024 	sub	sp, sp, #36	; 0x24
    5f28:	e08fe00e 	add	lr, pc, lr
    5f2c:	e28dc004 	add	ip, sp, #4
    5f30:	e8be000f 	ldm	lr!, {r0, r1, r2, r3}
    5f34:	e8ac000f 	stmia	ip!, {r0, r1, r2, r3}
    5f38:	e89e0007 	ldm	lr, {r0, r1, r2}
    5f3c:	e88c0007 	stm	ip, {r0, r1, r2}
    5f40:	e28d0004 	add	r0, sp, #4
    5f44:	ebfffef3 	bl	0x5b18
    5f48:	e28dd024 	add	sp, sp, #36	; 0x24
    5f4c:	e8bd8000 	pop	{pc}
    5f50:	0000b240 	andeq	fp, r0, r0, asr #4
    5f54:	e52de004 	push	{lr}		; (str lr, [sp, #-4]!)
    5f58:	e59fe02c 	ldr	lr, [pc, #44]	; 0x5f8c
    5f5c:	e24dd024 	sub	sp, sp, #36	; 0x24
    5f60:	e08fe00e 	add	lr, pc, lr
    5f64:	e28dc004 	add	ip, sp, #4
    5f68:	e28ee01c 	add	lr, lr, #28
    5f6c:	e8be000f 	ldm	lr!, {r0, r1, r2, r3}
    5f70:	e8ac000f 	stmia	ip!, {r0, r1, r2, r3}
    5f74:	e89e0007 	ldm	lr, {r0, r1, r2}
    5f78:	e88c0007 	stm	ip, {r0, r1, r2}
    5f7c:	e28d0004 	add	r0, sp, #4
    5f80:	ebfffee4 	bl	0x5b18
    5f84:	e28dd024 	add	sp, sp, #36	; 0x24
    5f88:	e8bd8000 	pop	{pc}
    5f8c:	0000b208 	andeq	fp, r0, r8, lsl #4
    5f90:	e3500000 	cmp	r0, #0
    5f94:	112fff1e 	bxne	lr
    5f98:	e59f0004 	ldr	r0, [pc, #4]	; 0x5fa4
    5f9c:	e08f0000 	add	r0, pc, r0
    5fa0:	eafffecc 	b	0x5ad8
    5fa4:	00005dad 	andeq	r5, r0, sp, lsr #27
    5fa8:	e3500000 	cmp	r0, #0
    5fac:	112fff1e 	bxne	lr
    5fb0:	e59f0004 	ldr	r0, [pc, #4]	; 0x5fbc
    5fb4:	e08f0000 	add	r0, pc, r0
    5fb8:	eafffec6 	b	0x5ad8
    5fbc:	00005d95 	muleq	r0, r5, sp
    5fc0:	e3500001 	cmp	r0, #1
    5fc4:	112fff1e 	bxne	lr
    5fc8:	e59f0004 	ldr	r0, [pc, #4]	; 0x5fd4
    5fcc:	e08f0000 	add	r0, pc, r0
    5fd0:	eafffec0 	b	0x5ad8
    5fd4:	00006549 	andeq	r6, r0, r9, asr #10
    5fd8:	e1a03000 	mov	r3, r0
    5fdc:	e59f10d4 	ldr	r1, [pc, #212]	; 0x60b8
    5fe0:	e92d4010 	push	{r4, lr}
    5fe4:	e59f20d0 	ldr	r2, [pc, #208]	; 0x60bc
    5fe8:	e08f2002 	add	r2, pc, r2
    5fec:	e7922001 	ldr	r2, [r2, r1]
    5ff0:	e5931008 	ldr	r1, [r3, #8]
    5ff4:	e5922000 	ldr	r2, [r2]
    5ff8:	e3520000 	cmp	r2, #0
    5ffc:	02822102 	addeq	r2, r2, #-2147483648	; 0x80000000
    6000:	13a02102 	movne	r2, #-2147483648	; 0x80000000
    6004:	e5802004 	str	r2, [r0, #4]
    6008:	e3a00102 	mov	r0, #-2147483648	; 0x80000000
    600c:	e593200c 	ldr	r2, [r3, #12]
    6010:	e1a0e00f 	mov	lr, pc
    6014:	e593f000 	ldr	pc, [r3]
    6018:	e3500000 	cmp	r0, #0
    601c:	aa000004 	bge	0x6034
    6020:	e59f0098 	ldr	r0, [pc, #152]	; 0x60c0
    6024:	e08f0000 	add	r0, pc, r0
    6028:	ebfffeaa 	bl	0x5ad8
    602c:	e3a04000 	mov	r4, #0
    6030:	ea00000c 	b	0x6068
    6034:	e59f0088 	ldr	r0, [pc, #136]	; 0x60c4
    6038:	e08f0000 	add	r0, pc, r0
    603c:	ebfffea5 	bl	0x5ad8
    6040:	e3a02001 	mov	r2, #1
    6044:	e59f307c 	ldr	r3, [pc, #124]	; 0x60c8
    6048:	e1a04002 	mov	r4, r2
    604c:	e08f3003 	add	r3, pc, r3
    6050:	e5930004 	ldr	r0, [r3, #4]
    6054:	e5931000 	ldr	r1, [r3]
    6058:	e0833101 	add	r3, r3, r1, lsl #2
    605c:	e5931008 	ldr	r1, [r3, #8]
    6060:	e1812012 	orr	r2, r1, r2, lsl r0
    6064:	e5832008 	str	r2, [r3, #8]
    6068:	e59f305c 	ldr	r3, [pc, #92]	; 0x60cc
    606c:	e08f3003 	add	r3, pc, r3
    6070:	e5932004 	ldr	r2, [r3, #4]
    6074:	e2822001 	add	r2, r2, #1
    6078:	e352000f 	cmp	r2, #15
    607c:	e5832004 	str	r2, [r3, #4]
    6080:	c202200f 	andgt	r2, r2, #15
    6084:	c5832004 	strgt	r2, [r3, #4]
    6088:	c5932000 	ldrgt	r2, [r3]
    608c:	c2822001 	addgt	r2, r2, #1
    6090:	c5832000 	strgt	r2, [r3]
    6094:	e59f3034 	ldr	r3, [pc, #52]	; 0x60d0
    6098:	e79f3003 	ldr	r3, [pc, r3]
    609c:	e3530020 	cmp	r3, #32
    60a0:	da000002 	ble	0x60b0
    60a4:	e59f0028 	ldr	r0, [pc, #40]	; 0x60d4
    60a8:	e08f0000 	add	r0, pc, r0
    60ac:	ebfffe89 	bl	0x5ad8
    60b0:	e1a00004 	mov	r0, r4
    60b4:	e8bd8010 	pop	{r4, pc}
    60b8:	00000068 	andeq	r0, r0, r8, rrx
    60bc:	0000b01c 	andeq	fp, r0, ip, lsl r0
    60c0:	00006549 	andeq	r6, r0, r9, asr #10
    60c4:	0000653b 	andeq	r6, r0, fp, lsr r5
    60c8:	0000cc64 	andeq	ip, r0, r4, ror #24
    60cc:	0000cc44 	andeq	ip, r0, r4, asr #24
    60d0:	0000cc18 	andeq	ip, r0, r8, lsl ip
    60d4:	000064d1 	ldrdeq	r6, [r0], -r1
    60d8:	e59f200c 	ldr	r2, [pc, #12]	; 0x60ec
    60dc:	e59f300c 	ldr	r3, [pc, #12]	; 0x60f0
    60e0:	e08f3003 	add	r3, pc, r3
    60e4:	e7930002 	ldr	r0, [r3, r2]
    60e8:	eaffffba 	b	0x5fd8
    60ec:	00000020 	andeq	r0, r0, r0, lsr #32
    60f0:	0000af24 	andeq	sl, r0, r4, lsr #30
    60f4:	e59f200c 	ldr	r2, [pc, #12]	; 0x6108
    60f8:	e59f300c 	ldr	r3, [pc, #12]	; 0x610c
    60fc:	e08f3003 	add	r3, pc, r3
    6100:	e7930002 	ldr	r0, [r3, r2]
    6104:	eaffffb3 	b	0x5fd8
    6108:	00000054 	andeq	r0, r0, r4, asr r0
    610c:	0000af08 	andeq	sl, r0, r8, lsl #30
    6110:	e12fff1e 	bx	lr
    6114:	e12fff1e 	bx	lr
    6118:	e3a03000 	mov	r3, #0
    611c:	e3a020c8 	mov	r2, #200	; 0xc8
    6120:	e1a03002 	mov	r3, r2
    6124:	e2533001 	subs	r3, r3, #1
    6128:	1afffffd 	bne	0x6124
    612c:	e12fff1e 	bx	lr
    6130:	e12fff1e 	bx	lr
    6134:	e12fff1e 	bx	lr
    6138:	e12fff1e 	bx	lr
    613c:	e12fff1e 	bx	lr
    6140:	e3a03000 	mov	r3, #0
    6144:	e3a020c8 	mov	r2, #200	; 0xc8
    6148:	e1a03002 	mov	r3, r2
    614c:	e2533001 	subs	r3, r3, #1
    6150:	1afffffd 	bne	0x614c
    6154:	e12fff1e 	bx	lr
    6158:	e3a03000 	mov	r3, #0
    615c:	e3a020c8 	mov	r2, #200	; 0xc8
    6160:	e1a03002 	mov	r3, r2
    6164:	e2533001 	subs	r3, r3, #1
    6168:	1afffffd 	bne	0x6164
    616c:	e12fff1e 	bx	lr
    6170:	e92d401f 	push	{r0, r1, r2, r3, r4, lr}
    6174:	e59f2084 	ldr	r2, [pc, #132]	; 0x6200
    6178:	e59f3084 	ldr	r3, [pc, #132]	; 0x6204
    617c:	e08f2002 	add	r2, pc, r2
    6180:	e3a01000 	mov	r1, #0
    6184:	e7923003 	ldr	r3, [r2, r3]
    6188:	e5930000 	ldr	r0, [r3]
    618c:	e1a0400d 	mov	r4, sp
    6190:	e3a030ff 	mov	r3, #255	; 0xff
    6194:	e200c0ff 	and	ip, r0, #255	; 0xff
    6198:	e1a00420 	lsr	r0, r0, #8
    619c:	e153000c 	cmp	r3, ip
    61a0:	21a0300c 	movcs	r3, ip
    61a4:	e784c001 	str	ip, [r4, r1]
    61a8:	e2811004 	add	r1, r1, #4
    61ac:	e3510010 	cmp	r1, #16
    61b0:	1afffff7 	bne	0x6194
    61b4:	e89d1001 	ldm	sp, {r0, ip}
    61b8:	e0630000 	rsb	r0, r3, r0
    61bc:	e063c00c 	rsb	ip, r3, ip
    61c0:	e200007f 	and	r0, r0, #127	; 0x7f
    61c4:	e20cc07f 	and	ip, ip, #127	; 0x7f
    61c8:	e59d1008 	ldr	r1, [sp, #8]
    61cc:	e0631001 	rsb	r1, r3, r1
    61d0:	e201107f 	and	r1, r1, #127	; 0x7f
    61d4:	e1a01801 	lsl	r1, r1, #16
    61d8:	e181140c 	orr	r1, r1, ip, lsl #8
    61dc:	e1811000 	orr	r1, r1, r0
    61e0:	e59f0020 	ldr	r0, [pc, #32]	; 0x6208
    61e4:	e7922000 	ldr	r2, [r2, r0]
    61e8:	e59d000c 	ldr	r0, [sp, #12]
    61ec:	e0633000 	rsb	r3, r3, r0
    61f0:	e203307f 	and	r3, r3, #127	; 0x7f
    61f4:	e1813c03 	orr	r3, r1, r3, lsl #24
    61f8:	e5823000 	str	r3, [r2]
    61fc:	e8bd801f 	pop	{r0, r1, r2, r3, r4, pc}
    6200:	0000ae88 	andeq	sl, r0, r8, lsl #29
    6204:	000000c0 	andeq	r0, r0, r0, asr #1
    6208:	000000d0 	ldrdeq	r0, [r0], -r0	; <UNPREDICTABLE>
    620c:	e12fff1e 	bx	lr
    6210:	e12fff1e 	bx	lr
    6214:	e12fff1e 	bx	lr
    6218:	e59f008c 	ldr	r0, [pc, #140]	; 0x62ac
    621c:	e59f108c 	ldr	r1, [pc, #140]	; 0x62b0
    6220:	e59fc08c 	ldr	ip, [pc, #140]	; 0x62b4
    6224:	e59f308c 	ldr	r3, [pc, #140]	; 0x62b8
    6228:	e59f208c 	ldr	r2, [pc, #140]	; 0x62bc
    622c:	e08f3003 	add	r3, pc, r3
    6230:	e92d4030 	push	{r4, r5, lr}
    6234:	e7932002 	ldr	r2, [r3, r2]
    6238:	e5922000 	ldr	r2, [r2]
    623c:	e58c2010 	str	r2, [ip, #16]
    6240:	e5802010 	str	r2, [r0, #16]
    6244:	e5812010 	str	r2, [r1, #16]
    6248:	e59f2070 	ldr	r2, [pc, #112]	; 0x62c0
    624c:	e7932002 	ldr	r2, [r3, r2]
    6250:	e5922000 	ldr	r2, [r2]
    6254:	e58c2014 	str	r2, [ip, #20]
    6258:	e5802014 	str	r2, [r0, #20]
    625c:	e5812014 	str	r2, [r1, #20]
    6260:	e59f205c 	ldr	r2, [pc, #92]	; 0x62c4
    6264:	e59f105c 	ldr	r1, [pc, #92]	; 0x62c8
    6268:	e7930002 	ldr	r0, [r3, r2]
    626c:	e59f3058 	ldr	r3, [pc, #88]	; 0x62cc
    6270:	e0835000 	add	r5, r3, r0
    6274:	e2834a01 	add	r4, r3, #4096	; 0x1000
    6278:	e243ca01 	sub	ip, r3, #4096	; 0x1000
    627c:	e59f204c 	ldr	r2, [pc, #76]	; 0x62d0
    6280:	e0852002 	add	r2, r5, r2
    6284:	e5925000 	ldr	r5, [r2]
    6288:	e5835000 	str	r5, [r3]
    628c:	e2833004 	add	r3, r3, #4
    6290:	e5925000 	ldr	r5, [r2]
    6294:	e1530001 	cmp	r3, r1
    6298:	e5845000 	str	r5, [r4]
    629c:	e5922000 	ldr	r2, [r2]
    62a0:	e58c2000 	str	r2, [ip]
    62a4:	1afffff1 	bne	0x6270
    62a8:	e8bd8030 	pop	{r4, r5, pc}
    62ac:	10208000 	eorne	r8, r0, r0
    62b0:	10206000 	eorne	r6, r0, r0
    62b4:	10207000 	eorne	r7, r0, r0
    62b8:	0000add8 	ldrdeq	sl, [r0], -r8
    62bc:	000000cc 	andeq	r0, r0, ip, asr #1
    62c0:	0000007c 	andeq	r0, r0, ip, ror r0
    62c4:	00000078 	andeq	r0, r0, r8, ror r0
    62c8:	10207210 	eorne	r7, r0, r0, lsl r2
    62cc:	10207200 	eorne	r7, r0, r0, lsl #4
    62d0:	efdf8e00 	svc	0x00df8e00
    62d4:	e92d4070 	push	{r4, r5, r6, lr}
    62d8:	e59f3030 	ldr	r3, [pc, #48]	; 0x6310
    62dc:	e59f2030 	ldr	r2, [pc, #48]	; 0x6314
    62e0:	e08f3003 	add	r3, pc, r3
    62e4:	e7934002 	ldr	r4, [r3, r2]
    62e8:	e284503c 	add	r5, r4, #60	; 0x3c
    62ec:	e594300c 	ldr	r3, [r4, #12]
    62f0:	e2530000 	subs	r0, r3, #0
    62f4:	0a000001 	beq	0x6300
    62f8:	e1a0e00f 	mov	lr, pc
    62fc:	e594f010 	ldr	pc, [r4, #16]
    6300:	e2844014 	add	r4, r4, #20
    6304:	e1540005 	cmp	r4, r5
    6308:	1afffff7 	bne	0x62ec
    630c:	e8bd8070 	pop	{r4, r5, r6, pc}
    6310:	0000ad24 	andeq	sl, r0, r4, lsr #26
    6314:	0000003c 	andeq	r0, r0, ip, lsr r0
    6318:	e3500000 	cmp	r0, #0
    631c:	112fff1e 	bxne	lr
    6320:	e59f0004 	ldr	r0, [pc, #4]	; 0x632c
    6324:	e08f0000 	add	r0, pc, r0
    6328:	ea000be5 	b	0x92c4
    632c:	00005a25 	andeq	r5, r0, r5, lsr #20
    6330:	e3500000 	cmp	r0, #0
    6334:	112fff1e 	bxne	lr
    6338:	e59f0004 	ldr	r0, [pc, #4]	; 0x6344
    633c:	e08f0000 	add	r0, pc, r0
    6340:	ea000bdf 	b	0x92c4
    6344:	00005a0d 	andeq	r5, r0, sp, lsl #20
    6348:	e3a02102 	mov	r2, #-2147483648	; 0x80000000
    634c:	e92d4010 	push	{r4, lr}
    6350:	e1a00002 	mov	r0, r2
    6354:	e59fc04c 	ldr	ip, [pc, #76]	; 0x63a8
    6358:	e59f304c 	ldr	r3, [pc, #76]	; 0x63ac
    635c:	e08fc00c 	add	ip, pc, ip
    6360:	e79c3003 	ldr	r3, [ip, r3]
    6364:	e5832004 	str	r2, [r3, #4]
    6368:	e5931008 	ldr	r1, [r3, #8]
    636c:	e593200c 	ldr	r2, [r3, #12]
    6370:	e1a0e00f 	mov	lr, pc
    6374:	e593f000 	ldr	pc, [r3]
    6378:	e3500003 	cmp	r0, #3
    637c:	1a000004 	bne	0x6394
    6380:	e59f0028 	ldr	r0, [pc, #40]	; 0x63b0
    6384:	e08f0000 	add	r0, pc, r0
    6388:	eb000bcd 	bl	0x92c4
    638c:	e3a00001 	mov	r0, #1
    6390:	e8bd8010 	pop	{r4, pc}
    6394:	e59f0018 	ldr	r0, [pc, #24]	; 0x63b4
    6398:	e08f0000 	add	r0, pc, r0
    639c:	eb000bc8 	bl	0x92c4
    63a0:	e3a00000 	mov	r0, #0
    63a4:	e8bd8010 	pop	{r4, pc}
    63a8:	0000aca8 	andeq	sl, r0, r8, lsr #25
    63ac:	000000a4 	andeq	r0, r0, r4, lsr #1
    63b0:	000061ef 	andeq	r6, r0, pc, ror #3
    63b4:	000061d5 	ldrdeq	r6, [r0], -r5
    63b8:	e3a02102 	mov	r2, #-2147483648	; 0x80000000
    63bc:	e92d4010 	push	{r4, lr}
    63c0:	e1a00002 	mov	r0, r2
    63c4:	e59fc04c 	ldr	ip, [pc, #76]	; 0x6418
    63c8:	e59f304c 	ldr	r3, [pc, #76]	; 0x641c
    63cc:	e08fc00c 	add	ip, pc, ip
    63d0:	e79c3003 	ldr	r3, [ip, r3]
    63d4:	e5832004 	str	r2, [r3, #4]
    63d8:	e5931008 	ldr	r1, [r3, #8]
    63dc:	e593200c 	ldr	r2, [r3, #12]
    63e0:	e1a0e00f 	mov	lr, pc
    63e4:	e593f000 	ldr	pc, [r3]
    63e8:	e3500003 	cmp	r0, #3
    63ec:	1a000004 	bne	0x6404
    63f0:	e59f0028 	ldr	r0, [pc, #40]	; 0x6420
    63f4:	e08f0000 	add	r0, pc, r0
    63f8:	eb000bb1 	bl	0x92c4
    63fc:	e3a00001 	mov	r0, #1
    6400:	e8bd8010 	pop	{r4, pc}
    6404:	e59f0018 	ldr	r0, [pc, #24]	; 0x6424
    6408:	e08f0000 	add	r0, pc, r0
    640c:	eb000bac 	bl	0x92c4
    6410:	e3a00000 	mov	r0, #0
    6414:	e8bd8010 	pop	{r4, pc}
    6418:	0000ac38 	andeq	sl, r0, r8, lsr ip
    641c:	00000044 	andeq	r0, r0, r4, asr #32
    6420:	00006183 	andeq	r6, r0, r3, lsl #3
    6424:	00006169 	andeq	r6, r0, r9, ror #2
    6428:	e3500000 	cmp	r0, #0
    642c:	059f0018 	ldreq	r0, [pc, #24]	; 0x644c
    6430:	008f0000 	addeq	r0, pc, r0
    6434:	0a000003 	beq	0x6448
    6438:	e3500001 	cmp	r0, #1
    643c:	112fff1e 	bxne	lr
    6440:	e59f0008 	ldr	r0, [pc, #8]	; 0x6450
    6444:	e08f0000 	add	r0, pc, r0
    6448:	ea000b9d 	b	0x92c4
    644c:	00005919 	andeq	r5, r0, r9, lsl r9
    6450:	00005905 	andeq	r5, r0, r5, lsl #18
    6454:	e92d4010 	push	{r4, lr}
    6458:	e59fe068 	ldr	lr, [pc, #104]	; 0x64c8
    645c:	e24dd020 	sub	sp, sp, #32
    6460:	e08fe00e 	add	lr, pc, lr
    6464:	e28dc004 	add	ip, sp, #4
    6468:	e59f405c 	ldr	r4, [pc, #92]	; 0x64cc
    646c:	e08f4004 	add	r4, pc, r4
    6470:	e8b4000f 	ldm	r4!, {r0, r1, r2, r3}
    6474:	e8ac000f 	stmia	ip!, {r0, r1, r2, r3}
    6478:	e8940007 	ldm	r4, {r0, r1, r2}
    647c:	e59f304c 	ldr	r3, [pc, #76]	; 0x64d0
    6480:	e88c0007 	stm	ip, {r0, r1, r2}
    6484:	e79e1003 	ldr	r1, [lr, r3]
    6488:	e28d2004 	add	r2, sp, #4
    648c:	e59f3040 	ldr	r3, [pc, #64]	; 0x64d4
    6490:	e59fc040 	ldr	ip, [pc, #64]	; 0x64d8
    6494:	e5933018 	ldr	r3, [r3, #24]
    6498:	e3a00002 	mov	r0, #2
    649c:	e59cc018 	ldr	ip, [ip, #24]
    64a0:	e18cc003 	orr	ip, ip, r3
    64a4:	e59f3030 	ldr	r3, [pc, #48]	; 0x64dc
    64a8:	e5933018 	ldr	r3, [r3, #24]
    64ac:	e18cc003 	orr	ip, ip, r3
    64b0:	e59f3028 	ldr	r3, [pc, #40]	; 0x64e0
    64b4:	e79e3003 	ldr	r3, [lr, r3]
    64b8:	e583c000 	str	ip, [r3]
    64bc:	ebffec41 	bl	0x15c8
    64c0:	e28dd020 	add	sp, sp, #32
    64c4:	e8bd8010 	pop	{r4, pc}
    64c8:	0000aba4 	andeq	sl, r0, r4, lsr #23
    64cc:	0000ae2c 	andeq	sl, r0, ip, lsr #28
    64d0:	0000002c 	andeq	r0, r0, ip, lsr #32
    64d4:	10207000 	eorne	r7, r0, r0
    64d8:	10208000 	eorne	r8, r0, r0
    64dc:	10206000 	eorne	r6, r0, r0
    64e0:	000000c0 	andeq	r0, r0, r0, asr #1
    64e4:	e92d4070 	push	{r4, r5, r6, lr}
    64e8:	e3500001 	cmp	r0, #1
    64ec:	e59f4064 	ldr	r4, [pc, #100]	; 0x6558
    64f0:	e08f4004 	add	r4, pc, r4
    64f4:	18bd8070 	popne	{r4, r5, r6, pc}
    64f8:	e59f505c 	ldr	r5, [pc, #92]	; 0x655c
    64fc:	e08f5005 	add	r5, pc, r5
    6500:	e1a00005 	mov	r0, r5
    6504:	eb000b6e 	bl	0x92c4
    6508:	e59f0050 	ldr	r0, [pc, #80]	; 0x6560
    650c:	e59f3050 	ldr	r3, [pc, #80]	; 0x6564
    6510:	e08f0000 	add	r0, pc, r0
    6514:	e7943003 	ldr	r3, [r4, r3]
    6518:	e5931000 	ldr	r1, [r3]
    651c:	eb000b68 	bl	0x92c4
    6520:	e59f3040 	ldr	r3, [pc, #64]	; 0x6568
    6524:	e7943003 	ldr	r3, [r4, r3]
    6528:	e5930030 	ldr	r0, [r3, #48]	; 0x30
    652c:	eb000a22 	bl	0x8dbc
    6530:	e1a01000 	mov	r1, r0
    6534:	e59f0030 	ldr	r0, [pc, #48]	; 0x656c
    6538:	e08f0000 	add	r0, pc, r0
    653c:	eb000b60 	bl	0x92c4
    6540:	e59f0028 	ldr	r0, [pc, #40]	; 0x6570
    6544:	e08f0000 	add	r0, pc, r0
    6548:	eb000b5d 	bl	0x92c4
    654c:	e1a00005 	mov	r0, r5
    6550:	e8bd4070 	pop	{r4, r5, r6, lr}
    6554:	ea000b5a 	b	0x92c4
    6558:	0000ab14 	andeq	sl, r0, r4, lsl fp
    655c:	00005e19 	andeq	r5, r0, r9, lsl lr
    6560:	00006110 	andeq	r6, r0, r0, lsl r1
    6564:	000000a8 	andeq	r0, r0, r8, lsr #1
    6568:	0000003c 	andeq	r0, r0, ip, lsr r0
    656c:	000060e9 	andeq	r6, r0, r9, ror #1
    6570:	00005e55 	andeq	r5, r0, r5, asr lr
    6574:	e92d4070 	push	{r4, r5, r6, lr}
    6578:	e3500001 	cmp	r0, #1
    657c:	e59f5058 	ldr	r5, [pc, #88]	; 0x65dc
    6580:	e08f5005 	add	r5, pc, r5
    6584:	18bd8070 	popne	{r4, r5, r6, pc}
    6588:	e59f4050 	ldr	r4, [pc, #80]	; 0x65e0
    658c:	e08f4004 	add	r4, pc, r4
    6590:	e1a00004 	mov	r0, r4
    6594:	eb000b4a 	bl	0x92c4
    6598:	e59f0044 	ldr	r0, [pc, #68]	; 0x65e4
    659c:	e08f0000 	add	r0, pc, r0
    65a0:	eb000b47 	bl	0x92c4
    65a4:	e59f303c 	ldr	r3, [pc, #60]	; 0x65e8
    65a8:	e7953003 	ldr	r3, [r5, r3]
    65ac:	e5930030 	ldr	r0, [r3, #48]	; 0x30
    65b0:	eb000a01 	bl	0x8dbc
    65b4:	e1a01000 	mov	r1, r0
    65b8:	e59f002c 	ldr	r0, [pc, #44]	; 0x65ec
    65bc:	e08f0000 	add	r0, pc, r0
    65c0:	eb000b3f 	bl	0x92c4
    65c4:	e59f0024 	ldr	r0, [pc, #36]	; 0x65f0
    65c8:	e08f0000 	add	r0, pc, r0
    65cc:	eb000b3c 	bl	0x92c4
    65d0:	e1a00004 	mov	r0, r4
    65d4:	e8bd4070 	pop	{r4, r5, r6, lr}
    65d8:	ea000b39 	b	0x92c4
    65dc:	0000aa84 	andeq	sl, r0, r4, lsl #21
    65e0:	00005d89 	andeq	r5, r0, r9, lsl #27
    65e4:	00006089 	andeq	r6, r0, r9, lsl #1
    65e8:	0000002c 	andeq	r0, r0, ip, lsr #32
    65ec:	00006065 	andeq	r6, r0, r5, rrx
    65f0:	00005dd1 	ldrdeq	r5, [r0], -r1
    65f4:	e92d4070 	push	{r4, r5, r6, lr}
    65f8:	e3500001 	cmp	r0, #1
    65fc:	e59f6070 	ldr	r6, [pc, #112]	; 0x6674
    6600:	e08f6006 	add	r6, pc, r6
    6604:	18bd8070 	popne	{r4, r5, r6, pc}
    6608:	e59f4068 	ldr	r4, [pc, #104]	; 0x6678
    660c:	e08f4004 	add	r4, pc, r4
    6610:	e1a00004 	mov	r0, r4
    6614:	e59f5060 	ldr	r5, [pc, #96]	; 0x667c
    6618:	eb000b29 	bl	0x92c4
    661c:	e59f005c 	ldr	r0, [pc, #92]	; 0x6680
    6620:	e08f0000 	add	r0, pc, r0
    6624:	e08f5005 	add	r5, pc, r5
    6628:	eb000b25 	bl	0x92c4
    662c:	e59f3050 	ldr	r3, [pc, #80]	; 0x6684
    6630:	e7966003 	ldr	r6, [r6, r3]
    6634:	e5960030 	ldr	r0, [r6, #48]	; 0x30
    6638:	eb0009df 	bl	0x8dbc
    663c:	e1a01000 	mov	r1, r0
    6640:	e1a00005 	mov	r0, r5
    6644:	eb000b1e 	bl	0x92c4
    6648:	e5960044 	ldr	r0, [r6, #68]	; 0x44
    664c:	eb0009da 	bl	0x8dbc
    6650:	e1a01000 	mov	r1, r0
    6654:	e1a00005 	mov	r0, r5
    6658:	eb000b19 	bl	0x92c4
    665c:	e59f0024 	ldr	r0, [pc, #36]	; 0x6688
    6660:	e08f0000 	add	r0, pc, r0
    6664:	eb000b16 	bl	0x92c4
    6668:	e1a00004 	mov	r0, r4
    666c:	e8bd4070 	pop	{r4, r5, r6, lr}
    6670:	ea000b13 	b	0x92c4
    6674:	0000aa04 	andeq	sl, r0, r4, lsl #20
    6678:	00005d09 	andeq	r5, r0, r9, lsl #26
    667c:	00005ffd 	strdeq	r5, [r0], -sp
    6680:	00006009 	andeq	r6, r0, r9
    6684:	00000080 	andeq	r0, r0, r0, lsl #1
    6688:	00005d39 	andeq	r5, r0, r9, lsr sp
    668c:	e92d41f0 	push	{r4, r5, r6, r7, r8, lr}
    6690:	e59f4140 	ldr	r4, [pc, #320]	; 0x67d8
    6694:	eb0009c8 	bl	0x8dbc
    6698:	e59f113c 	ldr	r1, [pc, #316]	; 0x67dc
    669c:	e59f213c 	ldr	r2, [pc, #316]	; 0x67e0
    66a0:	e591c1a8 	ldr	ip, [r1, #424]	; 0x1a8
    66a4:	e59f3138 	ldr	r3, [pc, #312]	; 0x67e4
    66a8:	e59251a8 	ldr	r5, [r2, #424]	; 0x1a8
    66ac:	e1a06c00 	lsl	r6, r0, #24
    66b0:	e185500c 	orr	r5, r5, ip
    66b4:	e1866800 	orr	r6, r6, r0, lsl #16
    66b8:	e593c1a8 	ldr	ip, [r3, #424]	; 0x1a8
    66bc:	e1867400 	orr	r7, r6, r0, lsl #8
    66c0:	e185500c 	orr	r5, r5, ip
    66c4:	e1870000 	orr	r0, r7, r0
    66c8:	e59fc118 	ldr	ip, [pc, #280]	; 0x67e8
    66cc:	e005500c 	and	r5, r5, ip
    66d0:	e1805005 	orr	r5, r0, r5
    66d4:	e58151a8 	str	r5, [r1, #424]	; 0x1a8
    66d8:	e58251a8 	str	r5, [r2, #424]	; 0x1a8
    66dc:	e58351a8 	str	r5, [r3, #424]	; 0x1a8
    66e0:	e59151ac 	ldr	r5, [r1, #428]	; 0x1ac
    66e4:	e59281ac 	ldr	r8, [r2, #428]	; 0x1ac
    66e8:	e1885005 	orr	r5, r8, r5
    66ec:	e59381ac 	ldr	r8, [r3, #428]	; 0x1ac
    66f0:	e1855008 	orr	r5, r5, r8
    66f4:	e005500c 	and	r5, r5, ip
    66f8:	e1805005 	orr	r5, r0, r5
    66fc:	e58151ac 	str	r5, [r1, #428]	; 0x1ac
    6700:	e58251ac 	str	r5, [r2, #428]	; 0x1ac
    6704:	e58351ac 	str	r5, [r3, #428]	; 0x1ac
    6708:	e59151b0 	ldr	r5, [r1, #432]	; 0x1b0
    670c:	e59281b0 	ldr	r8, [r2, #432]	; 0x1b0
    6710:	e1885005 	orr	r5, r8, r5
    6714:	e59381b0 	ldr	r8, [r3, #432]	; 0x1b0
    6718:	e1855008 	orr	r5, r5, r8
    671c:	e005500c 	and	r5, r5, ip
    6720:	e1805005 	orr	r5, r0, r5
    6724:	e58151b0 	str	r5, [r1, #432]	; 0x1b0
    6728:	e58251b0 	str	r5, [r2, #432]	; 0x1b0
    672c:	e58351b0 	str	r5, [r3, #432]	; 0x1b0
    6730:	e59151b4 	ldr	r5, [r1, #436]	; 0x1b4
    6734:	e59281b4 	ldr	r8, [r2, #436]	; 0x1b4
    6738:	e1885005 	orr	r5, r8, r5
    673c:	e59381b4 	ldr	r8, [r3, #436]	; 0x1b4
    6740:	e1855008 	orr	r5, r5, r8
    6744:	e005500c 	and	r5, r5, ip
    6748:	e1805005 	orr	r5, r0, r5
    674c:	e58151b4 	str	r5, [r1, #436]	; 0x1b4
    6750:	e58251b4 	str	r5, [r2, #436]	; 0x1b4
    6754:	e58351b4 	str	r5, [r3, #436]	; 0x1b4
    6758:	e59151b8 	ldr	r5, [r1, #440]	; 0x1b8
    675c:	e59281b8 	ldr	r8, [r2, #440]	; 0x1b8
    6760:	e1885005 	orr	r5, r8, r5
    6764:	e59381b8 	ldr	r8, [r3, #440]	; 0x1b8
    6768:	e1855008 	orr	r5, r5, r8
    676c:	e005c00c 	and	ip, r5, ip
    6770:	e180000c 	orr	r0, r0, ip
    6774:	e58101b8 	str	r0, [r1, #440]	; 0x1b8
    6778:	e58201b8 	str	r0, [r2, #440]	; 0x1b8
    677c:	e58301b8 	str	r0, [r3, #440]	; 0x1b8
    6780:	e59101bc 	ldr	r0, [r1, #444]	; 0x1bc
    6784:	e592c1bc 	ldr	ip, [r2, #444]	; 0x1bc
    6788:	e18c0000 	orr	r0, ip, r0
    678c:	e593c1bc 	ldr	ip, [r3, #444]	; 0x1bc
    6790:	e180000c 	orr	r0, r0, ip
    6794:	e0004004 	and	r4, r0, r4
    6798:	e187c004 	orr	ip, r7, r4
    679c:	e581c1bc 	str	ip, [r1, #444]	; 0x1bc
    67a0:	e582c1bc 	str	ip, [r2, #444]	; 0x1bc
    67a4:	e583c1bc 	str	ip, [r3, #444]	; 0x1bc
    67a8:	e59101c0 	ldr	r0, [r1, #448]	; 0x1c0
    67ac:	e592c1c0 	ldr	ip, [r2, #448]	; 0x1c0
    67b0:	e18c0000 	orr	r0, ip, r0
    67b4:	e593c1c0 	ldr	ip, [r3, #448]	; 0x1c0
    67b8:	e180000c 	orr	r0, r0, ip
    67bc:	e3c0040f 	bic	r0, r0, #251658240	; 0xf000000
    67c0:	e3c0080f 	bic	r0, r0, #983040	; 0xf0000
    67c4:	e1860000 	orr	r0, r6, r0
    67c8:	e58101c0 	str	r0, [r1, #448]	; 0x1c0
    67cc:	e58201c0 	str	r0, [r2, #448]	; 0x1c0
    67d0:	e58301c0 	str	r0, [r3, #448]	; 0x1c0
    67d4:	e8bd81f0 	pop	{r4, r5, r6, r7, r8, pc}
    67d8:	e0e0e0ef 	rsc	lr, r0, pc, ror #1
    67dc:	10207000 	eorne	r7, r0, r0
    67e0:	10208000 	eorne	r8, r0, r0
    67e4:	10206000 	eorne	r6, r0, r0
    67e8:	e0e0e0e0 	rsc	lr, r0, r0, ror #1
    67ec:	e92d41f0 	push	{r4, r5, r6, r7, r8, lr}
    67f0:	eb000971 	bl	0x8dbc
    67f4:	e59f11a0 	ldr	r1, [pc, #416]	; 0x699c
    67f8:	e59f21a0 	ldr	r2, [pc, #416]	; 0x69a0
    67fc:	e591c0b4 	ldr	ip, [r1, #180]	; 0xb4
    6800:	e59f319c 	ldr	r3, [pc, #412]	; 0x69a4
    6804:	e59270b4 	ldr	r7, [r2, #180]	; 0xb4
    6808:	e1a04e00 	lsl	r4, r0, #28
    680c:	e187700c 	orr	r7, r7, ip
    6810:	e200000f 	and	r0, r0, #15
    6814:	e593c0b4 	ldr	ip, [r3, #180]	; 0xb4
    6818:	e1a05c00 	lsl	r5, r0, #24
    681c:	e187700c 	orr	r7, r7, ip
    6820:	e1a00400 	lsl	r0, r0, #8
    6824:	e1a0c824 	lsr	ip, r4, #16
    6828:	e3c77cff 	bic	r7, r7, #65280	; 0xff00
    682c:	e18c6000 	orr	r6, ip, r0
    6830:	e1867007 	orr	r7, r6, r7
    6834:	e58170b4 	str	r7, [r1, #180]	; 0xb4
    6838:	e59170b4 	ldr	r7, [r1, #180]	; 0xb4
    683c:	e59280b4 	ldr	r8, [r2, #180]	; 0xb4
    6840:	e1887007 	orr	r7, r8, r7
    6844:	e59380b4 	ldr	r8, [r3, #180]	; 0xb4
    6848:	e1877008 	orr	r7, r7, r8
    684c:	e3c77cff 	bic	r7, r7, #65280	; 0xff00
    6850:	e1867007 	orr	r7, r6, r7
    6854:	e58270b4 	str	r7, [r2, #180]	; 0xb4
    6858:	e59170b4 	ldr	r7, [r1, #180]	; 0xb4
    685c:	e59280b4 	ldr	r8, [r2, #180]	; 0xb4
    6860:	e1887007 	orr	r7, r8, r7
    6864:	e59380b4 	ldr	r8, [r3, #180]	; 0xb4
    6868:	e1877008 	orr	r7, r7, r8
    686c:	e3c77cff 	bic	r7, r7, #65280	; 0xff00
    6870:	e1866007 	orr	r6, r6, r7
    6874:	e58360b4 	str	r6, [r3, #180]	; 0xb4
    6878:	e59160b8 	ldr	r6, [r1, #184]	; 0xb8
    687c:	e59270b8 	ldr	r7, [r2, #184]	; 0xb8
    6880:	e1876006 	orr	r6, r7, r6
    6884:	e59370b8 	ldr	r7, [r3, #184]	; 0xb8
    6888:	e1866007 	orr	r6, r6, r7
    688c:	e3c664ff 	bic	r6, r6, #-16777216	; 0xff000000
    6890:	e3c66cff 	bic	r6, r6, #65280	; 0xff00
    6894:	e1846006 	orr	r6, r4, r6
    6898:	e1866000 	orr	r6, r6, r0
    689c:	e186600c 	orr	r6, r6, ip
    68a0:	e1866005 	orr	r6, r6, r5
    68a4:	e58160b8 	str	r6, [r1, #184]	; 0xb8
    68a8:	e59160b8 	ldr	r6, [r1, #184]	; 0xb8
    68ac:	e59270b8 	ldr	r7, [r2, #184]	; 0xb8
    68b0:	e1876006 	orr	r6, r7, r6
    68b4:	e59370b8 	ldr	r7, [r3, #184]	; 0xb8
    68b8:	e1866007 	orr	r6, r6, r7
    68bc:	e3c664ff 	bic	r6, r6, #-16777216	; 0xff000000
    68c0:	e3c66cff 	bic	r6, r6, #65280	; 0xff00
    68c4:	e1846006 	orr	r6, r4, r6
    68c8:	e1866000 	orr	r6, r6, r0
    68cc:	e186600c 	orr	r6, r6, ip
    68d0:	e1866005 	orr	r6, r6, r5
    68d4:	e58260b8 	str	r6, [r2, #184]	; 0xb8
    68d8:	e59160b8 	ldr	r6, [r1, #184]	; 0xb8
    68dc:	e59270b8 	ldr	r7, [r2, #184]	; 0xb8
    68e0:	e1876006 	orr	r6, r7, r6
    68e4:	e59370b8 	ldr	r7, [r3, #184]	; 0xb8
    68e8:	e1866007 	orr	r6, r6, r7
    68ec:	e3c664ff 	bic	r6, r6, #-16777216	; 0xff000000
    68f0:	e3c66cff 	bic	r6, r6, #65280	; 0xff00
    68f4:	e1846006 	orr	r6, r4, r6
    68f8:	e1866000 	orr	r6, r6, r0
    68fc:	e186600c 	orr	r6, r6, ip
    6900:	e1866005 	orr	r6, r6, r5
    6904:	e58360b8 	str	r6, [r3, #184]	; 0xb8
    6908:	e59160bc 	ldr	r6, [r1, #188]	; 0xbc
    690c:	e59270bc 	ldr	r7, [r2, #188]	; 0xbc
    6910:	e1876006 	orr	r6, r7, r6
    6914:	e59370bc 	ldr	r7, [r3, #188]	; 0xbc
    6918:	e1866007 	orr	r6, r6, r7
    691c:	e3c664ff 	bic	r6, r6, #-16777216	; 0xff000000
    6920:	e3c66cff 	bic	r6, r6, #65280	; 0xff00
    6924:	e1846006 	orr	r6, r4, r6
    6928:	e1866000 	orr	r6, r6, r0
    692c:	e186600c 	orr	r6, r6, ip
    6930:	e1866005 	orr	r6, r6, r5
    6934:	e58160bc 	str	r6, [r1, #188]	; 0xbc
    6938:	e59160bc 	ldr	r6, [r1, #188]	; 0xbc
    693c:	e59270bc 	ldr	r7, [r2, #188]	; 0xbc
    6940:	e1876006 	orr	r6, r7, r6
    6944:	e59370bc 	ldr	r7, [r3, #188]	; 0xbc
    6948:	e1866007 	orr	r6, r6, r7
    694c:	e3c664ff 	bic	r6, r6, #-16777216	; 0xff000000
    6950:	e3c66cff 	bic	r6, r6, #65280	; 0xff00
    6954:	e1846006 	orr	r6, r4, r6
    6958:	e1866000 	orr	r6, r6, r0
    695c:	e186600c 	orr	r6, r6, ip
    6960:	e1866005 	orr	r6, r6, r5
    6964:	e58260bc 	str	r6, [r2, #188]	; 0xbc
    6968:	e59110bc 	ldr	r1, [r1, #188]	; 0xbc
    696c:	e59220bc 	ldr	r2, [r2, #188]	; 0xbc
    6970:	e1822001 	orr	r2, r2, r1
    6974:	e59310bc 	ldr	r1, [r3, #188]	; 0xbc
    6978:	e1822001 	orr	r2, r2, r1
    697c:	e3c224ff 	bic	r2, r2, #-16777216	; 0xff000000
    6980:	e3c22cff 	bic	r2, r2, #65280	; 0xff00
    6984:	e1844002 	orr	r4, r4, r2
    6988:	e1840000 	orr	r0, r4, r0
    698c:	e180c00c 	orr	ip, r0, ip
    6990:	e18c5005 	orr	r5, ip, r5
    6994:	e58350bc 	str	r5, [r3, #188]	; 0xbc
    6998:	e8bd81f0 	pop	{r4, r5, r6, r7, r8, pc}
    699c:	10207000 	eorne	r7, r0, r0
    69a0:	10208000 	eorne	r8, r0, r0
    69a4:	10206000 	eorne	r6, r0, r0
    69a8:	e92d4070 	push	{r4, r5, r6, lr}
    69ac:	eb000902 	bl	0x8dbc
    69b0:	e59fc074 	ldr	ip, [pc, #116]	; 0x6a2c
    69b4:	e200400f 	and	r4, r0, #15
    69b8:	e59f1070 	ldr	r1, [pc, #112]	; 0x6a30
    69bc:	e59f2070 	ldr	r2, [pc, #112]	; 0x6a34
    69c0:	e1a05e00 	lsl	r5, r0, #28
    69c4:	e1a03a04 	lsl	r3, r4, #20
    69c8:	e1a00200 	lsl	r0, r0, #4
    69cc:	e1833804 	orr	r3, r3, r4, lsl #16
    69d0:	e20000ff 	and	r0, r0, #255	; 0xff
    69d4:	e1833005 	orr	r3, r3, r5
    69d8:	e1800404 	orr	r0, r0, r4, lsl #8
    69dc:	e1833c04 	orr	r3, r3, r4, lsl #24
    69e0:	e1800004 	orr	r0, r0, r4
    69e4:	e1800825 	orr	r0, r0, r5, lsr #16
    69e8:	e58c0010 	str	r0, [ip, #16]
    69ec:	e1833000 	orr	r3, r3, r0
    69f0:	e5810010 	str	r0, [r1, #16]
    69f4:	e5820010 	str	r0, [r2, #16]
    69f8:	e58c3200 	str	r3, [ip, #512]	; 0x200
    69fc:	e5813200 	str	r3, [r1, #512]	; 0x200
    6a00:	e5823200 	str	r3, [r2, #512]	; 0x200
    6a04:	e58c3204 	str	r3, [ip, #516]	; 0x204
    6a08:	e5813204 	str	r3, [r1, #516]	; 0x204
    6a0c:	e5823204 	str	r3, [r2, #516]	; 0x204
    6a10:	e58c3208 	str	r3, [ip, #520]	; 0x208
    6a14:	e5813208 	str	r3, [r1, #520]	; 0x208
    6a18:	e5823208 	str	r3, [r2, #520]	; 0x208
    6a1c:	e58c320c 	str	r3, [ip, #524]	; 0x20c
    6a20:	e581320c 	str	r3, [r1, #524]	; 0x20c
    6a24:	e582320c 	str	r3, [r2, #524]	; 0x20c
    6a28:	e8bd8070 	pop	{r4, r5, r6, pc}
    6a2c:	10207000 	eorne	r7, r0, r0
    6a30:	10208000 	eorne	r8, r0, r0
    6a34:	10206000 	eorne	r6, r0, r0
    6a38:	e92d4070 	push	{r4, r5, r6, lr}
    6a3c:	eb0008de 	bl	0x8dbc
    6a40:	e59f10d8 	ldr	r1, [pc, #216]	; 0x6b20
    6a44:	e59f20d8 	ldr	r2, [pc, #216]	; 0x6b24
    6a48:	e591407c 	ldr	r4, [r1, #124]	; 0x7c
    6a4c:	e59f30d4 	ldr	r3, [pc, #212]	; 0x6b28
    6a50:	e592507c 	ldr	r5, [r2, #124]	; 0x7c
    6a54:	e7e0c1d0 	ubfx	ip, r0, #3, #1
    6a58:	e1854004 	orr	r4, r5, r4
    6a5c:	e1a0c20c 	lsl	ip, ip, #4
    6a60:	e593507c 	ldr	r5, [r3, #124]	; 0x7c
    6a64:	e2000007 	and	r0, r0, #7
    6a68:	e1844005 	orr	r4, r4, r5
    6a6c:	e1a00200 	lsl	r0, r0, #4
    6a70:	e3c44070 	bic	r4, r4, #112	; 0x70
    6a74:	e1804004 	orr	r4, r0, r4
    6a78:	e581407c 	str	r4, [r1, #124]	; 0x7c
    6a7c:	e591407c 	ldr	r4, [r1, #124]	; 0x7c
    6a80:	e592507c 	ldr	r5, [r2, #124]	; 0x7c
    6a84:	e1854004 	orr	r4, r5, r4
    6a88:	e593507c 	ldr	r5, [r3, #124]	; 0x7c
    6a8c:	e1844005 	orr	r4, r4, r5
    6a90:	e3c44070 	bic	r4, r4, #112	; 0x70
    6a94:	e1804004 	orr	r4, r0, r4
    6a98:	e582407c 	str	r4, [r2, #124]	; 0x7c
    6a9c:	e591407c 	ldr	r4, [r1, #124]	; 0x7c
    6aa0:	e592507c 	ldr	r5, [r2, #124]	; 0x7c
    6aa4:	e1854004 	orr	r4, r5, r4
    6aa8:	e593507c 	ldr	r5, [r3, #124]	; 0x7c
    6aac:	e1844005 	orr	r4, r4, r5
    6ab0:	e3c44070 	bic	r4, r4, #112	; 0x70
    6ab4:	e1800004 	orr	r0, r0, r4
    6ab8:	e583007c 	str	r0, [r3, #124]	; 0x7c
    6abc:	e59100e4 	ldr	r0, [r1, #228]	; 0xe4
    6ac0:	e59240e4 	ldr	r4, [r2, #228]	; 0xe4
    6ac4:	e1840000 	orr	r0, r4, r0
    6ac8:	e59340e4 	ldr	r4, [r3, #228]	; 0xe4
    6acc:	e1800004 	orr	r0, r0, r4
    6ad0:	e3c00010 	bic	r0, r0, #16
    6ad4:	e18c0000 	orr	r0, ip, r0
    6ad8:	e58100e4 	str	r0, [r1, #228]	; 0xe4
    6adc:	e59100e4 	ldr	r0, [r1, #228]	; 0xe4
    6ae0:	e59240e4 	ldr	r4, [r2, #228]	; 0xe4
    6ae4:	e1840000 	orr	r0, r4, r0
    6ae8:	e59340e4 	ldr	r4, [r3, #228]	; 0xe4
    6aec:	e1800004 	orr	r0, r0, r4
    6af0:	e3c00010 	bic	r0, r0, #16
    6af4:	e18c0000 	orr	r0, ip, r0
    6af8:	e58200e4 	str	r0, [r2, #228]	; 0xe4
    6afc:	e59110e4 	ldr	r1, [r1, #228]	; 0xe4
    6b00:	e59220e4 	ldr	r2, [r2, #228]	; 0xe4
    6b04:	e1822001 	orr	r2, r2, r1
    6b08:	e59310e4 	ldr	r1, [r3, #228]	; 0xe4
    6b0c:	e1822001 	orr	r2, r2, r1
    6b10:	e3c22010 	bic	r2, r2, #16
    6b14:	e18cc002 	orr	ip, ip, r2
    6b18:	e583c0e4 	str	ip, [r3, #228]	; 0xe4
    6b1c:	e8bd8070 	pop	{r4, r5, r6, pc}
    6b20:	10207000 	eorne	r7, r0, r0
    6b24:	10208000 	eorne	r8, r0, r0
    6b28:	10206000 	eorne	r6, r0, r0
    6b2c:	e92d4070 	push	{r4, r5, r6, lr}
    6b30:	e59f320c 	ldr	r3, [pc, #524]	; 0x6d44
    6b34:	e59f520c 	ldr	r5, [pc, #524]	; 0x6d48
    6b38:	e08f5005 	add	r5, pc, r5
    6b3c:	e7953003 	ldr	r3, [r5, r3]
    6b40:	e5933000 	ldr	r3, [r3]
    6b44:	e3530000 	cmp	r3, #0
    6b48:	1a000005 	bne	0x6b64
    6b4c:	e59f31f8 	ldr	r3, [pc, #504]	; 0x6d4c
    6b50:	e7953003 	ldr	r3, [r5, r3]
    6b54:	e5930000 	ldr	r0, [r3]
    6b58:	ebfffb04 	bl	0x5770
    6b5c:	e59f31ec 	ldr	r3, [pc, #492]	; 0x6d50
    6b60:	ea000004 	b	0x6b78
    6b64:	e59f31e8 	ldr	r3, [pc, #488]	; 0x6d54
    6b68:	e7953003 	ldr	r3, [r5, r3]
    6b6c:	e5930000 	ldr	r0, [r3]
    6b70:	ebfffafe 	bl	0x5770
    6b74:	e59f31dc 	ldr	r3, [pc, #476]	; 0x6d58
    6b78:	e7953003 	ldr	r3, [r5, r3]
    6b7c:	e5930000 	ldr	r0, [r3]
    6b80:	ebfffb56 	bl	0x58e0
    6b84:	e59f31d0 	ldr	r3, [pc, #464]	; 0x6d5c
    6b88:	e7953003 	ldr	r3, [r5, r3]
    6b8c:	e5930000 	ldr	r0, [r3]
    6b90:	ebffffa8 	bl	0x6a38
    6b94:	e59f41c4 	ldr	r4, [pc, #452]	; 0x6d60
    6b98:	e08f4004 	add	r4, pc, r4
    6b9c:	e5943000 	ldr	r3, [r4]
    6ba0:	e3530000 	cmp	r3, #0
    6ba4:	1a00003e 	bne	0x6ca4
    6ba8:	ebfff66a 	bl	0x4558
    6bac:	e3500000 	cmp	r0, #0
    6bb0:	b8bd8070 	poplt	{r4, r5, r6, pc}
    6bb4:	e59f31a8 	ldr	r3, [pc, #424]	; 0x6d64
    6bb8:	e59f11a8 	ldr	r1, [pc, #424]	; 0x6d68
    6bbc:	e59f21a8 	ldr	r2, [pc, #424]	; 0x6d6c
    6bc0:	e3a00001 	mov	r0, #1
    6bc4:	e5840000 	str	r0, [r4]
    6bc8:	e5910210 	ldr	r0, [r1, #528]	; 0x210
    6bcc:	e592c210 	ldr	ip, [r2, #528]	; 0x210
    6bd0:	e18c0000 	orr	r0, ip, r0
    6bd4:	e593c210 	ldr	ip, [r3, #528]	; 0x210
    6bd8:	e180000c 	orr	r0, r0, ip
    6bdc:	e5840004 	str	r0, [r4, #4]
    6be0:	e5910214 	ldr	r0, [r1, #532]	; 0x214
    6be4:	e592c214 	ldr	ip, [r2, #532]	; 0x214
    6be8:	e18c0000 	orr	r0, ip, r0
    6bec:	e593c214 	ldr	ip, [r3, #532]	; 0x214
    6bf0:	e180000c 	orr	r0, r0, ip
    6bf4:	e5840008 	str	r0, [r4, #8]
    6bf8:	e5910218 	ldr	r0, [r1, #536]	; 0x218
    6bfc:	e592c218 	ldr	ip, [r2, #536]	; 0x218
    6c00:	e18c0000 	orr	r0, ip, r0
    6c04:	e593c218 	ldr	ip, [r3, #536]	; 0x218
    6c08:	e180000c 	orr	r0, r0, ip
    6c0c:	e584000c 	str	r0, [r4, #12]
    6c10:	e591021c 	ldr	r0, [r1, #540]	; 0x21c
    6c14:	e592c21c 	ldr	ip, [r2, #540]	; 0x21c
    6c18:	e18c0000 	orr	r0, ip, r0
    6c1c:	e593c21c 	ldr	ip, [r3, #540]	; 0x21c
    6c20:	e180000c 	orr	r0, r0, ip
    6c24:	e5840010 	str	r0, [r4, #16]
    6c28:	e5910220 	ldr	r0, [r1, #544]	; 0x220
    6c2c:	e592c220 	ldr	ip, [r2, #544]	; 0x220
    6c30:	e18c0000 	orr	r0, ip, r0
    6c34:	e593c220 	ldr	ip, [r3, #544]	; 0x220
    6c38:	e180000c 	orr	r0, r0, ip
    6c3c:	e5840014 	str	r0, [r4, #20]
    6c40:	e5910224 	ldr	r0, [r1, #548]	; 0x224
    6c44:	e592c224 	ldr	ip, [r2, #548]	; 0x224
    6c48:	e18c0000 	orr	r0, ip, r0
    6c4c:	e593c224 	ldr	ip, [r3, #548]	; 0x224
    6c50:	e180000c 	orr	r0, r0, ip
    6c54:	e5840018 	str	r0, [r4, #24]
    6c58:	e5910228 	ldr	r0, [r1, #552]	; 0x228
    6c5c:	e592c228 	ldr	ip, [r2, #552]	; 0x228
    6c60:	e18c0000 	orr	r0, ip, r0
    6c64:	e593c228 	ldr	ip, [r3, #552]	; 0x228
    6c68:	e180000c 	orr	r0, r0, ip
    6c6c:	e584001c 	str	r0, [r4, #28]
    6c70:	e591022c 	ldr	r0, [r1, #556]	; 0x22c
    6c74:	e592c22c 	ldr	ip, [r2, #556]	; 0x22c
    6c78:	e18c0000 	orr	r0, ip, r0
    6c7c:	e593c22c 	ldr	ip, [r3, #556]	; 0x22c
    6c80:	e180000c 	orr	r0, r0, ip
    6c84:	e5840020 	str	r0, [r4, #32]
    6c88:	e5911018 	ldr	r1, [r1, #24]
    6c8c:	e5922018 	ldr	r2, [r2, #24]
    6c90:	e1821001 	orr	r1, r2, r1
    6c94:	e5932018 	ldr	r2, [r3, #24]
    6c98:	e1813002 	orr	r3, r1, r2
    6c9c:	e5843024 	str	r3, [r4, #36]	; 0x24
    6ca0:	e8bd8070 	pop	{r4, r5, r6, pc}
    6ca4:	e5940004 	ldr	r0, [r4, #4]
    6ca8:	e59f10b8 	ldr	r1, [pc, #184]	; 0x6d68
    6cac:	e59f20b8 	ldr	r2, [pc, #184]	; 0x6d6c
    6cb0:	e5810210 	str	r0, [r1, #528]	; 0x210
    6cb4:	e59f30a8 	ldr	r3, [pc, #168]	; 0x6d64
    6cb8:	e5820210 	str	r0, [r2, #528]	; 0x210
    6cbc:	e5830210 	str	r0, [r3, #528]	; 0x210
    6cc0:	e5940008 	ldr	r0, [r4, #8]
    6cc4:	e5810214 	str	r0, [r1, #532]	; 0x214
    6cc8:	e5820214 	str	r0, [r2, #532]	; 0x214
    6ccc:	e5830214 	str	r0, [r3, #532]	; 0x214
    6cd0:	e594000c 	ldr	r0, [r4, #12]
    6cd4:	e5810218 	str	r0, [r1, #536]	; 0x218
    6cd8:	e5820218 	str	r0, [r2, #536]	; 0x218
    6cdc:	e5830218 	str	r0, [r3, #536]	; 0x218
    6ce0:	e5940010 	ldr	r0, [r4, #16]
    6ce4:	e581021c 	str	r0, [r1, #540]	; 0x21c
    6ce8:	e582021c 	str	r0, [r2, #540]	; 0x21c
    6cec:	e583021c 	str	r0, [r3, #540]	; 0x21c
    6cf0:	e5940014 	ldr	r0, [r4, #20]
    6cf4:	e5810220 	str	r0, [r1, #544]	; 0x220
    6cf8:	e5820220 	str	r0, [r2, #544]	; 0x220
    6cfc:	e5830220 	str	r0, [r3, #544]	; 0x220
    6d00:	e5940018 	ldr	r0, [r4, #24]
    6d04:	e5810224 	str	r0, [r1, #548]	; 0x224
    6d08:	e5820224 	str	r0, [r2, #548]	; 0x224
    6d0c:	e5830224 	str	r0, [r3, #548]	; 0x224
    6d10:	e594001c 	ldr	r0, [r4, #28]
    6d14:	e5810228 	str	r0, [r1, #552]	; 0x228
    6d18:	e5820228 	str	r0, [r2, #552]	; 0x228
    6d1c:	e5830228 	str	r0, [r3, #552]	; 0x228
    6d20:	e5940020 	ldr	r0, [r4, #32]
    6d24:	e581022c 	str	r0, [r1, #556]	; 0x22c
    6d28:	e582022c 	str	r0, [r2, #556]	; 0x22c
    6d2c:	e583022c 	str	r0, [r3, #556]	; 0x22c
    6d30:	e5940024 	ldr	r0, [r4, #36]	; 0x24
    6d34:	e5810018 	str	r0, [r1, #24]
    6d38:	e5820018 	str	r0, [r2, #24]
    6d3c:	e5830018 	str	r0, [r3, #24]
    6d40:	e8bd8070 	pop	{r4, r5, r6, pc}
    6d44:	00000068 	andeq	r0, r0, r8, rrx
    6d48:	0000a4cc 	andeq	sl, r0, ip, asr #9
    6d4c:	00000018 	andeq	r0, r0, r8, lsl r0
    6d50:	00000058 	andeq	r0, r0, r8, asr r0
    6d54:	000000bc 	strheq	r0, [r0], -ip
    6d58:	0000009c 	muleq	r0, ip, r0
    6d5c:	000000b0 	strheq	r0, [r0], -r0	; <UNPREDICTABLE>
    6d60:	0000c1b8 			; <UNDEFINED> instruction: 0x0000c1b8
    6d64:	10206000 	eorne	r6, r0, r0
    6d68:	10207000 	eorne	r7, r0, r0
    6d6c:	10208000 	eorne	r8, r0, r0
    6d70:	e92d41f0 	push	{r4, r5, r6, r7, r8, lr}
    6d74:	e3a07064 	mov	r7, #100	; 0x64
    6d78:	eb00080f 	bl	0x8dbc
    6d7c:	e3a06000 	mov	r6, #0
    6d80:	e59f1128 	ldr	r1, [pc, #296]	; 0x6eb0
    6d84:	e59f2128 	ldr	r2, [pc, #296]	; 0x6eb4
    6d88:	e591c008 	ldr	ip, [r1, #8]
    6d8c:	e59f3124 	ldr	r3, [pc, #292]	; 0x6eb8
    6d90:	e5925008 	ldr	r5, [r2, #8]
    6d94:	e185500c 	orr	r5, r5, ip
    6d98:	e593c008 	ldr	ip, [r3, #8]
    6d9c:	e185500c 	orr	r5, r5, ip
    6da0:	e591c1dc 	ldr	ip, [r1, #476]	; 0x1dc
    6da4:	e59241dc 	ldr	r4, [r2, #476]	; 0x1dc
    6da8:	e184400c 	orr	r4, r4, ip
    6dac:	e593c1dc 	ldr	ip, [r3, #476]	; 0x1dc
    6db0:	e184400c 	orr	r4, r4, ip
    6db4:	e591c004 	ldr	ip, [r1, #4]
    6db8:	e5928004 	ldr	r8, [r2, #4]
    6dbc:	e188c00c 	orr	ip, r8, ip
    6dc0:	e5938004 	ldr	r8, [r3, #4]
    6dc4:	e18cc008 	orr	ip, ip, r8
    6dc8:	e5918008 	ldr	r8, [r1, #8]
    6dcc:	e3c880ff 	bic	r8, r8, #255	; 0xff
    6dd0:	e5818008 	str	r8, [r1, #8]
    6dd4:	e5928008 	ldr	r8, [r2, #8]
    6dd8:	e3c880ff 	bic	r8, r8, #255	; 0xff
    6ddc:	e5828008 	str	r8, [r2, #8]
    6de0:	e5938008 	ldr	r8, [r3, #8]
    6de4:	e3c880ff 	bic	r8, r8, #255	; 0xff
    6de8:	e5838008 	str	r8, [r3, #8]
    6dec:	e59181dc 	ldr	r8, [r1, #476]	; 0x1dc
    6df0:	e3c888ff 	bic	r8, r8, #16711680	; 0xff0000
    6df4:	e58181dc 	str	r8, [r1, #476]	; 0x1dc
    6df8:	e59281dc 	ldr	r8, [r2, #476]	; 0x1dc
    6dfc:	e3c888ff 	bic	r8, r8, #16711680	; 0xff0000
    6e00:	e58281dc 	str	r8, [r2, #476]	; 0x1dc
    6e04:	e59381dc 	ldr	r8, [r3, #476]	; 0x1dc
    6e08:	e3c888ff 	bic	r8, r8, #16711680	; 0xff0000
    6e0c:	e58381dc 	str	r8, [r3, #476]	; 0x1dc
    6e10:	e5918004 	ldr	r8, [r1, #4]
    6e14:	e3c88902 	bic	r8, r8, #32768	; 0x8000
    6e18:	e5818004 	str	r8, [r1, #4]
    6e1c:	e5928004 	ldr	r8, [r2, #4]
    6e20:	e3c88902 	bic	r8, r8, #32768	; 0x8000
    6e24:	e5828004 	str	r8, [r2, #4]
    6e28:	e5938004 	ldr	r8, [r3, #4]
    6e2c:	e3c88902 	bic	r8, r8, #32768	; 0x8000
    6e30:	e5838004 	str	r8, [r3, #4]
    6e34:	e1a06007 	mov	r6, r7
    6e38:	e2566001 	subs	r6, r6, #1
    6e3c:	1afffffd 	bne	0x6e38
    6e40:	e3a06000 	mov	r6, #0
    6e44:	e200000f 	and	r0, r0, #15
    6e48:	e58161e4 	str	r6, [r1, #484]	; 0x1e4
    6e4c:	e1a00800 	lsl	r0, r0, #16
    6e50:	e58261e4 	str	r6, [r2, #484]	; 0x1e4
    6e54:	e3800003 	orr	r0, r0, #3
    6e58:	e58361e4 	str	r6, [r3, #484]	; 0x1e4
    6e5c:	e5810088 	str	r0, [r1, #136]	; 0x88
    6e60:	e5820088 	str	r0, [r2, #136]	; 0x88
    6e64:	e5830088 	str	r0, [r3, #136]	; 0x88
    6e68:	e3a00001 	mov	r0, #1
    6e6c:	e58101e4 	str	r0, [r1, #484]	; 0x1e4
    6e70:	e58201e4 	str	r0, [r2, #484]	; 0x1e4
    6e74:	e58301e4 	str	r0, [r3, #484]	; 0x1e4
    6e78:	e1a00006 	mov	r0, r6
    6e7c:	e1a00007 	mov	r0, r7
    6e80:	e2500001 	subs	r0, r0, #1
    6e84:	1afffffd 	bne	0x6e80
    6e88:	e5815008 	str	r5, [r1, #8]
    6e8c:	e5825008 	str	r5, [r2, #8]
    6e90:	e5835008 	str	r5, [r3, #8]
    6e94:	e58141dc 	str	r4, [r1, #476]	; 0x1dc
    6e98:	e58241dc 	str	r4, [r2, #476]	; 0x1dc
    6e9c:	e58341dc 	str	r4, [r3, #476]	; 0x1dc
    6ea0:	e581c004 	str	ip, [r1, #4]
    6ea4:	e582c004 	str	ip, [r2, #4]
    6ea8:	e583c004 	str	ip, [r3, #4]
    6eac:	e8bd81f0 	pop	{r4, r5, r6, r7, r8, pc}
    6eb0:	10207000 	eorne	r7, r0, r0
    6eb4:	10208000 	eorne	r8, r0, r0
    6eb8:	10206000 	eorne	r6, r0, r0
    6ebc:	e92d4010 	push	{r4, lr}
    6ec0:	e59f0014 	ldr	r0, [pc, #20]	; 0x6edc
    6ec4:	e08f0000 	add	r0, pc, r0
    6ec8:	ebfffe47 	bl	0x67ec
    6ecc:	e59f000c 	ldr	r0, [pc, #12]	; 0x6ee0
    6ed0:	e08f0000 	add	r0, pc, r0
    6ed4:	e8bd4010 	pop	{r4, lr}
    6ed8:	eaffffa4 	b	0x6d70
    6edc:	00005709 	andeq	r5, r0, r9, lsl #14
    6ee0:	00005847 	andeq	r5, r0, r7, asr #16
    6ee4:	e92d401f 	push	{r0, r1, r2, r3, r4, lr}
    6ee8:	e59f4084 	ldr	r4, [pc, #132]	; 0x6f74
    6eec:	eb0007b2 	bl	0x8dbc
    6ef0:	e08f4004 	add	r4, pc, r4
    6ef4:	e59f307c 	ldr	r3, [pc, #124]	; 0x6f78
    6ef8:	e7943003 	ldr	r3, [r4, r3]
    6efc:	e1a0c00d 	mov	ip, sp
    6f00:	e5931000 	ldr	r1, [r3]
    6f04:	e3a0407f 	mov	r4, #127	; 0x7f
    6f08:	e3a03000 	mov	r3, #0
    6f0c:	e20120ff 	and	r2, r1, #255	; 0xff
    6f10:	e1a01421 	lsr	r1, r1, #8
    6f14:	e0822000 	add	r2, r2, r0
    6f18:	e3520080 	cmp	r2, #128	; 0x80
    6f1c:	21a02004 	movcs	r2, r4
    6f20:	e78c2003 	str	r2, [ip, r3]
    6f24:	e2833004 	add	r3, r3, #4
    6f28:	e3530010 	cmp	r3, #16
    6f2c:	1afffff6 	bne	0x6f0c
    6f30:	e89d000e 	ldm	sp, {r1, r2, r3}
    6f34:	e202207f 	and	r2, r2, #127	; 0x7f
    6f38:	e203307f 	and	r3, r3, #127	; 0x7f
    6f3c:	e201107f 	and	r1, r1, #127	; 0x7f
    6f40:	e1a03803 	lsl	r3, r3, #16
    6f44:	e1832402 	orr	r2, r3, r2, lsl #8
    6f48:	e59d300c 	ldr	r3, [sp, #12]
    6f4c:	e1822001 	orr	r2, r2, r1
    6f50:	e203307f 	and	r3, r3, #127	; 0x7f
    6f54:	e1823c03 	orr	r3, r2, r3, lsl #24
    6f58:	e59f201c 	ldr	r2, [pc, #28]	; 0x6f7c
    6f5c:	e5823018 	str	r3, [r2, #24]
    6f60:	e2822a01 	add	r2, r2, #4096	; 0x1000
    6f64:	e5823018 	str	r3, [r2, #24]
    6f68:	e2422a02 	sub	r2, r2, #8192	; 0x2000
    6f6c:	e5823018 	str	r3, [r2, #24]
    6f70:	e8bd801f 	pop	{r0, r1, r2, r3, r4, pc}
    6f74:	0000a114 	andeq	sl, r0, r4, lsl r1
    6f78:	000000d0 	ldrdeq	r0, [r0], -r0	; <UNPREDICTABLE>
    6f7c:	10207000 	eorne	r7, r0, r0
    6f80:	eaffffd7 	b	0x6ee4
    6f84:	e92d4010 	push	{r4, lr}
    6f88:	eb00078b 	bl	0x8dbc
    6f8c:	e59f107c 	ldr	r1, [pc, #124]	; 0x7010
    6f90:	e59f207c 	ldr	r2, [pc, #124]	; 0x7014
    6f94:	e59f307c 	ldr	r3, [pc, #124]	; 0x7018
    6f98:	e200007f 	and	r0, r0, #127	; 0x7f
    6f9c:	e1a0c800 	lsl	ip, r0, #16
    6fa0:	e18cc400 	orr	ip, ip, r0, lsl #8
    6fa4:	e18cc000 	orr	ip, ip, r0
    6fa8:	e18c0c00 	orr	r0, ip, r0, lsl #24
    6fac:	e5810210 	str	r0, [r1, #528]	; 0x210
    6fb0:	e5820210 	str	r0, [r2, #528]	; 0x210
    6fb4:	e5830210 	str	r0, [r3, #528]	; 0x210
    6fb8:	e5810214 	str	r0, [r1, #532]	; 0x214
    6fbc:	e5820214 	str	r0, [r2, #532]	; 0x214
    6fc0:	e5830214 	str	r0, [r3, #532]	; 0x214
    6fc4:	e5810218 	str	r0, [r1, #536]	; 0x218
    6fc8:	e5820218 	str	r0, [r2, #536]	; 0x218
    6fcc:	e5830218 	str	r0, [r3, #536]	; 0x218
    6fd0:	e581021c 	str	r0, [r1, #540]	; 0x21c
    6fd4:	e582021c 	str	r0, [r2, #540]	; 0x21c
    6fd8:	e583021c 	str	r0, [r3, #540]	; 0x21c
    6fdc:	e5810220 	str	r0, [r1, #544]	; 0x220
    6fe0:	e5820220 	str	r0, [r2, #544]	; 0x220
    6fe4:	e5830220 	str	r0, [r3, #544]	; 0x220
    6fe8:	e5810224 	str	r0, [r1, #548]	; 0x224
    6fec:	e5820224 	str	r0, [r2, #548]	; 0x224
    6ff0:	e5830224 	str	r0, [r3, #548]	; 0x224
    6ff4:	e5810228 	str	r0, [r1, #552]	; 0x228
    6ff8:	e5820228 	str	r0, [r2, #552]	; 0x228
    6ffc:	e5830228 	str	r0, [r3, #552]	; 0x228
    7000:	e581022c 	str	r0, [r1, #556]	; 0x22c
    7004:	e582022c 	str	r0, [r2, #556]	; 0x22c
    7008:	e583022c 	str	r0, [r3, #556]	; 0x22c
    700c:	e8bd8010 	pop	{r4, pc}
    7010:	10207000 	eorne	r7, r0, r0
    7014:	10208000 	eorne	r8, r0, r0
    7018:	10206000 	eorne	r6, r0, r0
    701c:	e92d41f0 	push	{r4, r5, r6, r7, r8, lr}
    7020:	e1a04000 	mov	r4, r0
    7024:	eb000764 	bl	0x8dbc
    7028:	e59f3124 	ldr	r3, [pc, #292]	; 0x7154
    702c:	e59f1124 	ldr	r1, [pc, #292]	; 0x7158
    7030:	e59f2124 	ldr	r2, [pc, #292]	; 0x715c
    7034:	e591c014 	ldr	ip, [r1, #20]
    7038:	e1a0e000 	mov	lr, r0
    703c:	e5925014 	ldr	r5, [r2, #20]
    7040:	e1a00004 	mov	r0, r4
    7044:	e185500c 	orr	r5, r5, ip
    7048:	e1a04c0e 	lsl	r4, lr, #24
    704c:	e593c014 	ldr	ip, [r3, #20]
    7050:	e1a0620e 	lsl	r6, lr, #4
    7054:	e185500c 	orr	r5, r5, ip
    7058:	e20660ff 	and	r6, r6, #255	; 0xff
    705c:	e20ec00f 	and	ip, lr, #15
    7060:	e1a05825 	lsr	r5, r5, #16
    7064:	e1a0ee0e 	lsl	lr, lr, #28
    7068:	e1a05805 	lsl	r5, r5, #16
    706c:	e1a0e82e 	lsr	lr, lr, #16
    7070:	e18c7005 	orr	r7, ip, r5
    7074:	e1a0540c 	lsl	r5, ip, #8
    7078:	e1877006 	orr	r7, r7, r6
    707c:	e1877005 	orr	r7, r7, r5
    7080:	e187700e 	orr	r7, r7, lr
    7084:	e5817014 	str	r7, [r1, #20]
    7088:	e5917014 	ldr	r7, [r1, #20]
    708c:	e5928014 	ldr	r8, [r2, #20]
    7090:	e1887007 	orr	r7, r8, r7
    7094:	e5938014 	ldr	r8, [r3, #20]
    7098:	e1877008 	orr	r7, r7, r8
    709c:	e1a07827 	lsr	r7, r7, #16
    70a0:	e1a07807 	lsl	r7, r7, #16
    70a4:	e18c7007 	orr	r7, ip, r7
    70a8:	e1877006 	orr	r7, r7, r6
    70ac:	e1877005 	orr	r7, r7, r5
    70b0:	e187700e 	orr	r7, r7, lr
    70b4:	e5827014 	str	r7, [r2, #20]
    70b8:	e5917014 	ldr	r7, [r1, #20]
    70bc:	e5928014 	ldr	r8, [r2, #20]
    70c0:	e1887007 	orr	r7, r8, r7
    70c4:	e5938014 	ldr	r8, [r3, #20]
    70c8:	e1877008 	orr	r7, r7, r8
    70cc:	e1a07827 	lsr	r7, r7, #16
    70d0:	e1a07807 	lsl	r7, r7, #16
    70d4:	e18cc007 	orr	ip, ip, r7
    70d8:	e18c6006 	orr	r6, ip, r6
    70dc:	e1865005 	orr	r5, r6, r5
    70e0:	e185e00e 	orr	lr, r5, lr
    70e4:	e583e014 	str	lr, [r3, #20]
    70e8:	e591c00c 	ldr	ip, [r1, #12]
    70ec:	e592e00c 	ldr	lr, [r2, #12]
    70f0:	e18ec00c 	orr	ip, lr, ip
    70f4:	e593e00c 	ldr	lr, [r3, #12]
    70f8:	e18cc00e 	orr	ip, ip, lr
    70fc:	e3ccc40f 	bic	ip, ip, #251658240	; 0xf000000
    7100:	e184c00c 	orr	ip, r4, ip
    7104:	e581c00c 	str	ip, [r1, #12]
    7108:	e591c00c 	ldr	ip, [r1, #12]
    710c:	e592e00c 	ldr	lr, [r2, #12]
    7110:	e18ec00c 	orr	ip, lr, ip
    7114:	e593e00c 	ldr	lr, [r3, #12]
    7118:	e18cc00e 	orr	ip, ip, lr
    711c:	e3ccc40f 	bic	ip, ip, #251658240	; 0xf000000
    7120:	e184c00c 	orr	ip, r4, ip
    7124:	e582c00c 	str	ip, [r2, #12]
    7128:	e591100c 	ldr	r1, [r1, #12]
    712c:	e592200c 	ldr	r2, [r2, #12]
    7130:	e1822001 	orr	r2, r2, r1
    7134:	e593100c 	ldr	r1, [r3, #12]
    7138:	e1822001 	orr	r2, r2, r1
    713c:	e3c2240f 	bic	r2, r2, #251658240	; 0xf000000
    7140:	e1844002 	orr	r4, r4, r2
    7144:	e583400c 	str	r4, [r3, #12]
    7148:	ebfffd4f 	bl	0x668c
    714c:	e8bd41f0 	pop	{r4, r5, r6, r7, r8, lr}
    7150:	eafffb71 	b	0x5f1c
    7154:	10206000 	eorne	r6, r0, r0
    7158:	10207000 	eorne	r7, r0, r0
    715c:	10208000 	eorne	r8, r0, r0
    7160:	e92d4070 	push	{r4, r5, r6, lr}
    7164:	e1a04000 	mov	r4, r0
    7168:	eb000713 	bl	0x8dbc
    716c:	e59f3080 	ldr	r3, [pc, #128]	; 0x71f4
    7170:	e1a0cc00 	lsl	ip, r0, #24
    7174:	e59f107c 	ldr	r1, [pc, #124]	; 0x71f8
    7178:	e59f207c 	ldr	r2, [pc, #124]	; 0x71fc
    717c:	e591e00c 	ldr	lr, [r1, #12]
    7180:	e1a00004 	mov	r0, r4
    7184:	e592500c 	ldr	r5, [r2, #12]
    7188:	e185e00e 	orr	lr, r5, lr
    718c:	e593500c 	ldr	r5, [r3, #12]
    7190:	e18ee005 	orr	lr, lr, r5
    7194:	e3cee40f 	bic	lr, lr, #251658240	; 0xf000000
    7198:	e18ce00e 	orr	lr, ip, lr
    719c:	e581e00c 	str	lr, [r1, #12]
    71a0:	e591e00c 	ldr	lr, [r1, #12]
    71a4:	e592500c 	ldr	r5, [r2, #12]
    71a8:	e185e00e 	orr	lr, r5, lr
    71ac:	e593500c 	ldr	r5, [r3, #12]
    71b0:	e18ee005 	orr	lr, lr, r5
    71b4:	e3cee40f 	bic	lr, lr, #251658240	; 0xf000000
    71b8:	e18ce00e 	orr	lr, ip, lr
    71bc:	e582e00c 	str	lr, [r2, #12]
    71c0:	e591100c 	ldr	r1, [r1, #12]
    71c4:	e592200c 	ldr	r2, [r2, #12]
    71c8:	e1822001 	orr	r2, r2, r1
    71cc:	e593100c 	ldr	r1, [r3, #12]
    71d0:	e1822001 	orr	r2, r2, r1
    71d4:	e3c2240f 	bic	r2, r2, #251658240	; 0xf000000
    71d8:	e18cc002 	orr	ip, ip, r2
    71dc:	e583c00c 	str	ip, [r3, #12]
    71e0:	ebfffdf0 	bl	0x69a8
    71e4:	e1a00004 	mov	r0, r4
    71e8:	ebffff8b 	bl	0x701c
    71ec:	e8bd4070 	pop	{r4, r5, r6, lr}
    71f0:	eafffb49 	b	0x5f1c
    71f4:	10206000 	eorne	r6, r0, r0
    71f8:	10207000 	eorne	r7, r0, r0
    71fc:	10208000 	eorne	r8, r0, r0
    7200:	e92d45f0 	push	{r4, r5, r6, r7, r8, sl, lr}
    7204:	e59f30a4 	ldr	r3, [pc, #164]	; 0x72b0
    7208:	e24dd024 	sub	sp, sp, #36	; 0x24
    720c:	e59f50a0 	ldr	r5, [pc, #160]	; 0x72b4
    7210:	e3a02000 	mov	r2, #0
    7214:	e08f5005 	add	r5, pc, r5
    7218:	e59f7098 	ldr	r7, [pc, #152]	; 0x72b8
    721c:	e7953003 	ldr	r3, [r5, r3]
    7220:	e59f8094 	ldr	r8, [pc, #148]	; 0x72bc
    7224:	e08f8008 	add	r8, pc, r8
    7228:	e1a06003 	mov	r6, r3
    722c:	e5832000 	str	r2, [r3]
    7230:	e08f7007 	add	r7, pc, r7
    7234:	e288801c 	add	r8, r8, #28
    7238:	e28d4004 	add	r4, sp, #4
    723c:	e59fa07c 	ldr	sl, [pc, #124]	; 0x72c0
    7240:	ea00000d 	b	0x727c
    7244:	eb00081e 	bl	0x92c4
    7248:	e1a0c008 	mov	ip, r8
    724c:	e1a0e004 	mov	lr, r4
    7250:	e8bc000f 	ldm	ip!, {r0, r1, r2, r3}
    7254:	e8ae000f 	stmia	lr!, {r0, r1, r2, r3}
    7258:	e89c0007 	ldm	ip, {r0, r1, r2}
    725c:	e88e0007 	stm	lr, {r0, r1, r2}
    7260:	e3a00002 	mov	r0, #2
    7264:	e795100a 	ldr	r1, [r5, sl]
    7268:	e1a02004 	mov	r2, r4
    726c:	ebffe8d5 	bl	0x15c8
    7270:	e5963000 	ldr	r3, [r6]
    7274:	e2833001 	add	r3, r3, #1
    7278:	e5863000 	str	r3, [r6]
    727c:	e5963000 	ldr	r3, [r6]
    7280:	e1a00007 	mov	r0, r7
    7284:	e1a01003 	mov	r1, r3
    7288:	e3530003 	cmp	r3, #3
    728c:	daffffec 	ble	0x7244
    7290:	e59f402c 	ldr	r4, [pc, #44]	; 0x72c4
    7294:	e08f4004 	add	r4, pc, r4
    7298:	e1a00004 	mov	r0, r4
    729c:	ebfffcfa 	bl	0x668c
    72a0:	e1a00004 	mov	r0, r4
    72a4:	ebffffad 	bl	0x7160
    72a8:	e28dd024 	add	sp, sp, #36	; 0x24
    72ac:	e8bd85f0 	pop	{r4, r5, r6, r7, r8, sl, pc}
    72b0:	000000a8 	andeq	r0, r0, r8, lsr #1
    72b4:	00009df0 	strdeq	r9, [r0], -r0
    72b8:	000053fb 	strdeq	r5, [r0], -fp
    72bc:	0000a074 	andeq	sl, r0, r4, ror r0
    72c0:	0000003c 	andeq	r0, r0, ip, lsr r0
    72c4:	000052dd 	ldrdeq	r5, [r0], -sp
    72c8:	e92d4ff7 	push	{r0, r1, r2, r4, r5, r6, r7, r8, r9, sl, fp, lr}
    72cc:	e59f3108 	ldr	r3, [pc, #264]	; 0x73dc
    72d0:	e59f5108 	ldr	r5, [pc, #264]	; 0x73e0
    72d4:	e3a06000 	mov	r6, #0
    72d8:	e08f5005 	add	r5, pc, r5
    72dc:	e3027710 	movw	r7, #10000	; 0x2710
    72e0:	e7954003 	ldr	r4, [r5, r3]
    72e4:	e59f90f8 	ldr	r9, [pc, #248]	; 0x73e4
    72e8:	e9940007 	ldmib	r4, {r0, r1, r2}
    72ec:	e1a0e00f 	mov	lr, pc
    72f0:	e594f000 	ldr	pc, [r4]
    72f4:	e3500003 	cmp	r0, #3
    72f8:	1a000006 	bne	0x7318
    72fc:	e2840014 	add	r0, r4, #20
    7300:	e8900007 	ldm	r0, {r0, r1, r2}
    7304:	e1a0e00f 	mov	lr, pc
    7308:	e594f010 	ldr	pc, [r4, #16]
    730c:	e3500003 	cmp	r0, #3
    7310:	03a0b001 	moveq	fp, #1
    7314:	0a00001e 	beq	0x7394
    7318:	e3a00000 	mov	r0, #0
    731c:	ebffeba0 	bl	0x21a4
    7320:	e1a0a007 	mov	sl, r7
    7324:	e25aa001 	subs	sl, sl, #1
    7328:	1afffffd 	bne	0x7324
    732c:	e3a00001 	mov	r0, #1
    7330:	ebffeb9b 	bl	0x21a4
    7334:	e1a08007 	mov	r8, r7
    7338:	e2588001 	subs	r8, r8, #1
    733c:	1afffffd 	bne	0x7338
    7340:	ebfffdf9 	bl	0x6b2c
    7344:	eb000de3 	bl	0xaad8
    7348:	ebfffedb 	bl	0x6ebc
    734c:	ebfffdf6 	bl	0x6b2c
    7350:	e795b009 	ldr	fp, [r5, r9]
    7354:	e59b0008 	ldr	r0, [fp, #8]
    7358:	ebfffccb 	bl	0x668c
    735c:	e59b001c 	ldr	r0, [fp, #28]
    7360:	ebffff7e 	bl	0x7160
    7364:	e59b0044 	ldr	r0, [fp, #68]	; 0x44
    7368:	ebfffd1f 	bl	0x67ec
    736c:	e28b3050 	add	r3, fp, #80	; 0x50
    7370:	e59b0008 	ldr	r0, [fp, #8]
    7374:	e58d3004 	str	r3, [sp, #4]
    7378:	e1a0e00f 	mov	lr, pc
    737c:	e59bf010 	ldr	pc, [fp, #16]
    7380:	e28bb014 	add	fp, fp, #20
    7384:	e59d3004 	ldr	r3, [sp, #4]
    7388:	e15b0003 	cmp	fp, r3
    738c:	1afffff7 	bne	0x7370
    7390:	e3a0b000 	mov	fp, #0
    7394:	e19b3006 	orrs	r3, fp, r6
    7398:	03a06001 	moveq	r6, #1
    739c:	0affffd1 	beq	0x72e8
    73a0:	e35b0000 	cmp	fp, #0
    73a4:	059f003c 	ldreq	r0, [pc, #60]	; 0x73e8
    73a8:	008f0000 	addeq	r0, pc, r0
    73ac:	0a000007 	beq	0x73d0
    73b0:	e3560000 	cmp	r6, #0
    73b4:	059f0030 	ldreq	r0, [pc, #48]	; 0x73ec
    73b8:	008f0000 	addeq	r0, pc, r0
    73bc:	0a000003 	beq	0x73d0
    73c0:	e3560001 	cmp	r6, #1
    73c4:	1a000002 	bne	0x73d4
    73c8:	e59f0020 	ldr	r0, [pc, #32]	; 0x73f0
    73cc:	e08f0000 	add	r0, pc, r0
    73d0:	eb0007bb 	bl	0x92c4
    73d4:	e1a0000b 	mov	r0, fp
    73d8:	e8bd8ffe 	pop	{r1, r2, r3, r4, r5, r6, r7, r8, r9, sl, fp, pc}
    73dc:	000000f0 	strdeq	r0, [r0], -r0	; <UNPREDICTABLE>
    73e0:	00009d2c 	andeq	r9, r0, ip, lsr #26
    73e4:	00000080 	andeq	r0, r0, r0, lsl #1
    73e8:	000051c5 	andeq	r5, r0, r5, asr #3
    73ec:	000051bb 			; <UNDEFINED> instruction: 0x000051bb
    73f0:	00005272 	andeq	r5, r0, r2, ror r2
    73f4:	e3a0320f 	mov	r3, #-268435456	; 0xf0000000
    73f8:	e59f20a0 	ldr	r2, [pc, #160]	; 0x74a0
    73fc:	ea000001 	b	0x7408
    7400:	e4930004 	ldr	r0, [r3], #4
    7404:	e5810000 	str	r0, [r1]
    7408:	e1530002 	cmp	r3, r2
    740c:	e2831201 	add	r1, r3, #268435456	; 0x10000000
    7410:	1afffffa 	bne	0x7400
    7414:	e3a03000 	mov	r3, #0
    7418:	ea000005 	b	0x7434
    741c:	e5931000 	ldr	r1, [r3]
    7420:	e5922000 	ldr	r2, [r2]
    7424:	e1510002 	cmp	r1, r2
    7428:	13e02000 	mvnne	r2, #0
    742c:	1a000004 	bne	0x7444
    7430:	e2833004 	add	r3, r3, #4
    7434:	e3530903 	cmp	r3, #49152	; 0xc000
    7438:	e283220f 	add	r2, r3, #-268435456	; 0xf0000000
    743c:	1afffff6 	bne	0x741c
    7440:	e3a02000 	mov	r2, #0
    7444:	e3a0320f 	mov	r3, #-268435456	; 0xf0000000
    7448:	e59f1050 	ldr	r1, [pc, #80]	; 0x74a0
    744c:	ea000001 	b	0x7458
    7450:	e493c004 	ldr	ip, [r3], #4
    7454:	e580c000 	str	ip, [r0]
    7458:	e1530001 	cmp	r3, r1
    745c:	e2830201 	add	r0, r3, #268435456	; 0x10000000
    7460:	1afffffa 	bne	0x7450
    7464:	e3a03000 	mov	r3, #0
    7468:	ea000004 	b	0x7480
    746c:	e5930000 	ldr	r0, [r3]
    7470:	e5911000 	ldr	r1, [r1]
    7474:	e1500001 	cmp	r0, r1
    7478:	1a000006 	bne	0x7498
    747c:	e2833004 	add	r3, r3, #4
    7480:	e3530903 	cmp	r3, #49152	; 0xc000
    7484:	e283120f 	add	r1, r3, #-268435456	; 0xf0000000
    7488:	1afffff7 	bne	0x746c
    748c:	e3520000 	cmp	r2, #0
    7490:	03a00003 	moveq	r0, #3
    7494:	012fff1e 	bxeq	lr
    7498:	e3a00004 	mov	r0, #4
    749c:	e12fff1e 	bx	lr
    74a0:	f000c000 			; <UNDEFINED> instruction: 0xf000c000
    74a4:	e24dd008 	sub	sp, sp, #8
    74a8:	e3a03000 	mov	r3, #0
    74ac:	ea000002 	b	0x74bc
    74b0:	e5902000 	ldr	r2, [r0]
    74b4:	e2833001 	add	r3, r3, #1
    74b8:	e58d2004 	str	r2, [sp, #4]
    74bc:	e1530001 	cmp	r3, r1
    74c0:	1afffffa 	bne	0x74b0
    74c4:	e3a00003 	mov	r0, #3
    74c8:	e28dd008 	add	sp, sp, #8
    74cc:	e12fff1e 	bx	lr
    74d0:	e92d40f0 	push	{r4, r5, r6, r7, lr}
    74d4:	e1a03000 	mov	r3, r0
    74d8:	e0814000 	add	r4, r1, r0
    74dc:	e3a02000 	mov	r2, #0
    74e0:	ea000000 	b	0x74e8
    74e4:	e4c32001 	strb	r2, [r3], #1
    74e8:	e1530004 	cmp	r3, r4
    74ec:	1afffffc 	bne	0x74e4
    74f0:	e2411001 	sub	r1, r1, #1
    74f4:	e3a03000 	mov	r3, #0
    74f8:	e3e02000 	mvn	r2, #0
    74fc:	ea000007 	b	0x7520
    7500:	e7d3c000 	ldrb	ip, [r3, r0]
    7504:	e35c0000 	cmp	ip, #0
    7508:	1a000073 	bne	0x76dc
    750c:	e7c32000 	strb	r2, [r3, r0]
    7510:	e7d3c000 	ldrb	ip, [r3, r0]
    7514:	e35c00ff 	cmp	ip, #255	; 0xff
    7518:	1a00006f 	bne	0x76dc
    751c:	e2833001 	add	r3, r3, #1
    7520:	e1530001 	cmp	r3, r1
    7524:	9afffff5 	bls	0x7500
    7528:	e3a03000 	mov	r3, #0
    752c:	e1a02003 	mov	r2, r3
    7530:	ea000007 	b	0x7554
    7534:	e7d3c000 	ldrb	ip, [r3, r0]
    7538:	e35c00ff 	cmp	ip, #255	; 0xff
    753c:	1a000066 	bne	0x76dc
    7540:	e7c32000 	strb	r2, [r3, r0]
    7544:	e7d3c000 	ldrb	ip, [r3, r0]
    7548:	e35c0000 	cmp	ip, #0
    754c:	1a000062 	bne	0x76dc
    7550:	e2833001 	add	r3, r3, #1
    7554:	e1530001 	cmp	r3, r1
    7558:	9afffff5 	bls	0x7534
    755c:	e0813000 	add	r3, r1, r0
    7560:	e240c001 	sub	ip, r0, #1
    7564:	e1a02003 	mov	r2, r3
    7568:	e3e06000 	mvn	r6, #0
    756c:	e5d25000 	ldrb	r5, [r2]
    7570:	e3550000 	cmp	r5, #0
    7574:	1a000058 	bne	0x76dc
    7578:	e5c26000 	strb	r6, [r2]
    757c:	e5d27000 	ldrb	r7, [r2]
    7580:	e35700ff 	cmp	r7, #255	; 0xff
    7584:	1a000054 	bne	0x76dc
    7588:	e2422001 	sub	r2, r2, #1
    758c:	e152000c 	cmp	r2, ip
    7590:	1afffff5 	bne	0x756c
    7594:	e1a02003 	mov	r2, r3
    7598:	e5d26000 	ldrb	r6, [r2]
    759c:	e35600ff 	cmp	r6, #255	; 0xff
    75a0:	1a00004d 	bne	0x76dc
    75a4:	e5c25000 	strb	r5, [r2]
    75a8:	e5d26000 	ldrb	r6, [r2]
    75ac:	e3560000 	cmp	r6, #0
    75b0:	1a000049 	bne	0x76dc
    75b4:	e2422001 	sub	r2, r2, #1
    75b8:	e152000c 	cmp	r2, ip
    75bc:	1afffff5 	bne	0x7598
    75c0:	e1a02003 	mov	r2, r3
    75c4:	e5d25000 	ldrb	r5, [r2]
    75c8:	e3550000 	cmp	r5, #0
    75cc:	1a000042 	bne	0x76dc
    75d0:	e2422001 	sub	r2, r2, #1
    75d4:	e152000c 	cmp	r2, ip
    75d8:	1afffff9 	bne	0x75c4
    75dc:	e1a02000 	mov	r2, r0
    75e0:	e3e05000 	mvn	r5, #0
    75e4:	ea000000 	b	0x75ec
    75e8:	e4c25001 	strb	r5, [r2], #1
    75ec:	e1520004 	cmp	r2, r4
    75f0:	1afffffc 	bne	0x75e8
    75f4:	e3a02000 	mov	r2, #0
    75f8:	e1a04002 	mov	r4, r2
    75fc:	ea000007 	b	0x7620
    7600:	e7d25000 	ldrb	r5, [r2, r0]
    7604:	e35500ff 	cmp	r5, #255	; 0xff
    7608:	1a000033 	bne	0x76dc
    760c:	e7c24000 	strb	r4, [r2, r0]
    7610:	e7d25000 	ldrb	r5, [r2, r0]
    7614:	e3550000 	cmp	r5, #0
    7618:	1a00002f 	bne	0x76dc
    761c:	e2822001 	add	r2, r2, #1
    7620:	e1520001 	cmp	r2, r1
    7624:	9afffff5 	bls	0x7600
    7628:	e2802001 	add	r2, r0, #1
    762c:	e0821001 	add	r1, r2, r1
    7630:	e3e02000 	mvn	r2, #0
    7634:	ea000006 	b	0x7654
    7638:	e5d04000 	ldrb	r4, [r0]
    763c:	e3540000 	cmp	r4, #0
    7640:	1a000025 	bne	0x76dc
    7644:	e5c02000 	strb	r2, [r0]
    7648:	e4d04001 	ldrb	r4, [r0], #1
    764c:	e35400ff 	cmp	r4, #255	; 0xff
    7650:	1a000021 	bne	0x76dc
    7654:	e1500001 	cmp	r0, r1
    7658:	1afffff6 	bne	0x7638
    765c:	e1a02003 	mov	r2, r3
    7660:	e3a01000 	mov	r1, #0
    7664:	e5d20000 	ldrb	r0, [r2]
    7668:	e35000ff 	cmp	r0, #255	; 0xff
    766c:	1a00001a 	bne	0x76dc
    7670:	e5c21000 	strb	r1, [r2]
    7674:	e5d20000 	ldrb	r0, [r2]
    7678:	e3500000 	cmp	r0, #0
    767c:	1a000016 	bne	0x76dc
    7680:	e2422001 	sub	r2, r2, #1
    7684:	e152000c 	cmp	r2, ip
    7688:	1afffff5 	bne	0x7664
    768c:	e1a02003 	mov	r2, r3
    7690:	e3e01000 	mvn	r1, #0
    7694:	e5d20000 	ldrb	r0, [r2]
    7698:	e3500000 	cmp	r0, #0
    769c:	1a00000e 	bne	0x76dc
    76a0:	e5c21000 	strb	r1, [r2]
    76a4:	e5d20000 	ldrb	r0, [r2]
    76a8:	e35000ff 	cmp	r0, #255	; 0xff
    76ac:	1a00000a 	bne	0x76dc
    76b0:	e2422001 	sub	r2, r2, #1
    76b4:	e152000c 	cmp	r2, ip
    76b8:	1afffff5 	bne	0x7694
    76bc:	e5d32000 	ldrb	r2, [r3]
    76c0:	e35200ff 	cmp	r2, #255	; 0xff
    76c4:	1a000004 	bne	0x76dc
    76c8:	e2433001 	sub	r3, r3, #1
    76cc:	e153000c 	cmp	r3, ip
    76d0:	1afffff9 	bne	0x76bc
    76d4:	e3a00003 	mov	r0, #3
    76d8:	e8bd80f0 	pop	{r4, r5, r6, r7, pc}
    76dc:	e3a00004 	mov	r0, #4
    76e0:	e8bd80f0 	pop	{r4, r5, r6, r7, pc}
    76e4:	e3a00003 	mov	r0, #3
    76e8:	e12fff1e 	bx	lr
    76ec:	e92d4010 	push	{r4, lr}
    76f0:	e59f3024 	ldr	r3, [pc, #36]	; 0x771c
    76f4:	e59f2024 	ldr	r2, [pc, #36]	; 0x7720
    76f8:	e08f3003 	add	r3, pc, r3
    76fc:	e7932002 	ldr	r2, [r3, r2]
    7700:	e9920003 	ldmib	r2, {r0, r1}
    7704:	e3e02000 	mvn	r2, #0
    7708:	ebfff66d 	bl	0x50c4
    770c:	e3500000 	cmp	r0, #0
    7710:	13a00004 	movne	r0, #4
    7714:	03a00003 	moveq	r0, #3
    7718:	e8bd8010 	pop	{r4, pc}
    771c:	0000990c 	andeq	r9, r0, ip, lsl #18
    7720:	00000054 	andeq	r0, r0, r4, asr r0
    7724:	eaffeea0 	b	0x31ac
    7728:	e92d41f0 	push	{r4, r5, r6, r7, r8, lr}
    772c:	e59fc100 	ldr	ip, [pc, #256]	; 0x7834
    7730:	e59f0100 	ldr	r0, [pc, #256]	; 0x7838
    7734:	e59c3040 	ldr	r3, [ip, #64]	; 0x40
    7738:	e1a0800c 	mov	r8, ip
    773c:	e5904040 	ldr	r4, [r0, #64]	; 0x40
    7740:	e1a07000 	mov	r7, r0
    7744:	e1844003 	orr	r4, r4, r3
    7748:	e59f30ec 	ldr	r3, [pc, #236]	; 0x783c
    774c:	e5935040 	ldr	r5, [r3, #64]	; 0x40
    7750:	e1a06003 	mov	r6, r3
    7754:	e1844005 	orr	r4, r4, r5
    7758:	e20444ff 	and	r4, r4, #-16777216	; 0xff000000
    775c:	e1841001 	orr	r1, r4, r1
    7760:	e58c1040 	str	r1, [ip, #64]	; 0x40
    7764:	e5801040 	str	r1, [r0, #64]	; 0x40
    7768:	e5831040 	str	r1, [r3, #64]	; 0x40
    776c:	e59c1008 	ldr	r1, [ip, #8]
    7770:	e3811202 	orr	r1, r1, #536870912	; 0x20000000
    7774:	e58c1008 	str	r1, [ip, #8]
    7778:	e5901008 	ldr	r1, [r0, #8]
    777c:	e3811202 	orr	r1, r1, #536870912	; 0x20000000
    7780:	e5801008 	str	r1, [r0, #8]
    7784:	e5931008 	ldr	r1, [r3, #8]
    7788:	e3811202 	orr	r1, r1, #536870912	; 0x20000000
    778c:	e5831008 	str	r1, [r3, #8]
    7790:	e59833fc 	ldr	r3, [r8, #1020]	; 0x3fc
    7794:	e59713fc 	ldr	r1, [r7, #1020]	; 0x3fc
    7798:	e1813003 	orr	r3, r1, r3
    779c:	e59613fc 	ldr	r1, [r6, #1020]	; 0x3fc
    77a0:	e1833001 	orr	r3, r3, r1
    77a4:	e3130b01 	tst	r3, #1024	; 0x400
    77a8:	0afffff8 	beq	0x7790
    77ac:	e3a03000 	mov	r3, #0
    77b0:	e3a01e19 	mov	r1, #400	; 0x190
    77b4:	e1a03001 	mov	r3, r1
    77b8:	e2533001 	subs	r3, r3, #1
    77bc:	1afffffd 	bne	0x77b8
    77c0:	e3520000 	cmp	r2, #0
    77c4:	0a00000a 	beq	0x77f4
    77c8:	e59f3064 	ldr	r3, [pc, #100]	; 0x7834
    77cc:	e59f1064 	ldr	r1, [pc, #100]	; 0x7838
    77d0:	e59333fc 	ldr	r3, [r3, #1020]	; 0x3fc
    77d4:	e59113fc 	ldr	r1, [r1, #1020]	; 0x3fc
    77d8:	e1813003 	orr	r3, r1, r3
    77dc:	e59f1058 	ldr	r1, [pc, #88]	; 0x783c
    77e0:	e59113fc 	ldr	r1, [r1, #1020]	; 0x3fc
    77e4:	e1833001 	orr	r3, r3, r1
    77e8:	e3130901 	tst	r3, #16384	; 0x4000
    77ec:	13e00000 	mvnne	r0, #0
    77f0:	1a000000 	bne	0x77f8
    77f4:	e3a00003 	mov	r0, #3
    77f8:	e59f3034 	ldr	r3, [pc, #52]	; 0x7834
    77fc:	e3720001 	cmn	r2, #1
    7800:	e5931008 	ldr	r1, [r3, #8]
    7804:	e59f202c 	ldr	r2, [pc, #44]	; 0x7838
    7808:	e3c11202 	bic	r1, r1, #536870912	; 0x20000000
    780c:	e5831008 	str	r1, [r3, #8]
    7810:	e2433a01 	sub	r3, r3, #4096	; 0x1000
    7814:	e5921008 	ldr	r1, [r2, #8]
    7818:	e3c11202 	bic	r1, r1, #536870912	; 0x20000000
    781c:	e5821008 	str	r1, [r2, #8]
    7820:	e5932008 	ldr	r2, [r3, #8]
    7824:	e3c22202 	bic	r2, r2, #536870912	; 0x20000000
    7828:	e5832008 	str	r2, [r3, #8]
    782c:	08bd81f0 	popeq	{r4, r5, r6, r7, r8, pc}
    7830:	e8bd81f0 	pop	{r4, r5, r6, r7, r8, pc}
    7834:	10207000 	eorne	r7, r0, r0
    7838:	10208000 	eorne	r8, r0, r0
    783c:	10206000 	eorne	r6, r0, r0
    7840:	e12fff1e 	bx	lr
    7844:	e3a03000 	mov	r3, #0
    7848:	e3a020c8 	mov	r2, #200	; 0xc8
    784c:	e1a03002 	mov	r3, r2
    7850:	e2533001 	subs	r3, r3, #1
    7854:	1afffffd 	bne	0x7850
    7858:	e12fff1e 	bx	lr
    785c:	e12fff1e 	bx	lr
    7860:	e12fff1e 	bx	lr
    7864:	e92d4070 	push	{r4, r5, r6, lr}
    7868:	eb000553 	bl	0x8dbc
    786c:	e59f10d8 	ldr	r1, [pc, #216]	; 0x794c
    7870:	e59f20d8 	ldr	r2, [pc, #216]	; 0x7950
    7874:	e591407c 	ldr	r4, [r1, #124]	; 0x7c
    7878:	e59f30d4 	ldr	r3, [pc, #212]	; 0x7954
    787c:	e592507c 	ldr	r5, [r2, #124]	; 0x7c
    7880:	e7e0c1d0 	ubfx	ip, r0, #3, #1
    7884:	e1854004 	orr	r4, r5, r4
    7888:	e1a0c20c 	lsl	ip, ip, #4
    788c:	e593507c 	ldr	r5, [r3, #124]	; 0x7c
    7890:	e2000007 	and	r0, r0, #7
    7894:	e1844005 	orr	r4, r4, r5
    7898:	e1a00200 	lsl	r0, r0, #4
    789c:	e3c44070 	bic	r4, r4, #112	; 0x70
    78a0:	e1804004 	orr	r4, r0, r4
    78a4:	e581407c 	str	r4, [r1, #124]	; 0x7c
    78a8:	e591407c 	ldr	r4, [r1, #124]	; 0x7c
    78ac:	e592507c 	ldr	r5, [r2, #124]	; 0x7c
    78b0:	e1854004 	orr	r4, r5, r4
    78b4:	e593507c 	ldr	r5, [r3, #124]	; 0x7c
    78b8:	e1844005 	orr	r4, r4, r5
    78bc:	e3c44070 	bic	r4, r4, #112	; 0x70
    78c0:	e1804004 	orr	r4, r0, r4
    78c4:	e582407c 	str	r4, [r2, #124]	; 0x7c
    78c8:	e591407c 	ldr	r4, [r1, #124]	; 0x7c
    78cc:	e592507c 	ldr	r5, [r2, #124]	; 0x7c
    78d0:	e1854004 	orr	r4, r5, r4
    78d4:	e593507c 	ldr	r5, [r3, #124]	; 0x7c
    78d8:	e1844005 	orr	r4, r4, r5
    78dc:	e3c44070 	bic	r4, r4, #112	; 0x70
    78e0:	e1800004 	orr	r0, r0, r4
    78e4:	e583007c 	str	r0, [r3, #124]	; 0x7c
    78e8:	e59100e4 	ldr	r0, [r1, #228]	; 0xe4
    78ec:	e59240e4 	ldr	r4, [r2, #228]	; 0xe4
    78f0:	e1840000 	orr	r0, r4, r0
    78f4:	e59340e4 	ldr	r4, [r3, #228]	; 0xe4
    78f8:	e1800004 	orr	r0, r0, r4
    78fc:	e3c00010 	bic	r0, r0, #16
    7900:	e18c0000 	orr	r0, ip, r0
    7904:	e58100e4 	str	r0, [r1, #228]	; 0xe4
    7908:	e59100e4 	ldr	r0, [r1, #228]	; 0xe4
    790c:	e59240e4 	ldr	r4, [r2, #228]	; 0xe4
    7910:	e1840000 	orr	r0, r4, r0
    7914:	e59340e4 	ldr	r4, [r3, #228]	; 0xe4
    7918:	e1800004 	orr	r0, r0, r4
    791c:	e3c00010 	bic	r0, r0, #16
    7920:	e18c0000 	orr	r0, ip, r0
    7924:	e58200e4 	str	r0, [r2, #228]	; 0xe4
    7928:	e59110e4 	ldr	r1, [r1, #228]	; 0xe4
    792c:	e59220e4 	ldr	r2, [r2, #228]	; 0xe4
    7930:	e1822001 	orr	r2, r2, r1
    7934:	e59310e4 	ldr	r1, [r3, #228]	; 0xe4
    7938:	e1822001 	orr	r2, r2, r1
    793c:	e3c22010 	bic	r2, r2, #16
    7940:	e18cc002 	orr	ip, ip, r2
    7944:	e583c0e4 	str	ip, [r3, #228]	; 0xe4
    7948:	e8bd8070 	pop	{r4, r5, r6, pc}
    794c:	10207000 	eorne	r7, r0, r0
    7950:	10208000 	eorne	r8, r0, r0
    7954:	10206000 	eorne	r6, r0, r0
    7958:	e3500000 	cmp	r0, #0
    795c:	112fff1e 	bxne	lr
    7960:	e59f0004 	ldr	r0, [pc, #4]	; 0x796c
    7964:	e08f0000 	add	r0, pc, r0
    7968:	ea000655 	b	0x92c4
    796c:	000043e5 	andeq	r4, r0, r5, ror #7
    7970:	e92d4070 	push	{r4, r5, r6, lr}
    7974:	e3a02102 	mov	r2, #-2147483648	; 0x80000000
    7978:	e59f409c 	ldr	r4, [pc, #156]	; 0x7a1c
    797c:	e59f309c 	ldr	r3, [pc, #156]	; 0x7a20
    7980:	e08f4004 	add	r4, pc, r4
    7984:	e3a00102 	mov	r0, #-2147483648	; 0x80000000
    7988:	e7943003 	ldr	r3, [r4, r3]
    798c:	e5832004 	str	r2, [r3, #4]
    7990:	e59f3088 	ldr	r3, [pc, #136]	; 0x7a20
    7994:	e7943003 	ldr	r3, [r4, r3]
    7998:	e5931008 	ldr	r1, [r3, #8]
    799c:	e593200c 	ldr	r2, [r3, #12]
    79a0:	e1a0e00f 	mov	lr, pc
    79a4:	e593f000 	ldr	pc, [r3]
    79a8:	e59f5074 	ldr	r5, [pc, #116]	; 0x7a24
    79ac:	e3500003 	cmp	r0, #3
    79b0:	1a00000c 	bne	0x79e8
    79b4:	e59f006c 	ldr	r0, [pc, #108]	; 0x7a28
    79b8:	e08f0000 	add	r0, pc, r0
    79bc:	eb000640 	bl	0x92c4
    79c0:	e3a01001 	mov	r1, #1
    79c4:	e794c005 	ldr	ip, [r4, r5]
    79c8:	e59f305c 	ldr	r3, [pc, #92]	; 0x7a2c
    79cc:	e1a00001 	mov	r0, r1
    79d0:	e08f3003 	add	r3, pc, r3
    79d4:	e5932000 	ldr	r2, [r3]
    79d8:	e78c1102 	str	r1, [ip, r2, lsl #2]
    79dc:	e0822001 	add	r2, r2, r1
    79e0:	e5832000 	str	r2, [r3]
    79e4:	e8bd8070 	pop	{r4, r5, r6, pc}
    79e8:	e59f0040 	ldr	r0, [pc, #64]	; 0x7a30
    79ec:	e08f0000 	add	r0, pc, r0
    79f0:	eb000633 	bl	0x92c4
    79f4:	e3a01000 	mov	r1, #0
    79f8:	e794c005 	ldr	ip, [r4, r5]
    79fc:	e1a00001 	mov	r0, r1
    7a00:	e59f302c 	ldr	r3, [pc, #44]	; 0x7a34
    7a04:	e08f3003 	add	r3, pc, r3
    7a08:	e5932000 	ldr	r2, [r3]
    7a0c:	e78c1102 	str	r1, [ip, r2, lsl #2]
    7a10:	e2822001 	add	r2, r2, #1
    7a14:	e5832000 	str	r2, [r3]
    7a18:	e8bd8070 	pop	{r4, r5, r6, pc}
    7a1c:	00009684 	andeq	r9, r0, r4, lsl #13
    7a20:	000000b4 	strheq	r0, [r0], -r4
    7a24:	000000b8 	strheq	r0, [r0], -r8
    7a28:	00004bbb 			; <UNDEFINED> instruction: 0x00004bbb
    7a2c:	0000b3a8 	andeq	fp, r0, r8, lsr #7
    7a30:	00004b81 	andeq	r4, r0, r1, lsl #23
    7a34:	0000b374 	andeq	fp, r0, r4, ror r3
    7a38:	e59f0004 	ldr	r0, [pc, #4]	; 0x7a44
    7a3c:	e08f0000 	add	r0, pc, r0
    7a40:	ea00061f 	b	0x92c4
    7a44:	00004adf 	ldrdeq	r4, [r0], -pc	; <UNPREDICTABLE>
    7a48:	e92d41f0 	push	{r4, r5, r6, r7, r8, lr}
    7a4c:	e59f3170 	ldr	r3, [pc, #368]	; 0x7bc4
    7a50:	e59f4170 	ldr	r4, [pc, #368]	; 0x7bc8
    7a54:	e24dd020 	sub	sp, sp, #32
    7a58:	e08f4004 	add	r4, pc, r4
    7a5c:	e7943003 	ldr	r3, [r4, r3]
    7a60:	e5932000 	ldr	r2, [r3]
    7a64:	e3520000 	cmp	r2, #0
    7a68:	059f215c 	ldreq	r2, [pc, #348]	; 0x7bcc
    7a6c:	07942002 	ldreq	r2, [r4, r2]
    7a70:	05922000 	ldreq	r2, [r2]
    7a74:	05832000 	streq	r2, [r3]
    7a78:	e3a05000 	mov	r5, #0
    7a7c:	e59f314c 	ldr	r3, [pc, #332]	; 0x7bd0
    7a80:	e59fe14c 	ldr	lr, [pc, #332]	; 0x7bd4
    7a84:	e08f3003 	add	r3, pc, r3
    7a88:	e08fe00e 	add	lr, pc, lr
    7a8c:	e5835000 	str	r5, [r3]
    7a90:	e28dc004 	add	ip, sp, #4
    7a94:	e8be000f 	ldm	lr!, {r0, r1, r2, r3}
    7a98:	e8ac000f 	stmia	ip!, {r0, r1, r2, r3}
    7a9c:	e89e0007 	ldm	lr, {r0, r1, r2}
    7aa0:	e59f3130 	ldr	r3, [pc, #304]	; 0x7bd8
    7aa4:	e88c0007 	stm	ip, {r0, r1, r2}
    7aa8:	e1a00005 	mov	r0, r5
    7aac:	e7941003 	ldr	r1, [r4, r3]
    7ab0:	e28d2004 	add	r2, sp, #4
    7ab4:	e2855001 	add	r5, r5, #1
    7ab8:	ebffe6c2 	bl	0x15c8
    7abc:	e59f3118 	ldr	r3, [pc, #280]	; 0x7bdc
    7ac0:	e7943003 	ldr	r3, [r4, r3]
    7ac4:	e5932000 	ldr	r2, [r3]
    7ac8:	e3520001 	cmp	r2, #1
    7acc:	1a00000f 	bne	0x7b10
    7ad0:	e5932004 	ldr	r2, [r3, #4]
    7ad4:	e3520001 	cmp	r2, #1
    7ad8:	1a00000c 	bne	0x7b10
    7adc:	e59f30e8 	ldr	r3, [pc, #232]	; 0x7bcc
    7ae0:	e7947003 	ldr	r7, [r4, r3]
    7ae4:	e7970105 	ldr	r0, [r7, r5, lsl #2]
    7ae8:	eb0004b3 	bl	0x8dbc
    7aec:	e59f30d0 	ldr	r3, [pc, #208]	; 0x7bc4
    7af0:	e1a08000 	mov	r8, r0
    7af4:	e7946003 	ldr	r6, [r4, r3]
    7af8:	e5960000 	ldr	r0, [r6]
    7afc:	eb0004ae 	bl	0x8dbc
    7b00:	e1580000 	cmp	r8, r0
    7b04:	c7973105 	ldrgt	r3, [r7, r5, lsl #2]
    7b08:	c5863000 	strgt	r3, [r6]
    7b0c:	ea000003 	b	0x7b20
    7b10:	e2855001 	add	r5, r5, #1
    7b14:	e2833004 	add	r3, r3, #4
    7b18:	e3550011 	cmp	r5, #17
    7b1c:	1affffe8 	bne	0x7ac4
    7b20:	e59f309c 	ldr	r3, [pc, #156]	; 0x7bc4
    7b24:	e7943003 	ldr	r3, [r4, r3]
    7b28:	e5930000 	ldr	r0, [r3]
    7b2c:	e59f3098 	ldr	r3, [pc, #152]	; 0x7bcc
    7b30:	e7943003 	ldr	r3, [r4, r3]
    7b34:	e5933000 	ldr	r3, [r3]
    7b38:	e1500003 	cmp	r0, r3
    7b3c:	0a000001 	beq	0x7b48
    7b40:	ebffff47 	bl	0x7864
    7b44:	ea00001c 	b	0x7bbc
    7b48:	e59f0090 	ldr	r0, [pc, #144]	; 0x7be0
    7b4c:	e08f0000 	add	r0, pc, r0
    7b50:	eb0005db 	bl	0x92c4
    7b54:	e59f3088 	ldr	r3, [pc, #136]	; 0x7be4
    7b58:	e08f3003 	add	r3, pc, r3
    7b5c:	e5932000 	ldr	r2, [r3]
    7b60:	e3520003 	cmp	r2, #3
    7b64:	ca000014 	bgt	0x7bbc
    7b68:	e59f4078 	ldr	r4, [pc, #120]	; 0x7be8
    7b6c:	e3a01000 	mov	r1, #0
    7b70:	e1a01004 	mov	r1, r4
    7b74:	e2511001 	subs	r1, r1, #1
    7b78:	1afffffd 	bne	0x7b74
    7b7c:	e3a00000 	mov	r0, #0
    7b80:	e2822001 	add	r2, r2, #1
    7b84:	e5832000 	str	r2, [r3]
    7b88:	ebffe985 	bl	0x21a4
    7b8c:	e3a03000 	mov	r3, #0
    7b90:	e1a03004 	mov	r3, r4
    7b94:	e2533001 	subs	r3, r3, #1
    7b98:	1afffffd 	bne	0x7b94
    7b9c:	e3a00001 	mov	r0, #1
    7ba0:	ebffe97f 	bl	0x21a4
    7ba4:	e3a03000 	mov	r3, #0
    7ba8:	e1a03004 	mov	r3, r4
    7bac:	e2533001 	subs	r3, r3, #1
    7bb0:	1afffffd 	bne	0x7bac
    7bb4:	eb000bc7 	bl	0xaad8
    7bb8:	ebffffa2 	bl	0x7a48
    7bbc:	e28dd020 	add	sp, sp, #32
    7bc0:	e8bd81f0 	pop	{r4, r5, r6, r7, r8, pc}
    7bc4:	000000b0 	strheq	r0, [r0], -r0	; <UNPREDICTABLE>
    7bc8:	000095ac 	andeq	r9, r0, ip, lsr #11
    7bcc:	0000006c 	andeq	r0, r0, ip, rrx
    7bd0:	0000b2f4 	strdeq	fp, [r0], -r4
    7bd4:	00009db8 			; <UNDEFINED> instruction: 0x00009db8
    7bd8:	000000f4 	strdeq	r0, [r0], -r4
    7bdc:	000000b8 	strheq	r0, [r0], -r8
    7be0:	00004cb7 			; <UNDEFINED> instruction: 0x00004cb7
    7be4:	00009ce4 	andeq	r9, r0, r4, ror #25
    7be8:	000f4240 	andeq	r4, pc, r0, asr #4
    7bec:	e92d4070 	push	{r4, r5, r6, lr}
    7bf0:	e3a03000 	mov	r3, #0
    7bf4:	e1a05001 	mov	r5, r1
    7bf8:	e1a04121 	lsr	r4, r1, #2
    7bfc:	e59f20a8 	ldr	r2, [pc, #168]	; 0x7cac
    7c00:	e1a01003 	mov	r1, r3
    7c04:	ea000001 	b	0x7c10
    7c08:	e4821004 	str	r1, [r2], #4
    7c0c:	e2833001 	add	r3, r3, #1
    7c10:	e1530004 	cmp	r3, r4
    7c14:	1afffffb 	bne	0x7c08
    7c18:	e3a02102 	mov	r2, #-2147483648	; 0x80000000
    7c1c:	e3a03000 	mov	r3, #0
    7c20:	ea000001 	b	0x7c2c
    7c24:	e4823004 	str	r3, [r2], #4
    7c28:	e2833001 	add	r3, r3, #1
    7c2c:	e1530004 	cmp	r3, r4
    7c30:	1afffffb 	bne	0x7c24
    7c34:	e59f6070 	ldr	r6, [pc, #112]	; 0x7cac
    7c38:	e3a01000 	mov	r1, #0
    7c3c:	e1a02005 	mov	r2, r5
    7c40:	e1a00006 	mov	r0, r6
    7c44:	eb000690 	bl	0x968c
    7c48:	e59f3060 	ldr	r3, [pc, #96]	; 0x7cb0
    7c4c:	e3a02807 	mov	r2, #458752	; 0x70000
    7c50:	e1a01003 	mov	r1, r3
    7c54:	e5832c18 	str	r2, [r3, #3096]	; 0xc18
    7c58:	e3a02102 	mov	r2, #-2147483648	; 0x80000000
    7c5c:	e5832c1c 	str	r2, [r3, #3100]	; 0xc1c
    7c60:	e5836c20 	str	r6, [r3, #3104]	; 0xc20
    7c64:	e2822106 	add	r2, r2, #-2147483647	; 0x80000001
    7c68:	e5835c24 	str	r5, [r3, #3108]	; 0xc24
    7c6c:	e5832c08 	str	r2, [r3, #3080]	; 0xc08
    7c70:	e5913c08 	ldr	r3, [r1, #3080]	; 0xc08
    7c74:	e3530000 	cmp	r3, #0
    7c78:	1afffffc 	bne	0x7c70
    7c7c:	e59f2028 	ldr	r2, [pc, #40]	; 0x7cac
    7c80:	ea000005 	b	0x7c9c
    7c84:	e4921004 	ldr	r1, [r2], #4
    7c88:	e1510003 	cmp	r1, r3
    7c8c:	0a000001 	beq	0x7c98
    7c90:	e3e00000 	mvn	r0, #0
    7c94:	e8bd8070 	pop	{r4, r5, r6, pc}
    7c98:	e2833001 	add	r3, r3, #1
    7c9c:	e1530004 	cmp	r3, r4
    7ca0:	1afffff7 	bne	0x7c84
    7ca4:	e3a00003 	mov	r0, #3
    7ca8:	e8bd8070 	pop	{r4, r5, r6, pc}
    7cac:	80001000 	andhi	r1, r0, r0
    7cb0:	10217000 	eorne	r7, r1, r0
    7cb4:	e12fff1e 	bx	lr
    7cb8:	e12fff1e 	bx	lr
    7cbc:	e12fff1e 	bx	lr
    7cc0:	e12fff1e 	bx	lr
    7cc4:	e12fff1e 	bx	lr
    7cc8:	e12fff1e 	bx	lr
    7ccc:	e12fff1e 	bx	lr
    7cd0:	e12fff1e 	bx	lr
    7cd4:	e3a00000 	mov	r0, #0
    7cd8:	e12fff1e 	bx	lr
    7cdc:	e92d41f3 	push	{r0, r1, r4, r5, r6, r7, r8, lr}
    7ce0:	e1a05000 	mov	r5, r0
    7ce4:	e1a08001 	mov	r8, r1
    7ce8:	e3a00000 	mov	r0, #0
    7cec:	e1a07002 	mov	r7, r2
    7cf0:	e1a06003 	mov	r6, r3
    7cf4:	e1a02000 	mov	r2, r0
    7cf8:	e28d4004 	add	r4, sp, #4
    7cfc:	e1a01005 	mov	r1, r5
    7d00:	e1a03004 	mov	r3, r4
    7d04:	eb0003df 	bl	0x8c88
    7d08:	e59d2004 	ldr	r2, [sp, #4]
    7d0c:	e3500000 	cmp	r0, #0
    7d10:	1a000005 	bne	0x7d2c
    7d14:	e1c22617 	bic	r2, r2, r7, lsl r6
    7d18:	e1a01005 	mov	r1, r5
    7d1c:	e1822618 	orr	r2, r2, r8, lsl r6
    7d20:	e1a03004 	mov	r3, r4
    7d24:	e3a00001 	mov	r0, #1
    7d28:	eb0003d6 	bl	0x8c88
    7d2c:	e8bd81fc 	pop	{r2, r3, r4, r5, r6, r7, r8, pc}
    7d30:	e92d4ff1 	push	{r0, r4, r5, r6, r7, r8, r9, sl, fp, lr}
    7d34:	e3a0100b 	mov	r1, #11
    7d38:	e3a0200f 	mov	r2, #15
    7d3c:	e3a03004 	mov	r3, #4
    7d40:	e3a00002 	mov	r0, #2
    7d44:	e3007102 	movw	r7, #258	; 0x102
    7d48:	ebffffe3 	bl	0x7cdc
    7d4c:	e3a01001 	mov	r1, #1
    7d50:	e3a02007 	mov	r2, #7
    7d54:	e1a03001 	mov	r3, r1
    7d58:	e3a0000c 	mov	r0, #12
    7d5c:	e3006242 	movw	r6, #578	; 0x242
    7d60:	ebffffdd 	bl	0x7cdc
    7d64:	e3a01003 	mov	r1, #3
    7d68:	e3a0200f 	mov	r2, #15
    7d6c:	e3a03000 	mov	r3, #0
    7d70:	e3a0001a 	mov	r0, #26
    7d74:	e3005256 	movw	r5, #598	; 0x256
    7d78:	ebffffd7 	bl	0x7cdc
    7d7c:	e3a01001 	mov	r1, #1
    7d80:	e3a03002 	mov	r3, #2
    7d84:	e1a02001 	mov	r2, r1
    7d88:	e3a00020 	mov	r0, #32
    7d8c:	e300a302 	movw	sl, #770	; 0x302
    7d90:	ebffffd1 	bl	0x7cdc
    7d94:	e3a01001 	mov	r1, #1
    7d98:	e3a00024 	mov	r0, #36	; 0x24
    7d9c:	e1a02001 	mov	r2, r1
    7da0:	e1a03001 	mov	r3, r1
    7da4:	e3008402 	movw	r8, #1026	; 0x402
    7da8:	ebffffcb 	bl	0x7cdc
    7dac:	e3a01000 	mov	r1, #0
    7db0:	e3a02007 	mov	r2, #7
    7db4:	e3a03004 	mov	r3, #4
    7db8:	e3a0002a 	mov	r0, #42	; 0x2a
    7dbc:	e3009404 	movw	r9, #1028	; 0x404
    7dc0:	ebffffc5 	bl	0x7cdc
    7dc4:	e3a01001 	mov	r1, #1
    7dc8:	e3a03002 	mov	r3, #2
    7dcc:	e1a02001 	mov	r2, r1
    7dd0:	e3a0002e 	mov	r0, #46	; 0x2e
    7dd4:	e300b552 	movw	fp, #1362	; 0x552
    7dd8:	ebffffbf 	bl	0x7cdc
    7ddc:	e3a01000 	mov	r1, #0
    7de0:	e3a02001 	mov	r2, #1
    7de4:	e3a03006 	mov	r3, #6
    7de8:	e3a0002e 	mov	r0, #46	; 0x2e
    7dec:	e3004756 	movw	r4, #1878	; 0x756
    7df0:	ebffffb9 	bl	0x7cdc
    7df4:	e3a01001 	mov	r1, #1
    7df8:	e3a03007 	mov	r3, #7
    7dfc:	e1a02001 	mov	r2, r1
    7e00:	e3a0002e 	mov	r0, #46	; 0x2e
    7e04:	ebffffb4 	bl	0x7cdc
    7e08:	e3a01001 	mov	r1, #1
    7e0c:	e3a03004 	mov	r3, #4
    7e10:	e1a02001 	mov	r2, r1
    7e14:	e3a00040 	mov	r0, #64	; 0x40
    7e18:	ebffffaf 	bl	0x7cdc
    7e1c:	e3a01001 	mov	r1, #1
    7e20:	e3a03005 	mov	r3, #5
    7e24:	e1a02001 	mov	r2, r1
    7e28:	e3a00040 	mov	r0, #64	; 0x40
    7e2c:	ebffffaa 	bl	0x7cdc
    7e30:	e3a01001 	mov	r1, #1
    7e34:	e3a00046 	mov	r0, #70	; 0x46
    7e38:	e1a02001 	mov	r2, r1
    7e3c:	e1a03001 	mov	r3, r1
    7e40:	ebffffa5 	bl	0x7cdc
    7e44:	e3a01001 	mov	r1, #1
    7e48:	e3a03008 	mov	r3, #8
    7e4c:	e1a02001 	mov	r2, r1
    7e50:	e3a00048 	mov	r0, #72	; 0x48
    7e54:	ebffffa0 	bl	0x7cdc
    7e58:	e3a01001 	mov	r1, #1
    7e5c:	e3a03009 	mov	r3, #9
    7e60:	e1a02001 	mov	r2, r1
    7e64:	e3a00048 	mov	r0, #72	; 0x48
    7e68:	ebffff9b 	bl	0x7cdc
    7e6c:	e3a01001 	mov	r1, #1
    7e70:	e3a03005 	mov	r3, #5
    7e74:	e1a02001 	mov	r2, r1
    7e78:	e3a0004e 	mov	r0, #78	; 0x4e
    7e7c:	ebffff96 	bl	0x7cdc
    7e80:	e3a01001 	mov	r1, #1
    7e84:	e3a03007 	mov	r3, #7
    7e88:	e1a02001 	mov	r2, r1
    7e8c:	e3a0004e 	mov	r0, #78	; 0x4e
    7e90:	ebffff91 	bl	0x7cdc
    7e94:	e3a01001 	mov	r1, #1
    7e98:	e3a03000 	mov	r3, #0
    7e9c:	e1a02001 	mov	r2, r1
    7ea0:	e3a00050 	mov	r0, #80	; 0x50
    7ea4:	ebffff8c 	bl	0x7cdc
    7ea8:	e3a01001 	mov	r1, #1
    7eac:	e3a00050 	mov	r0, #80	; 0x50
    7eb0:	e1a02001 	mov	r2, r1
    7eb4:	e1a03001 	mov	r3, r1
    7eb8:	ebffff87 	bl	0x7cdc
    7ebc:	e3a01001 	mov	r1, #1
    7ec0:	e3a03009 	mov	r3, #9
    7ec4:	e1a02001 	mov	r2, r1
    7ec8:	e3a00052 	mov	r0, #82	; 0x52
    7ecc:	ebffff82 	bl	0x7cdc
    7ed0:	e3a01001 	mov	r1, #1
    7ed4:	e3a03000 	mov	r3, #0
    7ed8:	e1a02001 	mov	r2, r1
    7edc:	e3a00056 	mov	r0, #86	; 0x56
    7ee0:	ebffff7d 	bl	0x7cdc
    7ee4:	e3a01001 	mov	r1, #1
    7ee8:	e3a0200f 	mov	r2, #15
    7eec:	e3a03008 	mov	r3, #8
    7ef0:	e3a00064 	mov	r0, #100	; 0x64
    7ef4:	ebffff78 	bl	0x7cdc
    7ef8:	e3a01001 	mov	r1, #1
    7efc:	e3a03006 	mov	r3, #6
    7f00:	e1a02001 	mov	r2, r1
    7f04:	e1a00007 	mov	r0, r7
    7f08:	ebffff73 	bl	0x7cdc
    7f0c:	e1a00007 	mov	r0, r7
    7f10:	e3a01000 	mov	r1, #0
    7f14:	e3a02001 	mov	r2, #1
    7f18:	e3a0300b 	mov	r3, #11
    7f1c:	ebffff6e 	bl	0x7cdc
    7f20:	e3a01001 	mov	r1, #1
    7f24:	e1a00007 	mov	r0, r7
    7f28:	e1a02001 	mov	r2, r1
    7f2c:	e3a0300f 	mov	r3, #15
    7f30:	ebffff69 	bl	0x7cdc
    7f34:	e3a01000 	mov	r1, #0
    7f38:	e3a02001 	mov	r2, #1
    7f3c:	e3a0300a 	mov	r3, #10
    7f40:	e3a00f42 	mov	r0, #264	; 0x108
    7f44:	ebffff64 	bl	0x7cdc
    7f48:	e3a01001 	mov	r1, #1
    7f4c:	e3a0300c 	mov	r3, #12
    7f50:	e1a02001 	mov	r2, r1
    7f54:	e3a00f42 	mov	r0, #264	; 0x108
    7f58:	ebffff5f 	bl	0x7cdc
    7f5c:	e3a01001 	mov	r1, #1
    7f60:	e3a03005 	mov	r3, #5
    7f64:	e1a02001 	mov	r2, r1
    7f68:	e300010e 	movw	r0, #270	; 0x10e
    7f6c:	ebffff5a 	bl	0x7cdc
    7f70:	e3a01001 	mov	r1, #1
    7f74:	e3a03004 	mov	r3, #4
    7f78:	e1a02001 	mov	r2, r1
    7f7c:	e3a00e12 	mov	r0, #288	; 0x120
    7f80:	ebffff55 	bl	0x7cdc
    7f84:	e3a01001 	mov	r1, #1
    7f88:	e3a03005 	mov	r3, #5
    7f8c:	e1a02001 	mov	r2, r1
    7f90:	e3a00e12 	mov	r0, #288	; 0x120
    7f94:	ebffff50 	bl	0x7cdc
    7f98:	e3a01001 	mov	r1, #1
    7f9c:	e3a03000 	mov	r3, #0
    7fa0:	e1a02001 	mov	r2, r1
    7fa4:	e3a00f52 	mov	r0, #328	; 0x148
    7fa8:	ebffff4b 	bl	0x7cdc
    7fac:	e3a01001 	mov	r1, #1
    7fb0:	e3a00f52 	mov	r0, #328	; 0x148
    7fb4:	e1a02001 	mov	r2, r1
    7fb8:	e1a03001 	mov	r3, r1
    7fbc:	ebffff46 	bl	0x7cdc
    7fc0:	e3a01001 	mov	r1, #1
    7fc4:	e3a03002 	mov	r3, #2
    7fc8:	e1a02001 	mov	r2, r1
    7fcc:	e3a00f52 	mov	r0, #328	; 0x148
    7fd0:	ebffff41 	bl	0x7cdc
    7fd4:	e3a01001 	mov	r1, #1
    7fd8:	e3a03003 	mov	r3, #3
    7fdc:	e1a02001 	mov	r2, r1
    7fe0:	e3a00f52 	mov	r0, #328	; 0x148
    7fe4:	ebffff3c 	bl	0x7cdc
    7fe8:	e3a01001 	mov	r1, #1
    7fec:	e3a03002 	mov	r3, #2
    7ff0:	e1a02001 	mov	r2, r1
    7ff4:	e3a00e16 	mov	r0, #352	; 0x160
    7ff8:	ebffff37 	bl	0x7cdc
    7ffc:	e3a01001 	mov	r1, #1
    8000:	e3a03006 	mov	r3, #6
    8004:	e1a02001 	mov	r2, r1
    8008:	e3a00e16 	mov	r0, #352	; 0x160
    800c:	ebffff32 	bl	0x7cdc
    8010:	e3a01001 	mov	r1, #1
    8014:	e3a03007 	mov	r3, #7
    8018:	e1a02001 	mov	r2, r1
    801c:	e3a00e16 	mov	r0, #352	; 0x160
    8020:	ebffff2d 	bl	0x7cdc
    8024:	e3a01001 	mov	r1, #1
    8028:	e3000166 	movw	r0, #358	; 0x166
    802c:	e1a02001 	mov	r2, r1
    8030:	e1a03001 	mov	r3, r1
    8034:	ebffff28 	bl	0x7cdc
    8038:	e3a01002 	mov	r1, #2
    803c:	e3a02003 	mov	r2, #3
    8040:	e3a03004 	mov	r3, #4
    8044:	e3000212 	movw	r0, #530	; 0x212
    8048:	ebffff23 	bl	0x7cdc
    804c:	e3a01001 	mov	r1, #1
    8050:	e3000216 	movw	r0, #534	; 0x216
    8054:	e1a02001 	mov	r2, r1
    8058:	e1a03001 	mov	r3, r1
    805c:	ebffff1e 	bl	0x7cdc
    8060:	e3a01017 	mov	r1, #23
    8064:	e3a0207f 	mov	r2, #127	; 0x7f
    8068:	e3a03000 	mov	r3, #0
    806c:	e3a00f87 	mov	r0, #540	; 0x21c
    8070:	ebffff19 	bl	0x7cdc
    8074:	e3a01001 	mov	r1, #1
    8078:	e3a03007 	mov	r3, #7
    807c:	e1a02001 	mov	r2, r1
    8080:	e3a00f87 	mov	r0, #540	; 0x21c
    8084:	ebffff14 	bl	0x7cdc
    8088:	e3a01001 	mov	r1, #1
    808c:	e3a0300f 	mov	r3, #15
    8090:	e1a02001 	mov	r2, r1
    8094:	e3a00f87 	mov	r0, #540	; 0x21c
    8098:	ebffff0f 	bl	0x7cdc
    809c:	e3a01018 	mov	r1, #24
    80a0:	e3a0207f 	mov	r2, #127	; 0x7f
    80a4:	e3a03000 	mov	r3, #0
    80a8:	e3000222 	movw	r0, #546	; 0x222
    80ac:	ebffff0a 	bl	0x7cdc
    80b0:	e3a01003 	mov	r1, #3
    80b4:	e3a03000 	mov	r3, #0
    80b8:	e1a02001 	mov	r2, r1
    80bc:	e3a00e23 	mov	r0, #560	; 0x230
    80c0:	ebffff05 	bl	0x7cdc
    80c4:	e3a01001 	mov	r1, #1
    80c8:	e3a02003 	mov	r2, #3
    80cc:	e3a03004 	mov	r3, #4
    80d0:	e3a00e23 	mov	r0, #560	; 0x230
    80d4:	ebffff00 	bl	0x7cdc
    80d8:	e3a01001 	mov	r1, #1
    80dc:	e3a03008 	mov	r3, #8
    80e0:	e1a02001 	mov	r2, r1
    80e4:	e3a00e23 	mov	r0, #560	; 0x230
    80e8:	ebfffefb 	bl	0x7cdc
    80ec:	e3a01003 	mov	r1, #3
    80f0:	e3a03000 	mov	r3, #0
    80f4:	e1a02001 	mov	r2, r1
    80f8:	e3a00f8e 	mov	r0, #568	; 0x238
    80fc:	ebfffef6 	bl	0x7cdc
    8100:	e3a01002 	mov	r1, #2
    8104:	e3a02003 	mov	r2, #3
    8108:	e3a03004 	mov	r3, #4
    810c:	e3a00f8e 	mov	r0, #568	; 0x238
    8110:	ebfffef1 	bl	0x7cdc
    8114:	e3a01001 	mov	r1, #1
    8118:	e3a00f8f 	mov	r0, #572	; 0x23c
    811c:	e1a02001 	mov	r2, r1
    8120:	e1a03001 	mov	r3, r1
    8124:	ebfffeec 	bl	0x7cdc
    8128:	e3a01023 	mov	r1, #35	; 0x23
    812c:	e3a0207f 	mov	r2, #127	; 0x7f
    8130:	e3a03000 	mov	r3, #0
    8134:	e1a00006 	mov	r0, r6
    8138:	ebfffee7 	bl	0x7cdc
    813c:	e1a00006 	mov	r0, r6
    8140:	e3a01011 	mov	r1, #17
    8144:	e3a0207f 	mov	r2, #127	; 0x7f
    8148:	e3a03008 	mov	r3, #8
    814c:	ebfffee2 	bl	0x7cdc
    8150:	e3a01001 	mov	r1, #1
    8154:	e1a00006 	mov	r0, r6
    8158:	e1a02001 	mov	r2, r1
    815c:	e3a0300f 	mov	r3, #15
    8160:	ebfffedd 	bl	0x7cdc
    8164:	e3a01003 	mov	r1, #3
    8168:	e3a03000 	mov	r3, #0
    816c:	e1a02001 	mov	r2, r1
    8170:	e1a00005 	mov	r0, r5
    8174:	ebfffed8 	bl	0x7cdc
    8178:	e1a00005 	mov	r0, r5
    817c:	e3a01001 	mov	r1, #1
    8180:	e3a02003 	mov	r2, #3
    8184:	e3a03004 	mov	r3, #4
    8188:	ebfffed3 	bl	0x7cdc
    818c:	e3a01001 	mov	r1, #1
    8190:	e1a00005 	mov	r0, r5
    8194:	e1a02001 	mov	r2, r1
    8198:	e3a03008 	mov	r3, #8
    819c:	ebfffece 	bl	0x7cdc
    81a0:	e3a01001 	mov	r1, #1
    81a4:	e3a02003 	mov	r2, #3
    81a8:	e3a03008 	mov	r3, #8
    81ac:	e1a0000a 	mov	r0, sl
    81b0:	ebfffec9 	bl	0x7cdc
    81b4:	e1a0000a 	mov	r0, sl
    81b8:	e3a01001 	mov	r1, #1
    81bc:	e3a02003 	mov	r2, #3
    81c0:	e3a0300e 	mov	r3, #14
    81c4:	ebfffec4 	bl	0x7cdc
    81c8:	e3a01001 	mov	r1, #1
    81cc:	e3a03007 	mov	r3, #7
    81d0:	e1a02001 	mov	r2, r1
    81d4:	e3a00e31 	mov	r0, #784	; 0x310
    81d8:	ebfffebf 	bl	0x7cdc
    81dc:	e3a01001 	mov	r1, #1
    81e0:	e3a0300f 	mov	r3, #15
    81e4:	e1a02001 	mov	r2, r1
    81e8:	e3a00e31 	mov	r0, #784	; 0x310
    81ec:	ebfffeba 	bl	0x7cdc
    81f0:	e3a01001 	mov	r1, #1
    81f4:	e3a03000 	mov	r3, #0
    81f8:	e1a02001 	mov	r2, r1
    81fc:	e3000326 	movw	r0, #806	; 0x326
    8200:	ebfffeb5 	bl	0x7cdc
    8204:	e3a01001 	mov	r1, #1
    8208:	e3a03000 	mov	r3, #0
    820c:	e1a02001 	mov	r2, r1
    8210:	e1a00008 	mov	r0, r8
    8214:	ebfffeb0 	bl	0x7cdc
    8218:	e3a01001 	mov	r1, #1
    821c:	e1a00008 	mov	r0, r8
    8220:	e1a02001 	mov	r2, r1
    8224:	e3a0300a 	mov	r3, #10
    8228:	ebfffeab 	bl	0x7cdc
    822c:	e1a00008 	mov	r0, r8
    8230:	e3a01000 	mov	r1, #0
    8234:	e3a02001 	mov	r2, #1
    8238:	e3a0300b 	mov	r3, #11
    823c:	ebfffea6 	bl	0x7cdc
    8240:	e3a01001 	mov	r1, #1
    8244:	e3a03000 	mov	r3, #0
    8248:	e1a02001 	mov	r2, r1
    824c:	e1a00009 	mov	r0, r9
    8250:	ebfffea1 	bl	0x7cdc
    8254:	e1a00009 	mov	r0, r9
    8258:	e3a01002 	mov	r1, #2
    825c:	e3a02003 	mov	r2, #3
    8260:	e3a03008 	mov	r3, #8
    8264:	ebfffe9c 	bl	0x7cdc
    8268:	e3a01001 	mov	r1, #1
    826c:	e3a03000 	mov	r3, #0
    8270:	e1a02001 	mov	r2, r1
    8274:	e3a00c05 	mov	r0, #1280	; 0x500
    8278:	ebfffe97 	bl	0x7cdc
    827c:	e3a01001 	mov	r1, #1
    8280:	e3a03000 	mov	r3, #0
    8284:	e1a02001 	mov	r2, r1
    8288:	e3000502 	movw	r0, #1282	; 0x502
    828c:	ebfffe92 	bl	0x7cdc
    8290:	e3a01001 	mov	r1, #1
    8294:	e3a03000 	mov	r3, #0
    8298:	e1a02001 	mov	r2, r1
    829c:	e3000504 	movw	r0, #1284	; 0x504
    82a0:	ebfffe8d 	bl	0x7cdc
    82a4:	e3a01001 	mov	r1, #1
    82a8:	e3a03000 	mov	r3, #0
    82ac:	e1a02001 	mov	r2, r1
    82b0:	e3000506 	movw	r0, #1286	; 0x506
    82b4:	ebfffe88 	bl	0x7cdc
    82b8:	e3a01001 	mov	r1, #1
    82bc:	e3a03000 	mov	r3, #0
    82c0:	e1a02001 	mov	r2, r1
    82c4:	e3000508 	movw	r0, #1288	; 0x508
    82c8:	ebfffe83 	bl	0x7cdc
    82cc:	e3a01001 	mov	r1, #1
    82d0:	e3a03000 	mov	r3, #0
    82d4:	e1a02001 	mov	r2, r1
    82d8:	e3000514 	movw	r0, #1300	; 0x514
    82dc:	ebfffe7e 	bl	0x7cdc
    82e0:	e3a01001 	mov	r1, #1
    82e4:	e3a03000 	mov	r3, #0
    82e8:	e1a02001 	mov	r2, r1
    82ec:	e3000516 	movw	r0, #1302	; 0x516
    82f0:	ebfffe79 	bl	0x7cdc
    82f4:	e3a01001 	mov	r1, #1
    82f8:	e3a03000 	mov	r3, #0
    82fc:	e1a02001 	mov	r2, r1
    8300:	e3000518 	movw	r0, #1304	; 0x518
    8304:	ebfffe74 	bl	0x7cdc
    8308:	e3a01001 	mov	r1, #1
    830c:	e3a03000 	mov	r3, #0
    8310:	e1a02001 	mov	r2, r1
    8314:	e3000524 	movw	r0, #1316	; 0x524
    8318:	ebfffe6f 	bl	0x7cdc
    831c:	e3a01000 	mov	r1, #0
    8320:	e3a02001 	mov	r2, #1
    8324:	e3a0300f 	mov	r3, #15
    8328:	e300054e 	movw	r0, #1358	; 0x54e
    832c:	ebfffe6a 	bl	0x7cdc
    8330:	e3a01001 	mov	r1, #1
    8334:	e3a00e55 	mov	r0, #1360	; 0x550
    8338:	e1a02001 	mov	r2, r1
    833c:	e1a03001 	mov	r3, r1
    8340:	ebfffe65 	bl	0x7cdc
    8344:	e3a01001 	mov	r1, #1
    8348:	e3a03000 	mov	r3, #0
    834c:	e1a02001 	mov	r2, r1
    8350:	e1a0000b 	mov	r0, fp
    8354:	ebfffe60 	bl	0x7cdc
    8358:	e3a01001 	mov	r1, #1
    835c:	e1a0000b 	mov	r0, fp
    8360:	e1a02001 	mov	r2, r1
    8364:	e3a0300e 	mov	r3, #14
    8368:	ebfffe5b 	bl	0x7cdc
    836c:	e3a01001 	mov	r1, #1
    8370:	e3a03000 	mov	r3, #0
    8374:	e1a02001 	mov	r2, r1
    8378:	e3000556 	movw	r0, #1366	; 0x556
    837c:	ebfffe56 	bl	0x7cdc
    8380:	e3a01001 	mov	r1, #1
    8384:	e3a02003 	mov	r2, #3
    8388:	e3a03002 	mov	r3, #2
    838c:	e1a00004 	mov	r0, r4
    8390:	ebfffe51 	bl	0x7cdc
    8394:	e1a00004 	mov	r0, r4
    8398:	e3a01001 	mov	r1, #1
    839c:	e3a02003 	mov	r2, #3
    83a0:	e3a03004 	mov	r3, #4
    83a4:	ebfffe4c 	bl	0x7cdc
    83a8:	e1a00004 	mov	r0, r4
    83ac:	e3a01001 	mov	r1, #1
    83b0:	e3a02003 	mov	r2, #3
    83b4:	e3a03008 	mov	r3, #8
    83b8:	ebfffe47 	bl	0x7cdc
    83bc:	e1a00004 	mov	r0, r4
    83c0:	e3a01001 	mov	r1, #1
    83c4:	e3a02003 	mov	r2, #3
    83c8:	e3a0300a 	mov	r3, #10
    83cc:	ebfffe42 	bl	0x7cdc
    83d0:	e3a01001 	mov	r1, #1
    83d4:	e3000778 	movw	r0, #1912	; 0x778
    83d8:	e1a02001 	mov	r2, r1
    83dc:	e3a0300f 	mov	r3, #15
    83e0:	e28dd004 	add	sp, sp, #4
    83e4:	e8bd4ff0 	pop	{r4, r5, r6, r7, r8, r9, sl, fp, lr}
    83e8:	eafffe3b 	b	0x7cdc
    83ec:	e92d4010 	push	{r4, lr}
    83f0:	ebfffe36 	bl	0x7cd0
    83f4:	e8bd4010 	pop	{r4, lr}
    83f8:	eafffe4c 	b	0x7d30
    83fc:	e92d4070 	push	{r4, r5, r6, lr}
    8400:	e59f204c 	ldr	r2, [pc, #76]	; 0x8454
    8404:	e59f304c 	ldr	r3, [pc, #76]	; 0x8458
    8408:	e3a0400c 	mov	r4, #12
    840c:	e08f3003 	add	r3, pc, r3
    8410:	e0040094 	mul	r4, r4, r0
    8414:	e1a05001 	mov	r5, r1
    8418:	e7933002 	ldr	r3, [r3, r2]
    841c:	e7942003 	ldr	r2, [r4, r3]
    8420:	e0844003 	add	r4, r4, r3
    8424:	e1520000 	cmp	r2, r0
    8428:	13a00001 	movne	r0, #1
    842c:	18bd8070 	popne	{r4, r5, r6, pc}
    8430:	ebfffe1f 	bl	0x7cb4
    8434:	e1a01005 	mov	r1, r5
    8438:	e5d43008 	ldrb	r3, [r4, #8]
    843c:	e1d420b6 	ldrh	r2, [r4, #6]
    8440:	e1d400b4 	ldrh	r0, [r4, #4]
    8444:	ebfffe24 	bl	0x7cdc
    8448:	ebfffe1a 	bl	0x7cb8
    844c:	e3a00000 	mov	r0, #0
    8450:	e8bd8070 	pop	{r4, r5, r6, pc}
    8454:	0000001c 	andeq	r0, r0, ip, lsl r0
    8458:	00008bf8 	strdeq	r8, [r0], -r8	; <UNPREDICTABLE>
    845c:	eaffffe6 	b	0x83fc
    8460:	e92d4073 	push	{r0, r1, r4, r5, r6, lr}
    8464:	e1a04003 	mov	r4, r3
    8468:	e1a06002 	mov	r6, r2
    846c:	e1a05001 	mov	r5, r1
    8470:	e28d3004 	add	r3, sp, #4
    8474:	e1a01000 	mov	r1, r0
    8478:	e3a00000 	mov	r0, #0
    847c:	e1a02000 	mov	r2, r0
    8480:	eb000200 	bl	0x8c88
    8484:	e59d3004 	ldr	r3, [sp, #4]
    8488:	e3500000 	cmp	r0, #0
    848c:	00036416 	andeq	r6, r3, r6, lsl r4
    8490:	01a04436 	lsreq	r4, r6, r4
    8494:	05854000 	streq	r4, [r5]
    8498:	e8bd807c 	pop	{r2, r3, r4, r5, r6, pc}
    849c:	e92d4007 	push	{r0, r1, r2, lr}
    84a0:	e3a02000 	mov	r2, #0
    84a4:	e28d1008 	add	r1, sp, #8
    84a8:	e1a03002 	mov	r3, r2
    84ac:	e5212004 	str	r2, [r1, #-4]!
    84b0:	e30f2fff 	movw	r2, #65535	; 0xffff
    84b4:	ebffffe9 	bl	0x8460
    84b8:	e59d0004 	ldr	r0, [sp, #4]
    84bc:	e8bd800e 	pop	{r1, r2, r3, pc}
    84c0:	e92d4007 	push	{r0, r1, r2, lr}
    84c4:	e59fc02c 	ldr	ip, [pc, #44]	; 0x84f8
    84c8:	e28d1004 	add	r1, sp, #4
    84cc:	e08fc00c 	add	ip, pc, ip
    84d0:	e59f3024 	ldr	r3, [pc, #36]	; 0x84fc
    84d4:	e3a0200c 	mov	r2, #12
    84d8:	e79c3003 	ldr	r3, [ip, r3]
    84dc:	e0223092 	mla	r2, r2, r0, r3
    84e0:	e5d23008 	ldrb	r3, [r2, #8]
    84e4:	e1d200b4 	ldrh	r0, [r2, #4]
    84e8:	e1d220b6 	ldrh	r2, [r2, #6]
    84ec:	ebffffdb 	bl	0x8460
    84f0:	e1dd00b4 	ldrh	r0, [sp, #4]
    84f4:	e8bd800e 	pop	{r1, r2, r3, pc}
    84f8:	00008b38 	andeq	r8, r0, r8, lsr fp
    84fc:	0000001c 	andeq	r0, r0, ip, lsl r0
    8500:	eaffffee 	b	0x84c0
    8504:	e2100807 	ands	r0, r0, #458752	; 0x70000
    8508:	13a00001 	movne	r0, #1
    850c:	e12fff1e 	bx	lr
    8510:	e7e20850 	ubfx	r0, r0, #16, #3
    8514:	e2500006 	subs	r0, r0, #6
    8518:	13a00001 	movne	r0, #1
    851c:	e12fff1e 	bx	lr
    8520:	e2200601 	eor	r0, r0, #1048576	; 0x100000
    8524:	e7e00a50 	ubfx	r0, r0, #20, #1
    8528:	e12fff1e 	bx	lr
    852c:	e3100807 	tst	r0, #458752	; 0x70000
    8530:	02200601 	eoreq	r0, r0, #1048576	; 0x100000
    8534:	13a00001 	movne	r0, #1
    8538:	07e00a50 	ubfxeq	r0, r0, #20, #1
    853c:	e12fff1e 	bx	lr
    8540:	e2500001 	subs	r0, r0, #1
    8544:	13a00001 	movne	r0, #1
    8548:	e12fff1e 	bx	lr
    854c:	e12fff1e 	bx	lr
    8550:	e92d41f0 	push	{r4, r5, r6, r7, r8, lr}
    8554:	e1a04000 	mov	r4, r0
    8558:	e1a05001 	mov	r5, r1
    855c:	e1a06002 	mov	r6, r2
    8560:	e5957000 	ldr	r7, [r5]
    8564:	e1a00007 	mov	r0, r7
    8568:	e12fff34 	blx	r4
    856c:	e3500000 	cmp	r0, #0
    8570:	1afffffa 	bne	0x8560
    8574:	e3560000 	cmp	r6, #0
    8578:	e3a00000 	mov	r0, #0
    857c:	15867000 	strne	r7, [r6]
    8580:	e8bd81f0 	pop	{r4, r5, r6, r7, r8, pc}
    8584:	e92d41f3 	push	{r0, r1, r4, r5, r6, r7, r8, lr}
    8588:	e1a04000 	mov	r4, r0
    858c:	e1a08003 	mov	r8, r3
    8590:	e1a05001 	mov	r5, r1
    8594:	e3d03001 	bics	r3, r0, #1
    8598:	e1a06002 	mov	r6, r2
    859c:	13a00002 	movne	r0, #2
    85a0:	1a000027 	bne	0x8644
    85a4:	e1a03821 	lsr	r3, r1, #16
    85a8:	e1a03803 	lsl	r3, r3, #16
    85ac:	e3530000 	cmp	r3, #0
    85b0:	13a00003 	movne	r0, #3
    85b4:	1a000022 	bne	0x8644
    85b8:	e1a0c822 	lsr	ip, r2, #16
    85bc:	e1a0c80c 	lsl	ip, ip, #16
    85c0:	e35c0000 	cmp	ip, #0
    85c4:	13a00004 	movne	r0, #4
    85c8:	1a00001d 	bne	0x8644
    85cc:	e1a0200c 	mov	r2, ip
    85d0:	e59f0070 	ldr	r0, [pc, #112]	; 0x8648
    85d4:	e59f1070 	ldr	r1, [pc, #112]	; 0x864c
    85d8:	e08f0000 	add	r0, pc, r0
    85dc:	e58dc004 	str	ip, [sp, #4]
    85e0:	ebffffda 	bl	0x8550
    85e4:	e3500000 	cmp	r0, #0
    85e8:	1a000015 	bne	0x8644
    85ec:	e3540000 	cmp	r4, #0
    85f0:	e1a050a5 	lsr	r5, r5, #1
    85f4:	e1864f84 	orr	r4, r6, r4, lsl #31
    85f8:	e59f7050 	ldr	r7, [pc, #80]	; 0x8650
    85fc:	e1844805 	orr	r4, r4, r5, lsl #16
    8600:	e587409c 	str	r4, [r7, #156]	; 0x9c
    8604:	1a00000e 	bne	0x8644
    8608:	e3580000 	cmp	r8, #0
    860c:	03a00001 	moveq	r0, #1
    8610:	058700a4 	streq	r0, [r7, #164]	; 0xa4
    8614:	0a00000a 	beq	0x8644
    8618:	e59f0034 	ldr	r0, [pc, #52]	; 0x8654
    861c:	e59f1028 	ldr	r1, [pc, #40]	; 0x864c
    8620:	e08f0000 	add	r0, pc, r0
    8624:	e28d2004 	add	r2, sp, #4
    8628:	ebffffc8 	bl	0x8550
    862c:	e3500000 	cmp	r0, #0
    8630:	01dd30b4 	ldrheq	r3, [sp, #4]
    8634:	12800001 	addne	r0, r0, #1
    8638:	05883000 	streq	r3, [r8]
    863c:	03a03001 	moveq	r3, #1
    8640:	058730a4 	streq	r3, [r7, #164]	; 0xa4
    8644:	e8bd81fc 	pop	{r2, r3, r4, r5, r6, r7, r8, pc}
    8648:	ffffff24 			; <UNDEFINED> instruction: 0xffffff24
    864c:	1000f0a0 	andne	pc, r0, r0, lsr #1
    8650:	1000f000 	andne	pc, r0, r0
    8654:	fffffee8 			; <UNDEFINED> instruction: 0xfffffee8
    8658:	e1a02001 	mov	r2, r1
    865c:	e3a03000 	mov	r3, #0
    8660:	e1a01000 	mov	r1, r0
    8664:	e3a00001 	mov	r0, #1
    8668:	eaffffc5 	b	0x8584
    866c:	e92d47f0 	push	{r4, r5, r6, r7, r8, r9, sl, lr}
    8670:	e3a03000 	mov	r3, #0
    8674:	e59f458c 	ldr	r4, [pc, #1420]	; 0x8c08
    8678:	e3a0c201 	mov	ip, #268435456	; 0x10000000
    867c:	e3a0eb0a 	mov	lr, #10240	; 0x2800
    8680:	e59c7024 	ldr	r7, [ip, #36]	; 0x24
    8684:	e3a05001 	mov	r5, #1
    8688:	e59f657c 	ldr	r6, [pc, #1404]	; 0x8c0c
    868c:	e24dd020 	sub	sp, sp, #32
    8690:	e1a02003 	mov	r2, r3
    8694:	e1e07007 	mvn	r7, r7
    8698:	e59f8570 	ldr	r8, [pc, #1392]	; 0x8c10
    869c:	e59f0570 	ldr	r0, [pc, #1392]	; 0x8c14
    86a0:	e58c8054 	str	r8, [ip, #84]	; 0x54
    86a4:	e08f0000 	add	r0, pc, r0
    86a8:	e5948180 	ldr	r8, [r4, #384]	; 0x180
    86ac:	e59f1564 	ldr	r1, [pc, #1380]	; 0x8c18
    86b0:	e5845180 	str	r5, [r4, #384]	; 0x180
    86b4:	e59fa554 	ldr	sl, [pc, #1364]	; 0x8c10
    86b8:	e007a00a 	and	sl, r7, sl
    86bc:	e5967018 	ldr	r7, [r6, #24]
    86c0:	e38aa601 	orr	sl, sl, #1048576	; 0x100000
    86c4:	e58d701c 	str	r7, [sp, #28]
    86c8:	e3c78322 	bic	r8, r7, #-2013265920	; 0x88000000
    86cc:	e3877322 	orr	r7, r7, #-2013265920	; 0x88000000
    86d0:	e3c88b02 	bic	r8, r8, #2048	; 0x800
    86d4:	e3877b02 	orr	r7, r7, #2048	; 0x800
    86d8:	e3888322 	orr	r8, r8, #-2013265920	; 0x88000000
    86dc:	e5867018 	str	r7, [r6, #24]
    86e0:	e5868018 	str	r8, [r6, #24]
    86e4:	e5843180 	str	r3, [r4, #384]	; 0x180
    86e8:	e3a06006 	mov	r6, #6
    86ec:	e58ca084 	str	sl, [ip, #132]	; 0x84
    86f0:	e58c605c 	str	r6, [ip, #92]	; 0x5c
    86f4:	e59c6000 	ldr	r6, [ip]
    86f8:	e3866403 	orr	r6, r6, #50331648	; 0x3000000
    86fc:	e58c6000 	str	r6, [ip]
    8700:	e584513c 	str	r5, [r4, #316]	; 0x13c
    8704:	e5843140 	str	r3, [r4, #320]	; 0x140
    8708:	e5843050 	str	r3, [r4, #80]	; 0x50
    870c:	e5843004 	str	r3, [r4, #4]
    8710:	e5845000 	str	r5, [r4]
    8714:	e584505c 	str	r5, [r4, #92]	; 0x5c
    8718:	e5843008 	str	r3, [r4, #8]
    871c:	e2833c21 	add	r3, r3, #8448	; 0x2100
    8720:	e5843060 	str	r3, [r4, #96]	; 0x60
    8724:	e584e060 	str	lr, [r4, #96]	; 0x60
    8728:	e3a03a02 	mov	r3, #8192	; 0x2000
    872c:	e5843060 	str	r3, [r4, #96]	; 0x60
    8730:	e584e060 	str	lr, [r4, #96]	; 0x60
    8734:	e584e060 	str	lr, [r4, #96]	; 0x60
    8738:	e584e060 	str	lr, [r4, #96]	; 0x60
    873c:	e584e060 	str	lr, [r4, #96]	; 0x60
    8740:	e59f64c0 	ldr	r6, [pc, #1216]	; 0x8c08
    8744:	ebffff81 	bl	0x8550
    8748:	e3a03000 	mov	r3, #0
    874c:	e2505000 	subs	r5, r0, #0
    8750:	0584505c 	streq	r5, [r4, #92]	; 0x5c
    8754:	13a0500d 	movne	r5, #13
    8758:	05845000 	streq	r5, [r4]
    875c:	e3550000 	cmp	r5, #0
    8760:	e586305c 	str	r3, [r6, #92]	; 0x5c
    8764:	13a00014 	movne	r0, #20
    8768:	e5863000 	str	r3, [r6]
    876c:	1a000123 	bne	0x8c00
    8770:	e3a03008 	mov	r3, #8
    8774:	e3a07001 	mov	r7, #1
    8778:	e3a0200f 	mov	r2, #15
    877c:	e5867004 	str	r7, [r6, #4]
    8780:	e59f1494 	ldr	r1, [pc, #1172]	; 0x8c1c
    8784:	e5863050 	str	r3, [r6, #80]	; 0x50
    8788:	e08f1001 	add	r1, pc, r1
    878c:	e5867094 	str	r7, [r6, #148]	; 0x94
    8790:	e081c003 	add	ip, r1, r3
    8794:	e5862018 	str	r2, [r6, #24]
    8798:	e8910003 	ldm	r1, {r0, r1}
    879c:	e58d5010 	str	r5, [sp, #16]
    87a0:	e58d5018 	str	r5, [sp, #24]
    87a4:	e58d5014 	str	r5, [sp, #20]
    87a8:	e08de003 	add	lr, sp, r3
    87ac:	e1a0200d 	mov	r2, sp
    87b0:	e88e0003 	stm	lr, {r0, r1}
    87b4:	e89c0003 	ldm	ip, {r0, r1}
    87b8:	e8820003 	stm	r2, {r0, r1}
    87bc:	e5969050 	ldr	r9, [r6, #80]	; 0x50
    87c0:	e5863050 	str	r3, [r6, #80]	; 0x50
    87c4:	e28d8018 	add	r8, sp, #24
    87c8:	e59d4010 	ldr	r4, [sp, #16]
    87cc:	e305aaa5 	movw	sl, #23205	; 0x5aa5
    87d0:	e7e2c155 	ubfx	ip, r5, #2, #3
    87d4:	e3a00000 	mov	r0, #0
    87d8:	e586c01c 	str	ip, [r6, #28]
    87dc:	e1a03008 	mov	r3, r8
    87e0:	e1e0c005 	mvn	ip, r5
    87e4:	e3a01f63 	mov	r1, #396	; 0x18c
    87e8:	e20cc003 	and	ip, ip, #3
    87ec:	e1a02000 	mov	r2, r0
    87f0:	e586c00c 	str	ip, [r6, #12]
    87f4:	ebffff62 	bl	0x8584
    87f8:	e59d3018 	ldr	r3, [sp, #24]
    87fc:	e153000a 	cmp	r3, sl
    8800:	01844517 	orreq	r4, r4, r7, lsl r5
    8804:	e2855001 	add	r5, r5, #1
    8808:	e3550018 	cmp	r5, #24
    880c:	1affffef 	bne	0x87d0
    8810:	e58d4010 	str	r4, [sp, #16]
    8814:	e58d4014 	str	r4, [sp, #20]
    8818:	e59d3008 	ldr	r3, [sp, #8]
    881c:	e3a02017 	mov	r2, #23
    8820:	e3a01001 	mov	r1, #1
    8824:	e0140211 	ands	r0, r4, r1, lsl r2
    8828:	0a000001 	beq	0x8834
    882c:	e3730001 	cmn	r3, #1
    8830:	01a03002 	moveq	r3, r2
    8834:	e3530000 	cmp	r3, #0
    8838:	da000004 	ble	0x8850
    883c:	e58d3008 	str	r3, [sp, #8]
    8840:	e3a02017 	mov	r2, #23
    8844:	e59d300c 	ldr	r3, [sp, #12]
    8848:	e3a01001 	mov	r1, #1
    884c:	ea000002 	b	0x885c
    8850:	e2522001 	subs	r2, r2, #1
    8854:	2afffff2 	bcs	0x8824
    8858:	eafffff7 	b	0x883c
    885c:	e014c211 	ands	ip, r4, r1, lsl r2
    8860:	0a000001 	beq	0x886c
    8864:	e3730001 	cmn	r3, #1
    8868:	01a03002 	moveq	r3, r2
    886c:	e3530000 	cmp	r3, #0
    8870:	ca000001 	bgt	0x887c
    8874:	e2522001 	subs	r2, r2, #1
    8878:	2afffff7 	bcs	0x885c
    887c:	e58d300c 	str	r3, [sp, #12]
    8880:	e59d2000 	ldr	r2, [sp]
    8884:	e3a01000 	mov	r1, #0
    8888:	e3a00001 	mov	r0, #1
    888c:	e014c110 	ands	ip, r4, r0, lsl r1
    8890:	0a000001 	beq	0x889c
    8894:	e3720001 	cmn	r2, #1
    8898:	01a02001 	moveq	r2, r1
    889c:	e3520000 	cmp	r2, #0
    88a0:	da000004 	ble	0x88b8
    88a4:	e58d2000 	str	r2, [sp]
    88a8:	e3a01000 	mov	r1, #0
    88ac:	e59d2004 	ldr	r2, [sp, #4]
    88b0:	e3a00001 	mov	r0, #1
    88b4:	ea000003 	b	0x88c8
    88b8:	e2811001 	add	r1, r1, #1
    88bc:	e3510018 	cmp	r1, #24
    88c0:	1afffff1 	bne	0x888c
    88c4:	eafffff6 	b	0x88a4
    88c8:	e014c110 	ands	ip, r4, r0, lsl r1
    88cc:	0a000001 	beq	0x88d8
    88d0:	e3720001 	cmn	r2, #1
    88d4:	01a02001 	moveq	r2, r1
    88d8:	e3520000 	cmp	r2, #0
    88dc:	ca000002 	bgt	0x88ec
    88e0:	e2811001 	add	r1, r1, #1
    88e4:	e3510018 	cmp	r1, #24
    88e8:	1afffff6 	bne	0x88c8
    88ec:	e58d2004 	str	r2, [sp, #4]
    88f0:	e3a05001 	mov	r5, #1
    88f4:	e59dc008 	ldr	ip, [sp, #8]
    88f8:	e59d6000 	ldr	r6, [sp]
    88fc:	e08c7005 	add	r7, ip, r5
    8900:	e1a01615 	lsl	r1, r5, r6
    8904:	e59d000c 	ldr	r0, [sp, #12]
    8908:	e0617715 	rsb	r7, r1, r5, lsl r7
    890c:	e0800005 	add	r0, r0, r5
    8910:	e0577004 	subs	r7, r7, r4
    8914:	13a07001 	movne	r7, #1
    8918:	e59d1004 	ldr	r1, [sp, #4]
    891c:	e1a01115 	lsl	r1, r5, r1
    8920:	e0611015 	rsb	r1, r1, r5, lsl r0
    8924:	e1510004 	cmp	r1, r4
    8928:	1a000001 	bne	0x8934
    892c:	e3570000 	cmp	r7, #0
    8930:	0a000001 	beq	0x893c
    8934:	e3a00015 	mov	r0, #21
    8938:	ea0000b0 	b	0x8c00
    893c:	e3a01003 	mov	r1, #3
    8940:	e59f42c0 	ldr	r4, [pc, #704]	; 0x8c08
    8944:	e0823003 	add	r3, r2, r3
    8948:	e086c00c 	add	ip, r6, ip
    894c:	e300012a 	movw	r0, #298	; 0x12a
    8950:	e28d6020 	add	r6, sp, #32
    8954:	e0833fa3 	add	r3, r3, r3, lsr #31
    8958:	e08ccfac 	add	ip, ip, ip, lsr #31
    895c:	e1a0c0cc 	asr	ip, ip, #1
    8960:	e08c30c3 	add	r3, ip, r3, asr #1
    8964:	e0833fa3 	add	r3, r3, r3, lsr #31
    8968:	e1e020c3 	mvn	r2, r3, asr #1
    896c:	e7e231d3 	ubfx	r3, r3, #3, #3
    8970:	e0022001 	and	r2, r2, r1
    8974:	e584301c 	str	r3, [r4, #28]
    8978:	e584200c 	str	r2, [r4, #12]
    897c:	e5849050 	str	r9, [r4, #80]	; 0x50
    8980:	e5267008 	str	r7, [r6, #-8]!
    8984:	ebffff33 	bl	0x8658
    8988:	e1a00007 	mov	r0, r7
    898c:	e1a02007 	mov	r2, r7
    8990:	e3001126 	movw	r1, #294	; 0x126
    8994:	e1a03006 	mov	r3, r6
    8998:	ebfffef9 	bl	0x8584
    899c:	e59d7018 	ldr	r7, [sp, #24]
    89a0:	e2177003 	ands	r7, r7, #3
    89a4:	13a00016 	movne	r0, #22
    89a8:	1a000094 	bne	0x8c00
    89ac:	e3a01008 	mov	r1, #8
    89b0:	e3a00f69 	mov	r0, #420	; 0x1a4
    89b4:	ebffff27 	bl	0x8658
    89b8:	e3a08008 	mov	r8, #8
    89bc:	e3a03007 	mov	r3, #7
    89c0:	e5848018 	str	r8, [r4, #24]
    89c4:	e1a01005 	mov	r1, r5
    89c8:	e5847024 	str	r7, [r4, #36]	; 0x24
    89cc:	e300018a 	movw	r0, #394	; 0x18a
    89d0:	e5843020 	str	r3, [r4, #32]
    89d4:	e5847028 	str	r7, [r4, #40]	; 0x28
    89d8:	e584702c 	str	r7, [r4, #44]	; 0x2c
    89dc:	e58d7018 	str	r7, [sp, #24]
    89e0:	e594a050 	ldr	sl, [r4, #80]	; 0x50
    89e4:	e5848050 	str	r8, [r4, #80]	; 0x50
    89e8:	ebffff1a 	bl	0x8658
    89ec:	e1a02007 	mov	r2, r7
    89f0:	e59f0228 	ldr	r0, [pc, #552]	; 0x8c20
    89f4:	e59f121c 	ldr	r1, [pc, #540]	; 0x8c18
    89f8:	e08f0000 	add	r0, pc, r0
    89fc:	ebfffed3 	bl	0x8550
    8a00:	e2507000 	subs	r7, r0, #0
    8a04:	1a00007a 	bne	0x8bf4
    8a08:	e1a02007 	mov	r2, r7
    8a0c:	e1a03006 	mov	r3, r6
    8a10:	e3a01f63 	mov	r1, #396	; 0x18c
    8a14:	e5845008 	str	r5, [r4, #8]
    8a18:	ebfffed9 	bl	0x8584
    8a1c:	e59d2018 	ldr	r2, [sp, #24]
    8a20:	e3053aa5 	movw	r3, #23205	; 0x5aa5
    8a24:	e1520003 	cmp	r2, r3
    8a28:	1a000071 	bne	0x8bf4
    8a2c:	e584a050 	str	sl, [r4, #80]	; 0x50
    8a30:	e1a01005 	mov	r1, r5
    8a34:	e58d7018 	str	r7, [sp, #24]
    8a38:	e3a09002 	mov	r9, #2
    8a3c:	e594a050 	ldr	sl, [r4, #80]	; 0x50
    8a40:	e30001a2 	movw	r0, #418	; 0x1a2
    8a44:	e5848050 	str	r8, [r4, #80]	; 0x50
    8a48:	e5845138 	str	r5, [r4, #312]	; 0x138
    8a4c:	e5847138 	str	r7, [r4, #312]	; 0x138
    8a50:	e5845124 	str	r5, [r4, #292]	; 0x124
    8a54:	e5849128 	str	r9, [r4, #296]	; 0x128
    8a58:	e584512c 	str	r5, [r4, #300]	; 0x12c
    8a5c:	ebfffefd 	bl	0x8658
    8a60:	e1a01007 	mov	r1, r7
    8a64:	e30001a2 	movw	r0, #418	; 0x1a2
    8a68:	ebfffefa 	bl	0x8658
    8a6c:	e1a01005 	mov	r1, r5
    8a70:	e3a00f66 	mov	r0, #408	; 0x198
    8a74:	ebfffef7 	bl	0x8658
    8a78:	e1a01009 	mov	r1, r9
    8a7c:	e300019a 	movw	r0, #410	; 0x19a
    8a80:	ebfffef4 	bl	0x8658
    8a84:	e1a01005 	mov	r1, r5
    8a88:	e3a00f67 	mov	r0, #412	; 0x19c
    8a8c:	ebfffef1 	bl	0x8658
    8a90:	e1a02007 	mov	r2, r7
    8a94:	e59f0188 	ldr	r0, [pc, #392]	; 0x8c24
    8a98:	e59f1188 	ldr	r1, [pc, #392]	; 0x8c28
    8a9c:	e08f0000 	add	r0, pc, r0
    8aa0:	ebfffeaa 	bl	0x8550
    8aa4:	e3500000 	cmp	r0, #0
    8aa8:	1a000053 	bne	0x8bfc
    8aac:	e3a00000 	mov	r0, #0
    8ab0:	e300119e 	movw	r1, #414	; 0x19e
    8ab4:	e1a02000 	mov	r2, r0
    8ab8:	e1a03006 	mov	r3, r6
    8abc:	ebfffeb0 	bl	0x8584
    8ac0:	e59d5018 	ldr	r5, [sp, #24]
    8ac4:	e3550001 	cmp	r5, #1
    8ac8:	1afffff7 	bne	0x8aac
    8acc:	e1a01005 	mov	r1, r5
    8ad0:	e3a00e1a 	mov	r0, #416	; 0x1a0
    8ad4:	ebfffedf 	bl	0x8658
    8ad8:	e59f014c 	ldr	r0, [pc, #332]	; 0x8c2c
    8adc:	e59f1134 	ldr	r1, [pc, #308]	; 0x8c18
    8ae0:	e08f0000 	add	r0, pc, r0
    8ae4:	e3a02000 	mov	r2, #0
    8ae8:	ebfffe98 	bl	0x8550
    8aec:	e2507000 	subs	r7, r0, #0
    8af0:	1a000041 	bne	0x8bfc
    8af4:	e1a03006 	mov	r3, r6
    8af8:	e1a02007 	mov	r2, r7
    8afc:	e3a01f63 	mov	r1, #396	; 0x18c
    8b00:	e59f4100 	ldr	r4, [pc, #256]	; 0x8c08
    8b04:	e5845134 	str	r5, [r4, #308]	; 0x134
    8b08:	ebfffe9d 	bl	0x8584
    8b0c:	e59d2018 	ldr	r2, [sp, #24]
    8b10:	e3053aa5 	movw	r3, #23205	; 0x5aa5
    8b14:	e1520003 	cmp	r2, r3
    8b18:	1a000037 	bne	0x8bfc
    8b1c:	e30a655a 	movw	r6, #42330	; 0xa55a
    8b20:	e300018e 	movw	r0, #398	; 0x18e
    8b24:	e1a01006 	mov	r1, r6
    8b28:	e584a050 	str	sl, [r4, #80]	; 0x50
    8b2c:	ebfffec9 	bl	0x8658
    8b30:	e28d301c 	add	r3, sp, #28
    8b34:	e1a00007 	mov	r0, r7
    8b38:	e300118e 	movw	r1, #398	; 0x18e
    8b3c:	e1a02007 	mov	r2, r7
    8b40:	ebfffe8f 	bl	0x8584
    8b44:	e59d301c 	ldr	r3, [sp, #28]
    8b48:	e1530006 	cmp	r3, r6
    8b4c:	13a0001a 	movne	r0, #26
    8b50:	1a00002a 	bne	0x8c00
    8b54:	e3000192 	movw	r0, #402	; 0x192
    8b58:	e1a01005 	mov	r1, r5
    8b5c:	ebfffebd 	bl	0x8658
    8b60:	e2503000 	subs	r3, r0, #0
    8b64:	13a0001b 	movne	r0, #27
    8b68:	1a000024 	bne	0x8c00
    8b6c:	e58450c8 	str	r5, [r4, #200]	; 0xc8
    8b70:	e1a00003 	mov	r0, r3
    8b74:	e58430bc 	str	r3, [r4, #188]	; 0xbc
    8b78:	e3a03f65 	mov	r3, #404	; 0x194
    8b7c:	e58430b8 	str	r3, [r4, #184]	; 0xb8
    8b80:	e283306b 	add	r3, r3, #107	; 0x6b
    8b84:	e5843050 	str	r3, [r4, #80]	; 0x50
    8b88:	e584506c 	str	r5, [r4, #108]	; 0x6c
    8b8c:	e3a03005 	mov	r3, #5
    8b90:	e5845080 	str	r5, [r4, #128]	; 0x80
    8b94:	e5843030 	str	r3, [r4, #48]	; 0x30
    8b98:	e28330fa 	add	r3, r3, #250	; 0xfa
    8b9c:	e5843034 	str	r3, [r4, #52]	; 0x34
    8ba0:	e3a0300f 	mov	r3, #15
    8ba4:	e58430d4 	str	r3, [r4, #212]	; 0xd4
    8ba8:	e3e03000 	mvn	r3, #0
    8bac:	e58430d8 	str	r3, [r4, #216]	; 0xd8
    8bb0:	e58450cc 	str	r5, [r4, #204]	; 0xcc
    8bb4:	e3e0310a 	mvn	r3, #-2147483646	; 0x80000002
    8bb8:	e58430a8 	str	r3, [r4, #168]	; 0xa8
    8bbc:	e300376c 	movw	r3, #1900	; 0x76c
    8bc0:	e5843144 	str	r3, [r4, #324]	; 0x144
    8bc4:	e3a03902 	mov	r3, #32768	; 0x8000
    8bc8:	e5843148 	str	r3, [r4, #328]	; 0x148
    8bcc:	e300372c 	movw	r3, #1836	; 0x72c
    8bd0:	e584314c 	str	r3, [r4, #332]	; 0x14c
    8bd4:	e2833002 	add	r3, r3, #2
    8bd8:	e5843150 	str	r3, [r4, #336]	; 0x150
    8bdc:	e2833002 	add	r3, r3, #2
    8be0:	e5843154 	str	r3, [r4, #340]	; 0x154
    8be4:	e5845098 	str	r5, [r4, #152]	; 0x98
    8be8:	e5845070 	str	r5, [r4, #112]	; 0x70
    8bec:	e5845084 	str	r5, [r4, #132]	; 0x84
    8bf0:	ea000002 	b	0x8c00
    8bf4:	e3a00018 	mov	r0, #24
    8bf8:	ea000000 	b	0x8c00
    8bfc:	e3a00019 	mov	r0, #25
    8c00:	e28dd020 	add	sp, sp, #32
    8c04:	e8bd87f0 	pop	{r4, r5, r6, r7, r8, r9, sl, pc}
    8c08:	1000f000 	andne	pc, r0, r0
    8c0c:	10007000 	andne	r7, r0, r0
    8c10:	38100000 	ldmdacc	r0, {}	; <UNPREDICTABLE>
    8c14:	fffffe74 			; <UNDEFINED> instruction: 0xfffffe74
    8c18:	1000f0a0 	andne	pc, r0, r0, lsr #1
    8c1c:	000083dc 	ldrdeq	r8, [r0], -ip
    8c20:	fffffb2c 			; <UNDEFINED> instruction: 0xfffffb2c
    8c24:	fffffa9c 			; <UNDEFINED> instruction: 0xfffffa9c
    8c28:	1000f130 	andne	pc, r0, r0, lsr r1	; <UNPREDICTABLE>
    8c2c:	fffffa44 			; <UNDEFINED> instruction: 0xfffffa44
    8c30:	e92d4070 	push	{r4, r5, r6, lr}
    8c34:	e59f5044 	ldr	r5, [pc, #68]	; 0x8c80
    8c38:	e3a04000 	mov	r4, #0
    8c3c:	e08f5005 	add	r5, pc, r5
    8c40:	ebfffe89 	bl	0x866c
    8c44:	e2844001 	add	r4, r4, #1
    8c48:	e2503000 	subs	r3, r0, #0
    8c4c:	e1a00005 	mov	r0, r5
    8c50:	e1a01003 	mov	r1, r3
    8c54:	0a000003 	beq	0x8c68
    8c58:	eb000199 	bl	0x92c4
    8c5c:	e3540003 	cmp	r4, #3
    8c60:	1afffff6 	bne	0x8c40
    8c64:	ea000003 	b	0x8c78
    8c68:	e59f0014 	ldr	r0, [pc, #20]	; 0x8c84
    8c6c:	e1a01003 	mov	r1, r3
    8c70:	e08f0000 	add	r0, pc, r0
    8c74:	eb000192 	bl	0x92c4
    8c78:	e3a00000 	mov	r0, #0
    8c7c:	e8bd8070 	pop	{r4, r5, r6, pc}
    8c80:	00007f38 	andeq	r7, r0, r8, lsr pc
    8c84:	00007f34 	andeq	r7, r0, r4, lsr pc
    8c88:	e3d0c001 	bics	ip, r0, #1
    8c8c:	e92d4070 	push	{r4, r5, r6, lr}
    8c90:	13a00002 	movne	r0, #2
    8c94:	18bd8070 	popne	{r4, r5, r6, pc}
    8c98:	e1a0c821 	lsr	ip, r1, #16
    8c9c:	e1a0c80c 	lsl	ip, ip, #16
    8ca0:	e35c0000 	cmp	ip, #0
    8ca4:	13a00003 	movne	r0, #3
    8ca8:	18bd8070 	popne	{r4, r5, r6, pc}
    8cac:	e1a0c822 	lsr	ip, r2, #16
    8cb0:	e1a0c80c 	lsl	ip, ip, #16
    8cb4:	e35c0000 	cmp	ip, #0
    8cb8:	13a00004 	movne	r0, #4
    8cbc:	18bd8070 	popne	{r4, r5, r6, pc}
    8cc0:	e59f50a8 	ldr	r5, [pc, #168]	; 0x8d70
    8cc4:	e3a06001 	mov	r6, #1
    8cc8:	e595c0a0 	ldr	ip, [r5, #160]	; 0xa0
    8ccc:	e59f409c 	ldr	r4, [pc, #156]	; 0x8d70
    8cd0:	e31c0602 	tst	ip, #2097152	; 0x200000
    8cd4:	e7e2c85c 	ubfx	ip, ip, #16, #3
    8cd8:	1a000001 	bne	0x8ce4
    8cdc:	e3a00007 	mov	r0, #7
    8ce0:	e8bd8070 	pop	{r4, r5, r6, pc}
    8ce4:	e35c0006 	cmp	ip, #6
    8ce8:	058560a4 	streq	r6, [r5, #164]	; 0xa4
    8cec:	0afffff5 	beq	0x8cc8
    8cf0:	e35c0000 	cmp	ip, #0
    8cf4:	1afffff3 	bne	0x8cc8
    8cf8:	ea00000e 	b	0x8d38
    8cfc:	e3530000 	cmp	r3, #0
    8d00:	03a00001 	moveq	r0, #1
    8d04:	058400a4 	streq	r0, [r4, #164]	; 0xa4
    8d08:	08bd8070 	popeq	{r4, r5, r6, pc}
    8d0c:	e59420a0 	ldr	r2, [r4, #160]	; 0xa0
    8d10:	e3120602 	tst	r2, #2097152	; 0x200000
    8d14:	1a000001 	bne	0x8d20
    8d18:	e3a00008 	mov	r0, #8
    8d1c:	e8bd8070 	pop	{r4, r5, r6, pc}
    8d20:	e7e21852 	ubfx	r1, r2, #16, #3
    8d24:	e3510006 	cmp	r1, #6
    8d28:	1afffff7 	bne	0x8d0c
    8d2c:	ea000008 	b	0x8d54
    8d30:	e1a0000c 	mov	r0, ip
    8d34:	e8bd8070 	pop	{r4, r5, r6, pc}
    8d38:	e3500000 	cmp	r0, #0
    8d3c:	e1820f80 	orr	r0, r2, r0, lsl #31
    8d40:	e1a020a1 	lsr	r2, r1, #1
    8d44:	e1802802 	orr	r2, r0, r2, lsl #16
    8d48:	e584209c 	str	r2, [r4, #156]	; 0x9c
    8d4c:	0affffea 	beq	0x8cfc
    8d50:	eafffff6 	b	0x8d30
    8d54:	e6ff2072 	uxth	r2, r2
    8d58:	e3a00000 	mov	r0, #0
    8d5c:	e5832000 	str	r2, [r3]
    8d60:	e3a02001 	mov	r2, #1
    8d64:	e59f3004 	ldr	r3, [pc, #4]	; 0x8d70
    8d68:	e58320a4 	str	r2, [r3, #164]	; 0xa4
    8d6c:	e8bd8070 	pop	{r4, r5, r6, pc}
    8d70:	1000f000 	andne	pc, r0, r0
    8d74:	e1a02001 	mov	r2, r1
    8d78:	e3a03000 	mov	r3, #0
    8d7c:	e1a01000 	mov	r1, r0
    8d80:	e3a00001 	mov	r0, #1
    8d84:	eaffffbf 	b	0x8c88
    8d88:	e1a03001 	mov	r3, r1
    8d8c:	e1a01000 	mov	r1, r0
    8d90:	e3a00000 	mov	r0, #0
    8d94:	e1a02000 	mov	r2, r0
    8d98:	eaffffba 	b	0x8c88
    8d9c:	e59f0010 	ldr	r0, [pc, #16]	; 0x8db4
    8da0:	e59f1010 	ldr	r1, [pc, #16]	; 0x8db8
    8da4:	e08f0000 	add	r0, pc, r0
    8da8:	e08f1001 	add	r1, pc, r1
    8dac:	e3a0203c 	mov	r2, #60	; 0x3c
    8db0:	ea000354 	b	0x9b08
    8db4:	00007e50 	andeq	r7, r0, r0, asr lr
    8db8:	00007e68 	andeq	r7, r0, r8, ror #28
    8dbc:	e92d47f0 	push	{r4, r5, r6, r7, r8, r9, sl, lr}
    8dc0:	e1a04000 	mov	r4, r0
    8dc4:	ea000000 	b	0x8dcc
    8dc8:	e2844001 	add	r4, r4, #1
    8dcc:	e5d43000 	ldrb	r3, [r4]
    8dd0:	e3530020 	cmp	r3, #32
    8dd4:	13530009 	cmpne	r3, #9
    8dd8:	13a07000 	movne	r7, #0
    8ddc:	03a07001 	moveq	r7, #1
    8de0:	0afffff8 	beq	0x8dc8
    8de4:	e353002d 	cmp	r3, #45	; 0x2d
    8de8:	02844001 	addeq	r4, r4, #1
    8dec:	03a07001 	moveq	r7, #1
    8df0:	0a000001 	beq	0x8dfc
    8df4:	e353002b 	cmp	r3, #43	; 0x2b
    8df8:	02844001 	addeq	r4, r4, #1
    8dfc:	e3a06000 	mov	r6, #0
    8e00:	e59f8048 	ldr	r8, [pc, #72]	; 0x8e50
    8e04:	e1a05006 	mov	r5, r6
    8e08:	e08f8008 	add	r8, pc, r8
    8e0c:	e3a0a00a 	mov	sl, #10
    8e10:	e2888010 	add	r8, r8, #16
    8e14:	ea000005 	b	0x8e30
    8e18:	eb000201 	bl	0x9624
    8e1c:	e2866001 	add	r6, r6, #1
    8e20:	e3500000 	cmp	r0, #0
    8e24:	0a000005 	beq	0x8e40
    8e28:	e0680000 	rsb	r0, r8, r0
    8e2c:	e025059a 	mla	r5, sl, r5, r0
    8e30:	e7d43006 	ldrb	r3, [r4, r6]
    8e34:	e1a00008 	mov	r0, r8
    8e38:	e2531000 	subs	r1, r3, #0
    8e3c:	1afffff5 	bne	0x8e18
    8e40:	e3570000 	cmp	r7, #0
    8e44:	12650000 	rsbne	r0, r5, #0
    8e48:	01a00005 	moveq	r0, r5
    8e4c:	e8bd87f0 	pop	{r4, r5, r6, r7, r8, r9, sl, pc}
    8e50:	00007dec 	andeq	r7, r0, ip, ror #27
    8e54:	e92d4070 	push	{r4, r5, r6, lr}
    8e58:	e3a05000 	mov	r5, #0
    8e5c:	e1a04000 	mov	r4, r0
    8e60:	e1a06005 	mov	r6, r5
    8e64:	e5d43000 	ldrb	r3, [r4]
    8e68:	e3530000 	cmp	r3, #0
    8e6c:	1353002e 	cmpne	r3, #46	; 0x2e
    8e70:	03a03000 	moveq	r3, #0
    8e74:	13a03001 	movne	r3, #1
    8e78:	12844001 	addne	r4, r4, #1
    8e7c:	1afffff8 	bne	0x8e64
    8e80:	e5c43000 	strb	r3, [r4]
    8e84:	e2844001 	add	r4, r4, #1
    8e88:	ebffffcb 	bl	0x8dbc
    8e8c:	e6ef0070 	uxtb	r0, r0
    8e90:	e1866510 	orr	r6, r6, r0, lsl r5
    8e94:	e2855008 	add	r5, r5, #8
    8e98:	e3550020 	cmp	r5, #32
    8e9c:	11a00004 	movne	r0, r4
    8ea0:	1affffef 	bne	0x8e64
    8ea4:	e1a00006 	mov	r0, r6
    8ea8:	e8bd8070 	pop	{r4, r5, r6, pc}
    8eac:	e92d4070 	push	{r4, r5, r6, lr}
    8eb0:	e1a05000 	mov	r5, r0
    8eb4:	e3a04000 	mov	r4, #0
    8eb8:	ea000006 	b	0x8ed8
    8ebc:	e353000a 	cmp	r3, #10
    8ec0:	1a000001 	bne	0x8ecc
    8ec4:	e3a0000d 	mov	r0, #13
    8ec8:	eb0002dc 	bl	0x9a40
    8ecc:	e7d50004 	ldrb	r0, [r5, r4]
    8ed0:	e2844001 	add	r4, r4, #1
    8ed4:	eb0002d9 	bl	0x9a40
    8ed8:	e7d53004 	ldrb	r3, [r5, r4]
    8edc:	e3530000 	cmp	r3, #0
    8ee0:	1afffff5 	bne	0x8ebc
    8ee4:	e8bd8070 	pop	{r4, r5, r6, pc}
    8ee8:	e59f2020 	ldr	r2, [pc, #32]	; 0x8f10
    8eec:	e59f3020 	ldr	r3, [pc, #32]	; 0x8f14
    8ef0:	e08f3003 	add	r3, pc, r3
    8ef4:	e7933002 	ldr	r3, [r3, r2]
    8ef8:	e5932000 	ldr	r2, [r3]
    8efc:	e3520000 	cmp	r2, #0
    8f00:	14c20001 	strbne	r0, [r2], #1
    8f04:	15832000 	strne	r2, [r3]
    8f08:	112fff1e 	bxne	lr
    8f0c:	ea0002cb 	b	0x9a40
    8f10:	00000090 	muleq	r0, r0, r0
    8f14:	00008114 	andeq	r8, r0, r4, lsl r1
    8f18:	e3510000 	cmp	r1, #0
    8f1c:	e92d4010 	push	{r4, lr}
    8f20:	12411001 	subne	r1, r1, #1
    8f24:	e1a04000 	mov	r4, r0
    8f28:	e3d0300f 	bics	r3, r0, #15
    8f2c:	03a03000 	moveq	r3, #0
    8f30:	13a03001 	movne	r3, #1
    8f34:	e3510000 	cmp	r1, #0
    8f38:	13833001 	orrne	r3, r3, #1
    8f3c:	e3530000 	cmp	r3, #0
    8f40:	0a000002 	beq	0x8f50
    8f44:	e1a00220 	lsr	r0, r0, #4
    8f48:	e204400f 	and	r4, r4, #15
    8f4c:	ebfffff1 	bl	0x8f18
    8f50:	e3540009 	cmp	r4, #9
    8f54:	92840030 	addls	r0, r4, #48	; 0x30
    8f58:	82840037 	addhi	r0, r4, #55	; 0x37
    8f5c:	e6ef0070 	uxtb	r0, r0
    8f60:	e8bd4010 	pop	{r4, lr}
    8f64:	eaffffdf 	b	0x8ee8
    8f68:	e92d4010 	push	{r4, lr}
    8f6c:	e3500009 	cmp	r0, #9
    8f70:	e1a04000 	mov	r4, r0
    8f74:	9a000006 	bls	0x8f94
    8f78:	e3a0100a 	mov	r1, #10
    8f7c:	eb000819 	bl	0xafe8
    8f80:	ebfffff8 	bl	0x8f68
    8f84:	e1a00004 	mov	r0, r4
    8f88:	e3a0100a 	mov	r1, #10
    8f8c:	eb000840 	bl	0xb094
    8f90:	e1a04001 	mov	r4, r1
    8f94:	e2840030 	add	r0, r4, #48	; 0x30
    8f98:	e6ef0070 	uxtb	r0, r0
    8f9c:	e8bd4010 	pop	{r4, lr}
    8fa0:	eaffffd0 	b	0x8ee8
    8fa4:	e92d000e 	push	{r1, r2, r3}
    8fa8:	e92d4df0 	push	{r4, r5, r6, r7, r8, sl, fp, lr}
    8fac:	e59f52b8 	ldr	r5, [pc, #696]	; 0x926c
    8fb0:	e24dd014 	sub	sp, sp, #20
    8fb4:	e08f5005 	add	r5, pc, r5
    8fb8:	e28d3038 	add	r3, sp, #56	; 0x38
    8fbc:	e1a08000 	mov	r8, r0
    8fc0:	e58d300c 	str	r3, [sp, #12]
    8fc4:	e59f32a4 	ldr	r3, [pc, #676]	; 0x9270
    8fc8:	e1a0600d 	mov	r6, sp
    8fcc:	e7953003 	ldr	r3, [r5, r3]
    8fd0:	e59d4034 	ldr	r4, [sp, #52]	; 0x34
    8fd4:	e5830000 	str	r0, [r3]
    8fd8:	e28d7004 	add	r7, sp, #4
    8fdc:	ea000093 	b	0x9230
    8fe0:	e2844001 	add	r4, r4, #1
    8fe4:	e35a000d 	cmp	sl, #13
    8fe8:	0a000088 	beq	0x9210
    8fec:	e35a0025 	cmp	sl, #37	; 0x25
    8ff0:	0a000002 	beq	0x9000
    8ff4:	e35a000a 	cmp	sl, #10
    8ff8:	1a00008a 	bne	0x9228
    8ffc:	ea000086 	b	0x921c
    9000:	e4d40001 	ldrb	r0, [r4], #1
    9004:	e3500064 	cmp	r0, #100	; 0x64
    9008:	0a00002b 	beq	0x90bc
    900c:	8a00000c 	bhi	0x9044
    9010:	e3500048 	cmp	r0, #72	; 0x48
    9014:	0a00001f 	beq	0x9098
    9018:	8a000004 	bhi	0x9030
    901c:	e3500025 	cmp	r0, #37	; 0x25
    9020:	0a000081 	beq	0x922c
    9024:	e3500042 	cmp	r0, #66	; 0x42
    9028:	1a000076 	bne	0x9208
    902c:	ea000012 	b	0x907c
    9030:	e3500058 	cmp	r0, #88	; 0x58
    9034:	0a00001c 	beq	0x90ac
    9038:	e3500063 	cmp	r0, #99	; 0x63
    903c:	1a000071 	bne	0x9208
    9040:	ea000033 	b	0x9114
    9044:	e3500073 	cmp	r0, #115	; 0x73
    9048:	0a00002b 	beq	0x90fc
    904c:	8a000002 	bhi	0x905c
    9050:	e3500066 	cmp	r0, #102	; 0x66
    9054:	1a00006b 	bne	0x9208
    9058:	ea000032 	b	0x9128
    905c:	e3500075 	cmp	r0, #117	; 0x75
    9060:	0a000020 	beq	0x90e8
    9064:	e3500078 	cmp	r0, #120	; 0x78
    9068:	059d300c 	ldreq	r3, [sp, #12]
    906c:	03a01000 	moveq	r1, #0
    9070:	05930000 	ldreq	r0, [r3]
    9074:	1a000063 	bne	0x9208
    9078:	ea000002 	b	0x9088
    907c:	e59d300c 	ldr	r3, [sp, #12]
    9080:	e3a01002 	mov	r1, #2
    9084:	e5930000 	ldr	r0, [r3]
    9088:	e2833004 	add	r3, r3, #4
    908c:	e58d300c 	str	r3, [sp, #12]
    9090:	ebffffa0 	bl	0x8f18
    9094:	ea000065 	b	0x9230
    9098:	e59d300c 	ldr	r3, [sp, #12]
    909c:	e3a01004 	mov	r1, #4
    90a0:	e5930000 	ldr	r0, [r3]
    90a4:	e0833001 	add	r3, r3, r1
    90a8:	eafffff7 	b	0x908c
    90ac:	e59d300c 	ldr	r3, [sp, #12]
    90b0:	e3a01008 	mov	r1, #8
    90b4:	e5930000 	ldr	r0, [r3]
    90b8:	eafffff2 	b	0x9088
    90bc:	e59d300c 	ldr	r3, [sp, #12]
    90c0:	e593a000 	ldr	sl, [r3]
    90c4:	e2833004 	add	r3, r3, #4
    90c8:	e35a0000 	cmp	sl, #0
    90cc:	e58d300c 	str	r3, [sp, #12]
    90d0:	aa000002 	bge	0x90e0
    90d4:	e3a0002d 	mov	r0, #45	; 0x2d
    90d8:	e26aa000 	rsb	sl, sl, #0
    90dc:	ebffff81 	bl	0x8ee8
    90e0:	e1a0000a 	mov	r0, sl
    90e4:	ea000045 	b	0x9200
    90e8:	e59d300c 	ldr	r3, [sp, #12]
    90ec:	e5930000 	ldr	r0, [r3]
    90f0:	e2833004 	add	r3, r3, #4
    90f4:	e58d300c 	str	r3, [sp, #12]
    90f8:	ea000040 	b	0x9200
    90fc:	e59d300c 	ldr	r3, [sp, #12]
    9100:	e5930000 	ldr	r0, [r3]
    9104:	e2833004 	add	r3, r3, #4
    9108:	e58d300c 	str	r3, [sp, #12]
    910c:	ebffff66 	bl	0x8eac
    9110:	ea000046 	b	0x9230
    9114:	e59d300c 	ldr	r3, [sp, #12]
    9118:	e5d30000 	ldrb	r0, [r3]
    911c:	e2833004 	add	r3, r3, #4
    9120:	e58d300c 	str	r3, [sp, #12]
    9124:	ea000040 	b	0x922c
    9128:	e59dc00c 	ldr	ip, [sp, #12]
    912c:	e3a02000 	mov	r2, #0
    9130:	e28cc007 	add	ip, ip, #7
    9134:	e3a03000 	mov	r3, #0
    9138:	e3ccc007 	bic	ip, ip, #7
    913c:	e1cca0d0 	ldrd	sl, [ip]
    9140:	e1a0000a 	mov	r0, sl
    9144:	e1a0100b 	mov	r1, fp
    9148:	e596e000 	ldr	lr, [r6]
    914c:	e28cc008 	add	ip, ip, #8
    9150:	e1cda0f0 	strd	sl, [sp]
    9154:	e58dc00c 	str	ip, [sp, #12]
    9158:	e597c000 	ldr	ip, [r7]
    915c:	e587e000 	str	lr, [r7]
    9160:	e586c000 	str	ip, [r6]
    9164:	eb000a12 	bl	0xb9b4
    9168:	e3500000 	cmp	r0, #0
    916c:	0a000004 	beq	0x9184
    9170:	e3a0002d 	mov	r0, #45	; 0x2d
    9174:	ebffff5b 	bl	0x8ee8
    9178:	e59d3004 	ldr	r3, [sp, #4]
    917c:	e2833102 	add	r3, r3, #-2147483648	; 0x80000000
    9180:	e58d3004 	str	r3, [sp, #4]
    9184:	e1cda0d0 	ldrd	sl, [sp]
    9188:	e3a02000 	mov	r2, #0
    918c:	e59f30e0 	ldr	r3, [pc, #224]	; 0x9274
    9190:	e1a0000a 	mov	r0, sl
    9194:	e1a0100b 	mov	r1, fp
    9198:	eb000a0f 	bl	0xb9dc
    919c:	e3500000 	cmp	r0, #0
    91a0:	0a000004 	beq	0x91b8
    91a4:	e1a0100b 	mov	r1, fp
    91a8:	e1a0000a 	mov	r0, sl
    91ac:	eb000a14 	bl	0xba04
    91b0:	ebffff6c 	bl	0x8f68
    91b4:	ea000001 	b	0x91c0
    91b8:	e3a00030 	mov	r0, #48	; 0x30
    91bc:	ebffff49 	bl	0x8ee8
    91c0:	e3a0002e 	mov	r0, #46	; 0x2e
    91c4:	ebffff47 	bl	0x8ee8
    91c8:	e1cda0d0 	ldrd	sl, [sp]
    91cc:	e1a0100b 	mov	r1, fp
    91d0:	e1a0000a 	mov	r0, sl
    91d4:	eb000a0a 	bl	0xba04
    91d8:	eb00086b 	bl	0xb38c
    91dc:	e1a02000 	mov	r2, r0
    91e0:	e1a03001 	mov	r3, r1
    91e4:	e1a0000a 	mov	r0, sl
    91e8:	e1a0100b 	mov	r1, fp
    91ec:	eb0007b1 	bl	0xb0b8
    91f0:	e3a02000 	mov	r2, #0
    91f4:	e59f307c 	ldr	r3, [pc, #124]	; 0x9278
    91f8:	eb00089a 	bl	0xb468
    91fc:	eb000a00 	bl	0xba04
    9200:	ebffff58 	bl	0x8f68
    9204:	ea000009 	b	0x9230
    9208:	e3a00020 	mov	r0, #32
    920c:	ea000006 	b	0x922c
    9210:	e5d43000 	ldrb	r3, [r4]
    9214:	e353000a 	cmp	r3, #10
    9218:	02844001 	addeq	r4, r4, #1
    921c:	e3a0000d 	mov	r0, #13
    9220:	e3a0a00a 	mov	sl, #10
    9224:	ebffff2f 	bl	0x8ee8
    9228:	e1a0000a 	mov	r0, sl
    922c:	ebffff2d 	bl	0x8ee8
    9230:	e5d4a000 	ldrb	sl, [r4]
    9234:	e35a0000 	cmp	sl, #0
    9238:	1affff68 	bne	0x8fe0
    923c:	e1a0000a 	mov	r0, sl
    9240:	ebffff28 	bl	0x8ee8
    9244:	e59f3024 	ldr	r3, [pc, #36]	; 0x9270
    9248:	e7953003 	ldr	r3, [r5, r3]
    924c:	e5932000 	ldr	r2, [r3]
    9250:	e583a000 	str	sl, [r3]
    9254:	e0688002 	rsb	r8, r8, r2
    9258:	e6ef0078 	uxtb	r0, r8
    925c:	e28dd014 	add	sp, sp, #20
    9260:	e8bd4df0 	pop	{r4, r5, r6, r7, r8, sl, fp, lr}
    9264:	e28dd00c 	add	sp, sp, #12
    9268:	e12fff1e 	bx	lr
    926c:	00008050 	andeq	r8, r0, r0, asr r0
    9270:	00000090 	muleq	r0, r0, r0
    9274:	3ff00000 	svccc	0x00f00000	; IMB
    9278:	40f86a00 	rscsmi	r6, r8, r0, lsl #20
    927c:	e92d4013 	push	{r0, r1, r4, lr}
    9280:	e1a0c000 	mov	ip, r0
    9284:	e7e73450 	ubfx	r3, r0, #8, #8
    9288:	e6ef207c 	uxtb	r2, ip
    928c:	e59f4028 	ldr	r4, [pc, #40]	; 0x92bc
    9290:	e59f1028 	ldr	r1, [pc, #40]	; 0x92c0
    9294:	e08f4004 	add	r4, pc, r4
    9298:	e08f1001 	add	r1, pc, r1
    929c:	e1a00004 	mov	r0, r4
    92a0:	e7e7e85c 	ubfx	lr, ip, #16, #8
    92a4:	e1a0cc2c 	lsr	ip, ip, #24
    92a8:	e58de000 	str	lr, [sp]
    92ac:	e58dc004 	str	ip, [sp, #4]
    92b0:	ebffff3b 	bl	0x8fa4
    92b4:	e1a00004 	mov	r0, r4
    92b8:	e8bd801c 	pop	{r2, r3, r4, pc}
    92bc:	00009aec 	andeq	r9, r0, ip, ror #21
    92c0:	00007987 	andeq	r7, r0, r7, lsl #19
    92c4:	e92d000f 	push	{r0, r1, r2, r3}
    92c8:	e92d4073 	push	{r0, r1, r4, r5, r6, lr}
    92cc:	e59d4018 	ldr	r4, [sp, #24]
    92d0:	e28d301c 	add	r3, sp, #28
    92d4:	e58d3004 	str	r3, [sp, #4]
    92d8:	ea00008a 	b	0x9508
    92dc:	e2844001 	add	r4, r4, #1
    92e0:	e350000d 	cmp	r0, #13
    92e4:	0a000080 	beq	0x94ec
    92e8:	e3500025 	cmp	r0, #37	; 0x25
    92ec:	0a000002 	beq	0x92fc
    92f0:	e350000a 	cmp	r0, #10
    92f4:	1a000082 	bne	0x9504
    92f8:	ea00007e 	b	0x94f8
    92fc:	e4d40001 	ldrb	r0, [r4], #1
    9300:	e3500064 	cmp	r0, #100	; 0x64
    9304:	0a00002b 	beq	0x93b8
    9308:	8a00000c 	bhi	0x9340
    930c:	e3500048 	cmp	r0, #72	; 0x48
    9310:	0a00001f 	beq	0x9394
    9314:	8a000004 	bhi	0x932c
    9318:	e3500025 	cmp	r0, #37	; 0x25
    931c:	0a000078 	beq	0x9504
    9320:	e3500042 	cmp	r0, #66	; 0x42
    9324:	1a00006e 	bne	0x94e4
    9328:	ea000012 	b	0x9378
    932c:	e3500058 	cmp	r0, #88	; 0x58
    9330:	0a00001c 	beq	0x93a8
    9334:	e3500063 	cmp	r0, #99	; 0x63
    9338:	1a000069 	bne	0x94e4
    933c:	ea000033 	b	0x9410
    9340:	e3500073 	cmp	r0, #115	; 0x73
    9344:	0a00002b 	beq	0x93f8
    9348:	8a000002 	bhi	0x9358
    934c:	e3500066 	cmp	r0, #102	; 0x66
    9350:	1a000063 	bne	0x94e4
    9354:	ea000032 	b	0x9424
    9358:	e3500075 	cmp	r0, #117	; 0x75
    935c:	0a000020 	beq	0x93e4
    9360:	e3500078 	cmp	r0, #120	; 0x78
    9364:	059d3004 	ldreq	r3, [sp, #4]
    9368:	03a01000 	moveq	r1, #0
    936c:	05930000 	ldreq	r0, [r3]
    9370:	1a00005b 	bne	0x94e4
    9374:	ea000002 	b	0x9384
    9378:	e59d3004 	ldr	r3, [sp, #4]
    937c:	e3a01002 	mov	r1, #2
    9380:	e5930000 	ldr	r0, [r3]
    9384:	e2833004 	add	r3, r3, #4
    9388:	e58d3004 	str	r3, [sp, #4]
    938c:	ebfffee1 	bl	0x8f18
    9390:	ea00005c 	b	0x9508
    9394:	e59d3004 	ldr	r3, [sp, #4]
    9398:	e3a01004 	mov	r1, #4
    939c:	e5930000 	ldr	r0, [r3]
    93a0:	e0833001 	add	r3, r3, r1
    93a4:	eafffff7 	b	0x9388
    93a8:	e59d3004 	ldr	r3, [sp, #4]
    93ac:	e3a01008 	mov	r1, #8
    93b0:	e5930000 	ldr	r0, [r3]
    93b4:	eafffff2 	b	0x9384
    93b8:	e59d3004 	ldr	r3, [sp, #4]
    93bc:	e5935000 	ldr	r5, [r3]
    93c0:	e2833004 	add	r3, r3, #4
    93c4:	e3550000 	cmp	r5, #0
    93c8:	e58d3004 	str	r3, [sp, #4]
    93cc:	aa000002 	bge	0x93dc
    93d0:	e3a0002d 	mov	r0, #45	; 0x2d
    93d4:	e2655000 	rsb	r5, r5, #0
    93d8:	ebfffec2 	bl	0x8ee8
    93dc:	e1a00005 	mov	r0, r5
    93e0:	ea00003d 	b	0x94dc
    93e4:	e59d3004 	ldr	r3, [sp, #4]
    93e8:	e5930000 	ldr	r0, [r3]
    93ec:	e2833004 	add	r3, r3, #4
    93f0:	e58d3004 	str	r3, [sp, #4]
    93f4:	ea000038 	b	0x94dc
    93f8:	e59d3004 	ldr	r3, [sp, #4]
    93fc:	e5930000 	ldr	r0, [r3]
    9400:	e2833004 	add	r3, r3, #4
    9404:	e58d3004 	str	r3, [sp, #4]
    9408:	ebfffea7 	bl	0x8eac
    940c:	ea00003d 	b	0x9508
    9410:	e59d3004 	ldr	r3, [sp, #4]
    9414:	e5d30000 	ldrb	r0, [r3]
    9418:	e2833004 	add	r3, r3, #4
    941c:	e58d3004 	str	r3, [sp, #4]
    9420:	ea000037 	b	0x9504
    9424:	e59dc004 	ldr	ip, [sp, #4]
    9428:	e3a02000 	mov	r2, #0
    942c:	e28cc007 	add	ip, ip, #7
    9430:	e3a03000 	mov	r3, #0
    9434:	e3ccc007 	bic	ip, ip, #7
    9438:	e59c5004 	ldr	r5, [ip, #4]
    943c:	e59c6000 	ldr	r6, [ip]
    9440:	e1a01005 	mov	r1, r5
    9444:	e1a00006 	mov	r0, r6
    9448:	e28cc008 	add	ip, ip, #8
    944c:	e58dc004 	str	ip, [sp, #4]
    9450:	eb000957 	bl	0xb9b4
    9454:	e3500000 	cmp	r0, #0
    9458:	0a000002 	beq	0x9468
    945c:	e3a0002d 	mov	r0, #45	; 0x2d
    9460:	e2855102 	add	r5, r5, #-2147483648	; 0x80000000
    9464:	ebfffe9f 	bl	0x8ee8
    9468:	e3a02000 	mov	r2, #0
    946c:	e59f30ac 	ldr	r3, [pc, #172]	; 0x9520
    9470:	e1a00006 	mov	r0, r6
    9474:	e1a01005 	mov	r1, r5
    9478:	eb000957 	bl	0xb9dc
    947c:	e3500000 	cmp	r0, #0
    9480:	0a000004 	beq	0x9498
    9484:	e1a01005 	mov	r1, r5
    9488:	e1a00006 	mov	r0, r6
    948c:	eb00095c 	bl	0xba04
    9490:	ebfffeb4 	bl	0x8f68
    9494:	ea000001 	b	0x94a0
    9498:	e3a00030 	mov	r0, #48	; 0x30
    949c:	ebfffe91 	bl	0x8ee8
    94a0:	e3a0002e 	mov	r0, #46	; 0x2e
    94a4:	ebfffe8f 	bl	0x8ee8
    94a8:	e1a01005 	mov	r1, r5
    94ac:	e1a00006 	mov	r0, r6
    94b0:	eb000953 	bl	0xba04
    94b4:	eb0007b4 	bl	0xb38c
    94b8:	e1a02000 	mov	r2, r0
    94bc:	e1a03001 	mov	r3, r1
    94c0:	e1a00006 	mov	r0, r6
    94c4:	e1a01005 	mov	r1, r5
    94c8:	eb0006fa 	bl	0xb0b8
    94cc:	e3a02000 	mov	r2, #0
    94d0:	e59f304c 	ldr	r3, [pc, #76]	; 0x9524
    94d4:	eb0007e3 	bl	0xb468
    94d8:	eb000949 	bl	0xba04
    94dc:	ebfffea1 	bl	0x8f68
    94e0:	ea000008 	b	0x9508
    94e4:	e3a00020 	mov	r0, #32
    94e8:	ea000005 	b	0x9504
    94ec:	e5d43000 	ldrb	r3, [r4]
    94f0:	e353000a 	cmp	r3, #10
    94f4:	02844001 	addeq	r4, r4, #1
    94f8:	e3a0000d 	mov	r0, #13
    94fc:	ebfffe79 	bl	0x8ee8
    9500:	e3a0000a 	mov	r0, #10
    9504:	ebfffe77 	bl	0x8ee8
    9508:	e5d40000 	ldrb	r0, [r4]
    950c:	e3500000 	cmp	r0, #0
    9510:	1affff71 	bne	0x92dc
    9514:	e8bd407c 	pop	{r2, r3, r4, r5, r6, lr}
    9518:	e28dd010 	add	sp, sp, #16
    951c:	e12fff1e 	bx	lr
    9520:	3ff00000 	svccc	0x00f00000	; IMB
    9524:	40f86a00 	rscsmi	r6, r8, r0, lsl #20
    9528:	e3a03000 	mov	r3, #0
    952c:	e7d12003 	ldrb	r2, [r1, r3]
    9530:	e7c02003 	strb	r2, [r0, r3]
    9534:	e3520000 	cmp	r2, #0
    9538:	e2833001 	add	r3, r3, #1
    953c:	1afffffa 	bne	0x952c
    9540:	e12fff1e 	bx	lr
    9544:	e92d4070 	push	{r4, r5, r6, lr}
    9548:	e3500000 	cmp	r0, #0
    954c:	1a000002 	bne	0x955c
    9550:	e5920000 	ldr	r0, [r2]
    9554:	e3500000 	cmp	r0, #0
    9558:	08bd8070 	popeq	{r4, r5, r6, pc}
    955c:	e1a03000 	mov	r3, r0
    9560:	e3a04000 	mov	r4, #0
    9564:	e4d3c001 	ldrb	ip, [r3], #1
    9568:	ea000003 	b	0x957c
    956c:	e15c0005 	cmp	ip, r5
    9570:	e2844001 	add	r4, r4, #1
    9574:	01a00003 	moveq	r0, r3
    9578:	0afffff7 	beq	0x955c
    957c:	e7d15004 	ldrb	r5, [r1, r4]
    9580:	e3550000 	cmp	r5, #0
    9584:	1afffff8 	bne	0x956c
    9588:	e35c0000 	cmp	ip, #0
    958c:	0582c000 	streq	ip, [r2]
    9590:	01a0000c 	moveq	r0, ip
    9594:	1a000001 	bne	0x95a0
    9598:	e8bd8070 	pop	{r4, r5, r6, pc}
    959c:	e1a0300c 	mov	r3, ip
    95a0:	e1a0c003 	mov	ip, r3
    95a4:	e3a05000 	mov	r5, #0
    95a8:	e4dc4001 	ldrb	r4, [ip], #1
    95ac:	e7d16005 	ldrb	r6, [r1, r5]
    95b0:	e1560004 	cmp	r6, r4
    95b4:	1a000005 	bne	0x95d0
    95b8:	e3540000 	cmp	r4, #0
    95bc:	01a0c004 	moveq	ip, r4
    95c0:	13a01000 	movne	r1, #0
    95c4:	15c31000 	strbne	r1, [r3]
    95c8:	e582c000 	str	ip, [r2]
    95cc:	e8bd8070 	pop	{r4, r5, r6, pc}
    95d0:	e3560000 	cmp	r6, #0
    95d4:	e2855001 	add	r5, r5, #1
    95d8:	1afffff3 	bne	0x95ac
    95dc:	eaffffee 	b	0x959c
    95e0:	e59f2004 	ldr	r2, [pc, #4]	; 0x95ec
    95e4:	e08f2002 	add	r2, pc, r2
    95e8:	eaffffd5 	b	0x9544
    95ec:	000097ac 	andeq	r9, r0, ip, lsr #15
    95f0:	e3a02000 	mov	r2, #0
    95f4:	ea000004 	b	0x960c
    95f8:	e2822001 	add	r2, r2, #1
    95fc:	e3530000 	cmp	r3, #0
    9600:	1a000001 	bne	0x960c
    9604:	e1a00003 	mov	r0, r3
    9608:	e12fff1e 	bx	lr
    960c:	e7d03002 	ldrb	r3, [r0, r2]
    9610:	e7d1c002 	ldrb	ip, [r1, r2]
    9614:	e153000c 	cmp	r3, ip
    9618:	0afffff6 	beq	0x95f8
    961c:	e06c0003 	rsb	r0, ip, r3
    9620:	e12fff1e 	bx	lr
    9624:	e5d03000 	ldrb	r3, [r0]
    9628:	e1530001 	cmp	r3, r1
    962c:	012fff1e 	bxeq	lr
    9630:	e3530000 	cmp	r3, #0
    9634:	12800001 	addne	r0, r0, #1
    9638:	1afffff9 	bne	0x9624
    963c:	e1a00003 	mov	r0, r3
    9640:	e12fff1e 	bx	lr
    9644:	e1a03000 	mov	r3, r0
    9648:	e3a00000 	mov	r0, #0
    964c:	e5d32000 	ldrb	r2, [r3]
    9650:	e1520001 	cmp	r2, r1
    9654:	01a00003 	moveq	r0, r3
    9658:	e3520000 	cmp	r2, #0
    965c:	1a000000 	bne	0x9664
    9660:	e12fff1e 	bx	lr
    9664:	e2833001 	add	r3, r3, #1
    9668:	eafffff7 	b	0x964c
    966c:	e1a03000 	mov	r3, r0
    9670:	ea000000 	b	0x9678
    9674:	e2833001 	add	r3, r3, #1
    9678:	e5d32000 	ldrb	r2, [r3]
    967c:	e3520000 	cmp	r2, #0
    9680:	1afffffb 	bne	0x9674
    9684:	e0600003 	rsb	r0, r0, r3
    9688:	e12fff1e 	bx	lr
    968c:	e6ef1071 	uxtb	r1, r1
    9690:	e0802002 	add	r2, r0, r2
    9694:	e1a03000 	mov	r3, r0
    9698:	e1530002 	cmp	r3, r2
    969c:	212fff1e 	bxcs	lr
    96a0:	e1a0c003 	mov	ip, r3
    96a4:	e4cc1001 	strb	r1, [ip], #1
    96a8:	e152000c 	cmp	r2, ip
    96ac:	912fff1e 	bxls	lr
    96b0:	e283c002 	add	ip, r3, #2
    96b4:	e5c31001 	strb	r1, [r3, #1]
    96b8:	e152000c 	cmp	r2, ip
    96bc:	912fff1e 	bxls	lr
    96c0:	e283c003 	add	ip, r3, #3
    96c4:	e5c31002 	strb	r1, [r3, #2]
    96c8:	e152000c 	cmp	r2, ip
    96cc:	912fff1e 	bxls	lr
    96d0:	e5c31003 	strb	r1, [r3, #3]
    96d4:	e2833004 	add	r3, r3, #4
    96d8:	eaffffee 	b	0x9698
    96dc:	e92d40f0 	push	{r4, r5, r6, r7, lr}
    96e0:	e3520000 	cmp	r2, #0
    96e4:	11500001 	cmpne	r0, r1
    96e8:	e1a04000 	mov	r4, r0
    96ec:	e1a0c001 	mov	ip, r1
    96f0:	08bd80f0 	popeq	{r4, r5, r6, r7, pc}
    96f4:	e1500001 	cmp	r0, r1
    96f8:	2a000029 	bcs	0x97a4
    96fc:	e1813000 	orr	r3, r1, r0
    9700:	e3130003 	tst	r3, #3
    9704:	0a000011 	beq	0x9750
    9708:	e0213000 	eor	r3, r1, r0
    970c:	e2133003 	ands	r3, r3, #3
    9710:	13a03001 	movne	r3, #1
    9714:	e3520003 	cmp	r2, #3
    9718:	93833001 	orrls	r3, r3, #1
    971c:	e3530000 	cmp	r3, #0
    9720:	e3a03000 	mov	r3, #0
    9724:	02014003 	andeq	r4, r1, #3
    9728:	11a04002 	movne	r4, r2
    972c:	02644004 	rsbeq	r4, r4, #4
    9730:	e0642002 	rsb	r2, r4, r2
    9734:	e7d1c003 	ldrb	ip, [r1, r3]
    9738:	e7c0c003 	strb	ip, [r0, r3]
    973c:	e2833001 	add	r3, r3, #1
    9740:	e1540003 	cmp	r4, r3
    9744:	1afffffa 	bne	0x9734
    9748:	e081c004 	add	ip, r1, r4
    974c:	e0804004 	add	r4, r0, r4
    9750:	e1b05122 	lsrs	r5, r2, #2
    9754:	0a000009 	beq	0x9780
    9758:	e1a01005 	mov	r1, r5
    975c:	e3a03000 	mov	r3, #0
    9760:	e79c6003 	ldr	r6, [ip, r3]
    9764:	e2511001 	subs	r1, r1, #1
    9768:	e7846003 	str	r6, [r4, r3]
    976c:	e2833004 	add	r3, r3, #4
    9770:	1afffffa 	bne	0x9760
    9774:	e1a03105 	lsl	r3, r5, #2
    9778:	e0844003 	add	r4, r4, r3
    977c:	e08cc003 	add	ip, ip, r3
    9780:	e2122003 	ands	r2, r2, #3
    9784:	08bd80f0 	popeq	{r4, r5, r6, r7, pc}
    9788:	e3a03000 	mov	r3, #0
    978c:	e7dc1003 	ldrb	r1, [ip, r3]
    9790:	e7c41003 	strb	r1, [r4, r3]
    9794:	e2833001 	add	r3, r3, #1
    9798:	e1520003 	cmp	r2, r3
    979c:	1afffffa 	bne	0x978c
    97a0:	e8bd80f0 	pop	{r4, r5, r6, r7, pc}
    97a4:	e0811002 	add	r1, r1, r2
    97a8:	e0803002 	add	r3, r0, r2
    97ac:	e183c001 	orr	ip, r3, r1
    97b0:	e31c0003 	tst	ip, #3
    97b4:	0a000010 	beq	0x97fc
    97b8:	e023c001 	eor	ip, r3, r1
    97bc:	e21cc003 	ands	ip, ip, #3
    97c0:	13a0c001 	movne	ip, #1
    97c4:	e3520004 	cmp	r2, #4
    97c8:	938cc001 	orrls	ip, ip, #1
    97cc:	e35c0000 	cmp	ip, #0
    97d0:	0201c003 	andeq	ip, r1, #3
    97d4:	11a0c002 	movne	ip, r2
    97d8:	e26c4000 	rsb	r4, ip, #0
    97dc:	e06c2002 	rsb	r2, ip, r2
    97e0:	e0811004 	add	r1, r1, r4
    97e4:	e0833004 	add	r3, r3, r4
    97e8:	e24cc001 	sub	ip, ip, #1
    97ec:	e7d1400c 	ldrb	r4, [r1, ip]
    97f0:	e7c3400c 	strb	r4, [r3, ip]
    97f4:	e25cc001 	subs	ip, ip, #1
    97f8:	2afffffb 	bcs	0x97ec
    97fc:	e1b04122 	lsrs	r4, r2, #2
    9800:	0a00000a 	beq	0x9830
    9804:	e1a06003 	mov	r6, r3
    9808:	e1a05001 	mov	r5, r1
    980c:	e1a0c004 	mov	ip, r4
    9810:	e5357004 	ldr	r7, [r5, #-4]!
    9814:	e25cc001 	subs	ip, ip, #1
    9818:	e5267004 	str	r7, [r6, #-4]!
    981c:	1afffffb 	bne	0x9810
    9820:	e3e0c003 	mvn	ip, #3
    9824:	e00c049c 	mul	ip, ip, r4
    9828:	e083300c 	add	r3, r3, ip
    982c:	e081100c 	add	r1, r1, ip
    9830:	e2122003 	ands	r2, r2, #3
    9834:	08bd80f0 	popeq	{r4, r5, r6, r7, pc}
    9838:	e262c000 	rsb	ip, r2, #0
    983c:	e2422001 	sub	r2, r2, #1
    9840:	e081100c 	add	r1, r1, ip
    9844:	e083300c 	add	r3, r3, ip
    9848:	e7d1c002 	ldrb	ip, [r1, r2]
    984c:	e7c3c002 	strb	ip, [r3, r2]
    9850:	e2522001 	subs	r2, r2, #1
    9854:	2afffffb 	bcs	0x9848
    9858:	e8bd80f0 	pop	{r4, r5, r6, r7, pc}
    985c:	e1a03000 	mov	r3, r0
    9860:	e0802002 	add	r2, r0, r2
    9864:	e92d4030 	push	{r4, r5, lr}
    9868:	e3a00000 	mov	r0, #0
    986c:	e250c000 	subs	ip, r0, #0
    9870:	13a0c001 	movne	ip, #1
    9874:	e1530002 	cmp	r3, r2
    9878:	238cc001 	orrcs	ip, ip, #1
    987c:	e35c0000 	cmp	ip, #0
    9880:	18bd8030 	popne	{r4, r5, pc}
    9884:	e1a0c003 	mov	ip, r3
    9888:	e5d10000 	ldrb	r0, [r1]
    988c:	e4dc4001 	ldrb	r4, [ip], #1
    9890:	e0545000 	subs	r5, r4, r0
    9894:	13a05001 	movne	r5, #1
    9898:	e0600004 	rsb	r0, r0, r4
    989c:	e152000c 	cmp	r2, ip
    98a0:	81a0c005 	movhi	ip, r5
    98a4:	9385c001 	orrls	ip, r5, #1
    98a8:	e35c0000 	cmp	ip, #0
    98ac:	18bd8030 	popne	{r4, r5, pc}
    98b0:	e5d3c001 	ldrb	ip, [r3, #1]
    98b4:	e5d10001 	ldrb	r0, [r1, #1]
    98b8:	e2835002 	add	r5, r3, #2
    98bc:	e05c4000 	subs	r4, ip, r0
    98c0:	13a04001 	movne	r4, #1
    98c4:	e060000c 	rsb	r0, r0, ip
    98c8:	e1520005 	cmp	r2, r5
    98cc:	93844001 	orrls	r4, r4, #1
    98d0:	e3540000 	cmp	r4, #0
    98d4:	18bd8030 	popne	{r4, r5, pc}
    98d8:	e5d3c002 	ldrb	ip, [r3, #2]
    98dc:	e5d10002 	ldrb	r0, [r1, #2]
    98e0:	e2835003 	add	r5, r3, #3
    98e4:	e05c4000 	subs	r4, ip, r0
    98e8:	13a04001 	movne	r4, #1
    98ec:	e060000c 	rsb	r0, r0, ip
    98f0:	e1520005 	cmp	r2, r5
    98f4:	93844001 	orrls	r4, r4, #1
    98f8:	e3540000 	cmp	r4, #0
    98fc:	18bd8030 	popne	{r4, r5, pc}
    9900:	e5d3c003 	ldrb	ip, [r3, #3]
    9904:	e5d10003 	ldrb	r0, [r1, #3]
    9908:	e2833004 	add	r3, r3, #4
    990c:	e060000c 	rsb	r0, r0, ip
    9910:	e2811004 	add	r1, r1, #4
    9914:	eaffffd4 	b	0x986c
    9918:	e92d45f0 	push	{r4, r5, r6, r7, r8, sl, lr}
    991c:	e1500001 	cmp	r0, r1
    9920:	3a000002 	bcc	0x9930
    9924:	e0613000 	rsb	r3, r1, r0
    9928:	e1530002 	cmp	r3, r2
    992c:	3a000001 	bcc	0x9938
    9930:	e8bd45f0 	pop	{r4, r5, r6, r7, r8, sl, lr}
    9934:	eaffff68 	b	0x96dc
    9938:	e0811002 	add	r1, r1, r2
    993c:	e0803002 	add	r3, r0, r2
    9940:	f551f001 	pld	[r1, #-1]
    9944:	f551f021 	pld	[r1, #-33]	; 0x21
    9948:	f553f001 	pld	[r3, #-1]
    994c:	f553f021 	pld	[r3, #-33]	; 0x21
    9950:	e1a072a2 	lsr	r7, r2, #5
    9954:	e1a05003 	mov	r5, r3
    9958:	e202201f 	and	r2, r2, #31
    995c:	e1a0c007 	mov	ip, r7
    9960:	e1a04001 	mov	r4, r1
    9964:	ea00000b 	b	0x9998
    9968:	f554f041 	pld	[r4, #-65]	; 0x41
    996c:	f555f041 	pld	[r5, #-65]	; 0x41
    9970:	e3a06001 	mov	r6, #1
    9974:	e2668000 	rsb	r8, r6, #0
    9978:	e2866001 	add	r6, r6, #1
    997c:	e7d4a008 	ldrb	sl, [r4, r8]
    9980:	e3560021 	cmp	r6, #33	; 0x21
    9984:	e7c5a008 	strb	sl, [r5, r8]
    9988:	1afffff9 	bne	0x9974
    998c:	e2455020 	sub	r5, r5, #32
    9990:	e2444020 	sub	r4, r4, #32
    9994:	e24cc001 	sub	ip, ip, #1
    9998:	e35c0000 	cmp	ip, #0
    999c:	1afffff1 	bne	0x9968
    99a0:	e3e0401f 	mvn	r4, #31
    99a4:	e0040794 	mul	r4, r4, r7
    99a8:	e0833004 	add	r3, r3, r4
    99ac:	e0811004 	add	r1, r1, r4
    99b0:	ea000002 	b	0x99c0
    99b4:	e7d1400c 	ldrb	r4, [r1, ip]
    99b8:	e2422001 	sub	r2, r2, #1
    99bc:	e7c3400c 	strb	r4, [r3, ip]
    99c0:	e24cc001 	sub	ip, ip, #1
    99c4:	e3520000 	cmp	r2, #0
    99c8:	1afffff9 	bne	0x99b4
    99cc:	e8bd85f0 	pop	{r4, r5, r6, r7, r8, sl, pc}
    99d0:	e59f3060 	ldr	r3, [pc, #96]	; 0x9a38
    99d4:	e24dd008 	sub	sp, sp, #8
    99d8:	e3a02003 	mov	r2, #3
    99dc:	e3a0101c 	mov	r1, #28
    99e0:	e1c320bc 	strh	r2, [r3, #12]
    99e4:	e1cd10b6 	strh	r1, [sp, #6]
    99e8:	e1cd10b6 	strh	r1, [sp, #6]
    99ec:	e1dd10b6 	ldrh	r1, [sp, #6]
    99f0:	e5832024 	str	r2, [r3, #36]	; 0x24
    99f4:	e2411001 	sub	r1, r1, #1
    99f8:	e593200c 	ldr	r2, [r3, #12]
    99fc:	e6ff1071 	uxth	r1, r1
    9a00:	e6ff2072 	uxth	r2, r2
    9a04:	e2410001 	sub	r0, r1, #1
    9a08:	e382c080 	orr	ip, r2, #128	; 0x80
    9a0c:	e7ef00d0 	ubfx	r0, r0, #1, #16
    9a10:	e583c00c 	str	ip, [r3, #12]
    9a14:	e3a0c001 	mov	ip, #1
    9a18:	e583c000 	str	ip, [r3]
    9a1c:	e3a0c000 	mov	ip, #0
    9a20:	e583c004 	str	ip, [r3, #4]
    9a24:	e5831028 	str	r1, [r3, #40]	; 0x28
    9a28:	e583002c 	str	r0, [r3, #44]	; 0x2c
    9a2c:	e583200c 	str	r2, [r3, #12]
    9a30:	e28dd008 	add	sp, sp, #8
    9a34:	e12fff1e 	bx	lr
    9a38:	11005000 	mrsne	r5, (UNDEF: 0)
    9a3c:	e12fff1e 	bx	lr
    9a40:	e59f3014 	ldr	r3, [pc, #20]	; 0x9a5c
    9a44:	e5932014 	ldr	r2, [r3, #20]
    9a48:	e3120020 	tst	r2, #32
    9a4c:	0afffffc 	beq	0x9a44
    9a50:	e59f3004 	ldr	r3, [pc, #4]	; 0x9a5c
    9a54:	e5830000 	str	r0, [r3]
    9a58:	e12fff1e 	bx	lr
    9a5c:	11005000 	mrsne	r5, (UNDEF: 0)
    9a60:	e59f3010 	ldr	r3, [pc, #16]	; 0x9a78
    9a64:	e5932014 	ldr	r2, [r3, #20]
    9a68:	e3120001 	tst	r2, #1
    9a6c:	03e00000 	mvneq	r0, #0
    9a70:	15930000 	ldrne	r0, [r3]
    9a74:	e12fff1e 	bx	lr
    9a78:	11005000 	mrsne	r5, (UNDEF: 0)
    9a7c:	e59f3014 	ldr	r3, [pc, #20]	; 0x9a98
    9a80:	e5932014 	ldr	r2, [r3, #20]
    9a84:	e3120001 	tst	r2, #1
    9a88:	0afffffc 	beq	0x9a80
    9a8c:	e59f3004 	ldr	r3, [pc, #4]	; 0x9a98
    9a90:	e5930000 	ldr	r0, [r3]
    9a94:	e12fff1e 	bx	lr
    9a98:	11005000 	mrsne	r5, (UNDEF: 0)
    9a9c:	e12fff1e 	bx	lr
    9aa0:	e59f3034 	ldr	r3, [pc, #52]	; 0x9adc
    9aa4:	e24dd008 	sub	sp, sp, #8
    9aa8:	e1d321b4 	ldrh	r2, [r3, #20]
    9aac:	e1cd20b6 	strh	r2, [sp, #6]
    9ab0:	e1dd20b6 	ldrh	r2, [sp, #6]
    9ab4:	e2122001 	ands	r2, r2, #1
    9ab8:	11d330b0 	ldrhne	r3, [r3]
    9abc:	03e03000 	mvneq	r3, #0
    9ac0:	15c03000 	strbne	r3, [r0]
    9ac4:	05c03000 	strbeq	r3, [r0]
    9ac8:	13a03001 	movne	r3, #1
    9acc:	01c120b0 	strheq	r2, [r1]
    9ad0:	11c130b0 	strhne	r3, [r1]
    9ad4:	e28dd008 	add	sp, sp, #8
    9ad8:	e12fff1e 	bx	lr
    9adc:	11005000 	mrsne	r5, (UNDEF: 0)
    9ae0:	e1a0c001 	mov	ip, r1
    9ae4:	e1a03002 	mov	r3, r2
    9ae8:	e1a01000 	mov	r1, r0
    9aec:	e92d4010 	push	{r4, lr}
    9af0:	e59f000c 	ldr	r0, [pc, #12]	; 0x9b04
    9af4:	e1a0200c 	mov	r2, ip
    9af8:	e08f0000 	add	r0, pc, r0
    9afc:	ebfffdf0 	bl	0x92c4
    9b00:	eafffffe 	b	0x9b00
    9b04:	00007133 	andeq	r7, r0, r3, lsr r1
    9b08:	e1a0c001 	mov	ip, r1
    9b0c:	e1a03002 	mov	r3, r2
    9b10:	e1a01000 	mov	r1, r0
    9b14:	e92d4010 	push	{r4, lr}
    9b18:	e59f000c 	ldr	r0, [pc, #12]	; 0x9b2c
    9b1c:	e1a0200c 	mov	r2, ip
    9b20:	e08f0000 	add	r0, pc, r0
    9b24:	ebfffde6 	bl	0x92c4
    9b28:	eafffffe 	b	0x9b28
    9b2c:	00007146 	andeq	r7, r0, r6, asr #2
    9b30:	e3a0300a 	mov	r3, #10
    9b34:	e3a02000 	mov	r2, #0
    9b38:	e0030093 	mul	r3, r3, r0
    9b3c:	e1a02003 	mov	r2, r3
    9b40:	e2522001 	subs	r2, r2, #1
    9b44:	1afffffd 	bne	0x9b40
    9b48:	e12fff1e 	bx	lr
    9b4c:	e3a03ffa 	mov	r3, #1000	; 0x3e8
    9b50:	e3a02000 	mov	r2, #0
    9b54:	e0030093 	mul	r3, r3, r0
    9b58:	e1a02003 	mov	r2, r3
    9b5c:	e2522001 	subs	r2, r2, #1
    9b60:	1afffffd 	bne	0x9b5c
    9b64:	e12fff1e 	bx	lr
    9b68:	e59f2454 	ldr	r2, [pc, #1108]	; 0x9fc4
    9b6c:	e3510003 	cmp	r1, #3
    9b70:	e59f3450 	ldr	r3, [pc, #1104]	; 0x9fc8
    9b74:	e92d4070 	push	{r4, r5, r6, lr}
    9b78:	e1a06001 	mov	r6, r1
    9b7c:	e592107c 	ldr	r1, [r2, #124]	; 0x7c
    9b80:	e3811001 	orr	r1, r1, #1
    9b84:	e582107c 	str	r1, [r2, #124]	; 0x7c
    9b88:	e593207c 	ldr	r2, [r3, #124]	; 0x7c
    9b8c:	e3822001 	orr	r2, r2, #1
    9b90:	e583207c 	str	r2, [r3, #124]	; 0x7c
    9b94:	059f2430 	ldreq	r2, [pc, #1072]	; 0x9fcc
    9b98:	0a000002 	beq	0x9ba8
    9b9c:	e3560002 	cmp	r6, #2
    9ba0:	059f2428 	ldreq	r2, [pc, #1064]	; 0x9fd0
    9ba4:	13a02007 	movne	r2, #7
    9ba8:	e5832640 	str	r2, [r3, #1600]	; 0x640
    9bac:	e2465002 	sub	r5, r6, #2
    9bb0:	e59f3410 	ldr	r3, [pc, #1040]	; 0x9fc8
    9bb4:	e3550001 	cmp	r5, #1
    9bb8:	e3a02000 	mov	r2, #0
    9bbc:	e58325c0 	str	r2, [r3, #1472]	; 0x5c0
    9bc0:	e58325c4 	str	r2, [r3, #1476]	; 0x5c4
    9bc4:	e59f2408 	ldr	r2, [pc, #1032]	; 0x9fd4
    9bc8:	e58325c8 	str	r2, [r3, #1480]	; 0x5c8
    9bcc:	e2422cee 	sub	r2, r2, #60928	; 0xee00
    9bd0:	e58325cc 	str	r2, [r3, #1484]	; 0x5cc
    9bd4:	e5932600 	ldr	r2, [r3, #1536]	; 0x600
    9bd8:	e3c22903 	bic	r2, r2, #49152	; 0xc000
    9bdc:	e5832600 	str	r2, [r3, #1536]	; 0x600
    9be0:	e5932600 	ldr	r2, [r3, #1536]	; 0x600
    9be4:	e3822a01 	orr	r2, r2, #4096	; 0x1000
    9be8:	e5832600 	str	r2, [r3, #1536]	; 0x600
    9bec:	e5932604 	ldr	r2, [r3, #1540]	; 0x604
    9bf0:	e3c224fe 	bic	r2, r2, #-33554432	; 0xfe000000
    9bf4:	e3822329 	orr	r2, r2, #-1543503872	; 0xa4000000
    9bf8:	e5832604 	str	r2, [r3, #1540]	; 0x604
    9bfc:	e5932604 	ldr	r2, [r3, #1540]	; 0x604
    9c00:	e3822701 	orr	r2, r2, #262144	; 0x40000
    9c04:	e5832604 	str	r2, [r3, #1540]	; 0x604
    9c08:	e5932608 	ldr	r2, [r3, #1544]	; 0x608
    9c0c:	e3c22b03 	bic	r2, r2, #3072	; 0xc00
    9c10:	e5832608 	str	r2, [r3, #1544]	; 0x608
    9c14:	e593260c 	ldr	r2, [r3, #1548]	; 0x60c
    9c18:	e3822303 	orr	r2, r2, #201326592	; 0xc000000
    9c1c:	e583260c 	str	r2, [r3, #1548]	; 0x60c
    9c20:	9593260c 	ldrls	r2, [r3, #1548]	; 0x60c
    9c24:	93822c02 	orrls	r2, r2, #512	; 0x200
    9c28:	9583260c 	strls	r2, [r3, #1548]	; 0x60c
    9c2c:	e59f3394 	ldr	r3, [pc, #916]	; 0x9fc8
    9c30:	e3550001 	cmp	r5, #1
    9c34:	e5932610 	ldr	r2, [r3, #1552]	; 0x610
    9c38:	e3c22b03 	bic	r2, r2, #3072	; 0xc00
    9c3c:	e5832610 	str	r2, [r3, #1552]	; 0x610
    9c40:	e5932614 	ldr	r2, [r3, #1556]	; 0x614
    9c44:	e3822303 	orr	r2, r2, #201326592	; 0xc000000
    9c48:	e5832614 	str	r2, [r3, #1556]	; 0x614
    9c4c:	95932614 	ldrls	r2, [r3, #1556]	; 0x614
    9c50:	93822c02 	orrls	r2, r2, #512	; 0x200
    9c54:	95832614 	strls	r2, [r3, #1556]	; 0x614
    9c58:	e59f3368 	ldr	r3, [pc, #872]	; 0x9fc8
    9c5c:	e3550001 	cmp	r5, #1
    9c60:	e5932618 	ldr	r2, [r3, #1560]	; 0x618
    9c64:	e3c22b03 	bic	r2, r2, #3072	; 0xc00
    9c68:	e5832618 	str	r2, [r3, #1560]	; 0x618
    9c6c:	e593261c 	ldr	r2, [r3, #1564]	; 0x61c
    9c70:	e3822303 	orr	r2, r2, #201326592	; 0xc000000
    9c74:	e583261c 	str	r2, [r3, #1564]	; 0x61c
    9c78:	9593261c 	ldrls	r2, [r3, #1564]	; 0x61c
    9c7c:	93822c02 	orrls	r2, r2, #512	; 0x200
    9c80:	9583261c 	strls	r2, [r3, #1564]	; 0x61c
    9c84:	e3003535 	movw	r3, #1333	; 0x535
    9c88:	e1500003 	cmp	r0, r3
    9c8c:	1a000003 	bne	0x9ca0
    9c90:	e3550001 	cmp	r5, #1
    9c94:	e59f332c 	ldr	r3, [pc, #812]	; 0x9fc8
    9c98:	e59f2338 	ldr	r2, [pc, #824]	; 0x9fd8
    9c9c:	ea00000b 	b	0x9cd0
    9ca0:	e30033aa 	movw	r3, #938	; 0x3aa
    9ca4:	e1500003 	cmp	r0, r3
    9ca8:	1a000003 	bne	0x9cbc
    9cac:	e3550001 	cmp	r5, #1
    9cb0:	e59f3310 	ldr	r3, [pc, #784]	; 0x9fc8
    9cb4:	e59f2320 	ldr	r2, [pc, #800]	; 0x9fdc
    9cb8:	ea000004 	b	0x9cd0
    9cbc:	e3500fe1 	cmp	r0, #900	; 0x384
    9cc0:	1a000028 	bne	0x9d68
    9cc4:	e3550001 	cmp	r5, #1
    9cc8:	e59f32f8 	ldr	r3, [pc, #760]	; 0x9fc8
    9ccc:	e59f230c 	ldr	r2, [pc, #780]	; 0x9fe0
    9cd0:	e593160c 	ldr	r1, [r3, #1548]	; 0x60c
    9cd4:	e3c11202 	bic	r1, r1, #536870912	; 0x20000000
    9cd8:	e583160c 	str	r1, [r3, #1548]	; 0x60c
    9cdc:	e5931614 	ldr	r1, [r3, #1556]	; 0x614
    9ce0:	e3c11202 	bic	r1, r1, #536870912	; 0x20000000
    9ce4:	e5831614 	str	r1, [r3, #1556]	; 0x614
    9ce8:	e593161c 	ldr	r1, [r3, #1564]	; 0x61c
    9cec:	e3c11202 	bic	r1, r1, #536870912	; 0x20000000
    9cf0:	e583161c 	str	r1, [r3, #1564]	; 0x61c
    9cf4:	e5931624 	ldr	r1, [r3, #1572]	; 0x624
    9cf8:	e2011001 	and	r1, r1, #1
    9cfc:	e1812002 	orr	r2, r1, r2
    9d00:	e5832624 	str	r2, [r3, #1572]	; 0x624
    9d04:	8a00000b 	bhi	0x9d38
    9d08:	e5932608 	ldr	r2, [r3, #1544]	; 0x608
    9d0c:	e3c22f7f 	bic	r2, r2, #508	; 0x1fc
    9d10:	e3822034 	orr	r2, r2, #52	; 0x34
    9d14:	e5832608 	str	r2, [r3, #1544]	; 0x608
    9d18:	e5932610 	ldr	r2, [r3, #1552]	; 0x610
    9d1c:	e3c22f7f 	bic	r2, r2, #508	; 0x1fc
    9d20:	e3822034 	orr	r2, r2, #52	; 0x34
    9d24:	e5832610 	str	r2, [r3, #1552]	; 0x610
    9d28:	e5932618 	ldr	r2, [r3, #1560]	; 0x618
    9d2c:	e3c22f7f 	bic	r2, r2, #508	; 0x1fc
    9d30:	e3822034 	orr	r2, r2, #52	; 0x34
    9d34:	ea00004c 	b	0x9e6c
    9d38:	e5932608 	ldr	r2, [r3, #1544]	; 0x608
    9d3c:	e3c22f7f 	bic	r2, r2, #508	; 0x1fc
    9d40:	e38220d0 	orr	r2, r2, #208	; 0xd0
    9d44:	e5832608 	str	r2, [r3, #1544]	; 0x608
    9d48:	e5932610 	ldr	r2, [r3, #1552]	; 0x610
    9d4c:	e3c22f7f 	bic	r2, r2, #508	; 0x1fc
    9d50:	e38220d0 	orr	r2, r2, #208	; 0xd0
    9d54:	e5832610 	str	r2, [r3, #1552]	; 0x610
    9d58:	e5932618 	ldr	r2, [r3, #1560]	; 0x618
    9d5c:	e3c22f7f 	bic	r2, r2, #508	; 0x1fc
    9d60:	e38220d0 	orr	r2, r2, #208	; 0xd0
    9d64:	ea000054 	b	0x9ebc
    9d68:	e30035ba 	movw	r3, #1466	; 0x5ba
    9d6c:	e1500003 	cmp	r0, r3
    9d70:	1a000028 	bne	0x9e18
    9d74:	e59f324c 	ldr	r3, [pc, #588]	; 0x9fc8
    9d78:	e59f2264 	ldr	r2, [pc, #612]	; 0x9fe4
    9d7c:	e593160c 	ldr	r1, [r3, #1548]	; 0x60c
    9d80:	e3550001 	cmp	r5, #1
    9d84:	e3c11202 	bic	r1, r1, #536870912	; 0x20000000
    9d88:	e583160c 	str	r1, [r3, #1548]	; 0x60c
    9d8c:	e5931614 	ldr	r1, [r3, #1556]	; 0x614
    9d90:	e3c11202 	bic	r1, r1, #536870912	; 0x20000000
    9d94:	e5831614 	str	r1, [r3, #1556]	; 0x614
    9d98:	e593161c 	ldr	r1, [r3, #1564]	; 0x61c
    9d9c:	e3c11202 	bic	r1, r1, #536870912	; 0x20000000
    9da0:	e583161c 	str	r1, [r3, #1564]	; 0x61c
    9da4:	e5931624 	ldr	r1, [r3, #1572]	; 0x624
    9da8:	e2011001 	and	r1, r1, #1
    9dac:	e1812002 	orr	r2, r1, r2
    9db0:	e5832624 	str	r2, [r3, #1572]	; 0x624
    9db4:	8a00000b 	bhi	0x9de8
    9db8:	e5932608 	ldr	r2, [r3, #1544]	; 0x608
    9dbc:	e3c22f7f 	bic	r2, r2, #508	; 0x1fc
    9dc0:	e3822038 	orr	r2, r2, #56	; 0x38
    9dc4:	e5832608 	str	r2, [r3, #1544]	; 0x608
    9dc8:	e5932610 	ldr	r2, [r3, #1552]	; 0x610
    9dcc:	e3c22f7f 	bic	r2, r2, #508	; 0x1fc
    9dd0:	e3822038 	orr	r2, r2, #56	; 0x38
    9dd4:	e5832610 	str	r2, [r3, #1552]	; 0x610
    9dd8:	e5932618 	ldr	r2, [r3, #1560]	; 0x618
    9ddc:	e3c22f7f 	bic	r2, r2, #508	; 0x1fc
    9de0:	e3822038 	orr	r2, r2, #56	; 0x38
    9de4:	ea000020 	b	0x9e6c
    9de8:	e5932608 	ldr	r2, [r3, #1544]	; 0x608
    9dec:	e3c22f7f 	bic	r2, r2, #508	; 0x1fc
    9df0:	e38220e0 	orr	r2, r2, #224	; 0xe0
    9df4:	e5832608 	str	r2, [r3, #1544]	; 0x608
    9df8:	e5932610 	ldr	r2, [r3, #1552]	; 0x610
    9dfc:	e3c22f7f 	bic	r2, r2, #508	; 0x1fc
    9e00:	e38220e0 	orr	r2, r2, #224	; 0xe0
    9e04:	e5832610 	str	r2, [r3, #1552]	; 0x610
    9e08:	e5932618 	ldr	r2, [r3, #1560]	; 0x618
    9e0c:	e3c22f7f 	bic	r2, r2, #508	; 0x1fc
    9e10:	e38220e0 	orr	r2, r2, #224	; 0xe0
    9e14:	ea000028 	b	0x9ebc
    9e18:	e3500e32 	cmp	r0, #800	; 0x320
    9e1c:	1a000017 	bne	0x9e80
    9e20:	e3550001 	cmp	r5, #1
    9e24:	e59f319c 	ldr	r3, [pc, #412]	; 0x9fc8
    9e28:	e59f21b8 	ldr	r2, [pc, #440]	; 0x9fe8
    9e2c:	e5931624 	ldr	r1, [r3, #1572]	; 0x624
    9e30:	e2011001 	and	r1, r1, #1
    9e34:	e1812002 	orr	r2, r1, r2
    9e38:	e5832624 	str	r2, [r3, #1572]	; 0x624
    9e3c:	8a000013 	bhi	0x9e90
    9e40:	e5932608 	ldr	r2, [r3, #1544]	; 0x608
    9e44:	e3c22f7f 	bic	r2, r2, #508	; 0x1fc
    9e48:	e382202c 	orr	r2, r2, #44	; 0x2c
    9e4c:	e5832608 	str	r2, [r3, #1544]	; 0x608
    9e50:	e5932610 	ldr	r2, [r3, #1552]	; 0x610
    9e54:	e3c22f7f 	bic	r2, r2, #508	; 0x1fc
    9e58:	e382202c 	orr	r2, r2, #44	; 0x2c
    9e5c:	e5832610 	str	r2, [r3, #1552]	; 0x610
    9e60:	e5932618 	ldr	r2, [r3, #1560]	; 0x618
    9e64:	e3c22f7f 	bic	r2, r2, #508	; 0x1fc
    9e68:	e382202c 	orr	r2, r2, #44	; 0x2c
    9e6c:	e5832618 	str	r2, [r3, #1560]	; 0x618
    9e70:	e3560002 	cmp	r6, #2
    9e74:	059f2154 	ldreq	r2, [pc, #340]	; 0x9fd0
    9e78:	0a000015 	beq	0x9ed4
    9e7c:	ea000010 	b	0x9ec4
    9e80:	e3550001 	cmp	r5, #1
    9e84:	e59f313c 	ldr	r3, [pc, #316]	; 0x9fc8
    9e88:	e59f215c 	ldr	r2, [pc, #348]	; 0x9fec
    9e8c:	eaffffe6 	b	0x9e2c
    9e90:	e5932608 	ldr	r2, [r3, #1544]	; 0x608
    9e94:	e3c22f7f 	bic	r2, r2, #508	; 0x1fc
    9e98:	e38220b0 	orr	r2, r2, #176	; 0xb0
    9e9c:	e5832608 	str	r2, [r3, #1544]	; 0x608
    9ea0:	e5932610 	ldr	r2, [r3, #1552]	; 0x610
    9ea4:	e3c22f7f 	bic	r2, r2, #508	; 0x1fc
    9ea8:	e38220b0 	orr	r2, r2, #176	; 0xb0
    9eac:	e5832610 	str	r2, [r3, #1552]	; 0x610
    9eb0:	e5932618 	ldr	r2, [r3, #1560]	; 0x618
    9eb4:	e3c22f7f 	bic	r2, r2, #508	; 0x1fc
    9eb8:	e38220b0 	orr	r2, r2, #176	; 0xb0
    9ebc:	e5832618 	str	r2, [r3, #1560]	; 0x618
    9ec0:	ea000002 	b	0x9ed0
    9ec4:	e3560003 	cmp	r6, #3
    9ec8:	059f20fc 	ldreq	r2, [pc, #252]	; 0x9fcc
    9ecc:	0a000000 	beq	0x9ed4
    9ed0:	e3a02007 	mov	r2, #7
    9ed4:	e59f30ec 	ldr	r3, [pc, #236]	; 0x9fc8
    9ed8:	e3a00002 	mov	r0, #2
    9edc:	e5832640 	str	r2, [r3, #1600]	; 0x640
    9ee0:	e59f40e0 	ldr	r4, [pc, #224]	; 0x9fc8
    9ee4:	ebffff11 	bl	0x9b30
    9ee8:	e5943604 	ldr	r3, [r4, #1540]	; 0x604
    9eec:	e3a00002 	mov	r0, #2
    9ef0:	e3833901 	orr	r3, r3, #16384	; 0x4000
    9ef4:	e5843604 	str	r3, [r4, #1540]	; 0x604
    9ef8:	ebffff0c 	bl	0x9b30
    9efc:	e5943604 	ldr	r3, [r4, #1540]	; 0x604
    9f00:	e3a00ffa 	mov	r0, #1000	; 0x3e8
    9f04:	e3833902 	orr	r3, r3, #32768	; 0x8000
    9f08:	e5843604 	str	r3, [r4, #1540]	; 0x604
    9f0c:	ebffff07 	bl	0x9b30
    9f10:	e5943600 	ldr	r3, [r4, #1536]	; 0x600
    9f14:	e3a00014 	mov	r0, #20
    9f18:	e3833004 	orr	r3, r3, #4
    9f1c:	e5843600 	str	r3, [r4, #1536]	; 0x600
    9f20:	ebffff02 	bl	0x9b30
    9f24:	e5943604 	ldr	r3, [r4, #1540]	; 0x604
    9f28:	e3a00001 	mov	r0, #1
    9f2c:	e3833401 	orr	r3, r3, #16777216	; 0x1000000
    9f30:	e5843604 	str	r3, [r4, #1540]	; 0x604
    9f34:	ebfffefd 	bl	0x9b30
    9f38:	e3550001 	cmp	r5, #1
    9f3c:	e594360c 	ldr	r3, [r4, #1548]	; 0x60c
    9f40:	e3a00017 	mov	r0, #23
    9f44:	e3833701 	orr	r3, r3, #262144	; 0x40000
    9f48:	e584360c 	str	r3, [r4, #1548]	; 0x60c
    9f4c:	e5943614 	ldr	r3, [r4, #1556]	; 0x614
    9f50:	93833701 	orrls	r3, r3, #262144	; 0x40000
    9f54:	83c33701 	bichi	r3, r3, #262144	; 0x40000
    9f58:	95843614 	strls	r3, [r4, #1556]	; 0x614
    9f5c:	85843614 	strhi	r3, [r4, #1556]	; 0x614
    9f60:	9594361c 	ldrls	r3, [r4, #1564]	; 0x61c
    9f64:	8594361c 	ldrhi	r3, [r4, #1564]	; 0x61c
    9f68:	93833701 	orrls	r3, r3, #262144	; 0x40000
    9f6c:	83c33701 	bichi	r3, r3, #262144	; 0x40000
    9f70:	e584361c 	str	r3, [r4, #1564]	; 0x61c
    9f74:	ebfffeed 	bl	0x9b30
    9f78:	e3560002 	cmp	r6, #2
    9f7c:	059f206c 	ldreq	r2, [pc, #108]	; 0x9ff0
    9f80:	0a000002 	beq	0x9f90
    9f84:	e3560003 	cmp	r6, #3
    9f88:	059f2064 	ldreq	r2, [pc, #100]	; 0x9ff4
    9f8c:	13a02037 	movne	r2, #55	; 0x37
    9f90:	e59f3030 	ldr	r3, [pc, #48]	; 0x9fc8
    9f94:	e3550001 	cmp	r5, #1
    9f98:	e5832640 	str	r2, [r3, #1600]	; 0x640
    9f9c:	e59f2054 	ldr	r2, [pc, #84]	; 0x9ff8
    9fa0:	e59f3020 	ldr	r3, [pc, #32]	; 0x9fc8
    9fa4:	e58325cc 	str	r2, [r3, #1484]	; 0x5cc
    9fa8:	930f2010 	movwls	r2, #61456	; 0xf010
    9fac:	830f2c10 	movwhi	r2, #64528	; 0xfc10
    9fb0:	e58325c8 	str	r2, [r3, #1480]	; 0x5c8
    9fb4:	e59f2040 	ldr	r2, [pc, #64]	; 0x9ffc
    9fb8:	e59f3008 	ldr	r3, [pc, #8]	; 0x9fc8
    9fbc:	e58325c0 	str	r2, [r3, #1472]	; 0x5c0
    9fc0:	e8bd8070 	pop	{r4, r5, r6, pc}
    9fc4:	10207000 	eorne	r7, r0, r0
    9fc8:	10208000 	eorne	r8, r0, r0
    9fcc:	00010020 	andeq	r0, r1, r0, lsr #32
    9fd0:	00010022 	andeq	r0, r1, r2, lsr #32
    9fd4:	1111ff11 	tstne	r1, r1, lsl pc
    9fd8:	9b442a6a 	blls	0x1114988
    9fdc:	71c7f3e0 	bicvc	pc, r7, r0, ror #7
    9fe0:	6d2bedd2 	stcvs	13, cr14, [fp, #-840]!	; 0xfffffcb8
    9fe4:	a5205a04 	strge	r5, [r0, #-2564]!	; 0xa04
    9fe8:	72af70c8 	adcvc	r7, pc, #200	; 0xc8
    9fec:	98d16872 	ldmls	r1, {r1, r4, r5, r6, fp, sp, lr}^
    9ff0:	00010032 	andeq	r0, r1, r2, lsr r0
    9ff4:	00010030 	andeq	r0, r1, r0, lsr r0
    9ff8:	40101000 	andsmi	r1, r0, r0
    9ffc:	063c0000 	ldrteq	r0, [ip], -r0
    a000:	e3a00000 	mov	r0, #0
    a004:	e12fff1e 	bx	lr
    a008:	e3a00000 	mov	r0, #0
    a00c:	e12fff1e 	bx	lr
    a010:	e3060590 	movw	r0, #26000	; 0x6590
    a014:	e12fff1e 	bx	lr
    a018:	e300042a 	movw	r0, #1066	; 0x42a
    a01c:	e3a01001 	mov	r1, #1
    a020:	eafffed0 	b	0x9b68
    a024:	e92d4010 	push	{r4, lr}
    a028:	e3a00064 	mov	r0, #100	; 0x64
    a02c:	e59f4138 	ldr	r4, [pc, #312]	; 0xa16c
    a030:	e5943000 	ldr	r3, [r4]
    a034:	e3833001 	orr	r3, r3, #1
    a038:	e5843000 	str	r3, [r4]
    a03c:	ebfffebb 	bl	0x9b30
    a040:	e5943000 	ldr	r3, [r4]
    a044:	e3a0001e 	mov	r0, #30
    a048:	e3833002 	orr	r3, r3, #2
    a04c:	e5843000 	str	r3, [r4]
    a050:	e5943110 	ldr	r3, [r4, #272]	; 0x110
    a054:	e3833001 	orr	r3, r3, #1
    a058:	e5843110 	str	r3, [r4, #272]	; 0x110
    a05c:	e5943130 	ldr	r3, [r4, #304]	; 0x130
    a060:	e3833001 	orr	r3, r3, #1
    a064:	e5843130 	str	r3, [r4, #304]	; 0x130
    a068:	e5943150 	ldr	r3, [r4, #336]	; 0x150
    a06c:	e3833001 	orr	r3, r3, #1
    a070:	e5843150 	str	r3, [r4, #336]	; 0x150
    a074:	ebfffead 	bl	0x9b30
    a078:	e5943110 	ldr	r3, [r4, #272]	; 0x110
    a07c:	e3a00014 	mov	r0, #20
    a080:	e3c33002 	bic	r3, r3, #2
    a084:	e5843110 	str	r3, [r4, #272]	; 0x110
    a088:	e5943130 	ldr	r3, [r4, #304]	; 0x130
    a08c:	e3c33002 	bic	r3, r3, #2
    a090:	e5843130 	str	r3, [r4, #304]	; 0x130
    a094:	e5943150 	ldr	r3, [r4, #336]	; 0x150
    a098:	e3c33002 	bic	r3, r3, #2
    a09c:	e5843150 	str	r3, [r4, #336]	; 0x150
    a0a0:	e59f30c8 	ldr	r3, [pc, #200]	; 0xa170
    a0a4:	e5843104 	str	r3, [r4, #260]	; 0x104
    a0a8:	e2833a4d 	add	r3, r3, #315392	; 0x4d000
    a0ac:	e5843124 	str	r3, [r4, #292]	; 0x124
    a0b0:	e3a031c2 	mov	r3, #-2147483600	; 0x80000030
    a0b4:	e5843144 	str	r3, [r4, #324]	; 0x144
    a0b8:	e5943100 	ldr	r3, [r4, #256]	; 0x100
    a0bc:	e3833001 	orr	r3, r3, #1
    a0c0:	e5843100 	str	r3, [r4, #256]	; 0x100
    a0c4:	e5943120 	ldr	r3, [r4, #288]	; 0x120
    a0c8:	e3833001 	orr	r3, r3, #1
    a0cc:	e5843120 	str	r3, [r4, #288]	; 0x120
    a0d0:	e5943140 	ldr	r3, [r4, #320]	; 0x140
    a0d4:	e3833001 	orr	r3, r3, #1
    a0d8:	e5843140 	str	r3, [r4, #320]	; 0x140
    a0dc:	ebfffe93 	bl	0x9b30
    a0e0:	e5943120 	ldr	r3, [r4, #288]	; 0x120
    a0e4:	e3a00014 	mov	r0, #20
    a0e8:	e3833302 	orr	r3, r3, #134217728	; 0x8000000
    a0ec:	e5843120 	str	r3, [r4, #288]	; 0x120
    a0f0:	ebfffe8e 	bl	0x9b30
    a0f4:	e5943140 	ldr	r3, [r4, #320]	; 0x140
    a0f8:	e3a00014 	mov	r0, #20
    a0fc:	e3833302 	orr	r3, r3, #134217728	; 0x8000000
    a100:	e5843140 	str	r3, [r4, #320]	; 0x140
    a104:	ebfffe89 	bl	0x9b30
    a108:	e3a03201 	mov	r3, #268435456	; 0x10000000
    a10c:	e59f0060 	ldr	r0, [pc, #96]	; 0xa174
    a110:	e59f1060 	ldr	r1, [pc, #96]	; 0xa178
    a114:	e3a02000 	mov	r2, #0
    a118:	e3a0c102 	mov	ip, #-2147483648	; 0x80000000
    a11c:	e583c02c 	str	ip, [r3, #44]	; 0x2c
    a120:	e59fc054 	ldr	ip, [pc, #84]	; 0xa17c
    a124:	e583c000 	str	ip, [r3]
    a128:	e3a0c012 	mov	ip, #18
    a12c:	e580c060 	str	ip, [r0, #96]	; 0x60
    a130:	e28cc003 	add	ip, ip, #3
    a134:	e580c064 	str	ip, [r0, #100]	; 0x64
    a138:	e5910000 	ldr	r0, [r1]
    a13c:	e3c0000c 	bic	r0, r0, #12
    a140:	e3800004 	orr	r0, r0, #4
    a144:	e5810000 	str	r0, [r1]
    a148:	e59f1030 	ldr	r1, [pc, #48]	; 0xa180
    a14c:	e5831000 	str	r1, [r3]
    a150:	e59f102c 	ldr	r1, [pc, #44]	; 0xa184
    a154:	e5831004 	str	r1, [r3, #4]
    a158:	e59f1028 	ldr	r1, [pc, #40]	; 0xa188
    a15c:	e5831020 	str	r1, [r3, #32]
    a160:	e5832024 	str	r2, [r3, #36]	; 0x24
    a164:	e583203c 	str	r2, [r3, #60]	; 0x3c
    a168:	e8bd8010 	pop	{r4, pc}
    a16c:	10018000 	andne	r8, r1, r0
    a170:	8009a000 	andhi	sl, r9, r0
    a174:	10200000 	eorne	r0, r0, r0
    a178:	10001000 	andne	r1, r0, r0
    a17c:	0b60b446 	bleq	0x183729c
    a180:	27653646 	strbcs	r3, [r5, -r6, asr #12]!
    a184:	00a95008 	adceq	r5, r9, r8
    a188:	bfcffdd0 	svclt	0x00cffdd0
    a18c:	e12fff1e 	bx	lr
    a190:	e12fff1e 	bx	lr
    a194:	e92d41f0 	push	{r4, r5, r6, r7, r8, lr}
    a198:	e59f0258 	ldr	r0, [pc, #600]	; 0xa3f8
    a19c:	e08f0000 	add	r0, pc, r0
    a1a0:	e59f4254 	ldr	r4, [pc, #596]	; 0xa3fc
    a1a4:	ebfffc46 	bl	0x92c4
    a1a8:	e59fc250 	ldr	ip, [pc, #592]	; 0xa400
    a1ac:	e59f1250 	ldr	r1, [pc, #592]	; 0xa404
    a1b0:	e59c2644 	ldr	r2, [ip, #1604]	; 0x644
    a1b4:	e3a00001 	mov	r0, #1
    a1b8:	e5913644 	ldr	r3, [r1, #1604]	; 0x644
    a1bc:	e1822003 	orr	r2, r2, r3
    a1c0:	e59f3240 	ldr	r3, [pc, #576]	; 0xa408
    a1c4:	e3822c02 	orr	r2, r2, #512	; 0x200
    a1c8:	e593e644 	ldr	lr, [r3, #1604]	; 0x644
    a1cc:	e182200e 	orr	r2, r2, lr
    a1d0:	e58c2644 	str	r2, [ip, #1604]	; 0x644
    a1d4:	e5812644 	str	r2, [r1, #1604]	; 0x644
    a1d8:	e5832644 	str	r2, [r3, #1604]	; 0x644
    a1dc:	e1a06003 	mov	r6, r3
    a1e0:	e08f4004 	add	r4, pc, r4
    a1e4:	e1a0800c 	mov	r8, ip
    a1e8:	e1a07001 	mov	r7, r1
    a1ec:	ebfffe4f 	bl	0x9b30
    a1f0:	e59f3214 	ldr	r3, [pc, #532]	; 0xa40c
    a1f4:	e3a02000 	mov	r2, #0
    a1f8:	e7943003 	ldr	r3, [r4, r3]
    a1fc:	e1a05003 	mov	r5, r3
    a200:	e5832000 	str	r2, [r3]
    a204:	ea000013 	b	0xa258
    a208:	e59830c0 	ldr	r3, [r8, #192]	; 0xc0
    a20c:	e59710c0 	ldr	r1, [r7, #192]	; 0xc0
    a210:	e1813003 	orr	r3, r1, r3
    a214:	e59610c0 	ldr	r1, [r6, #192]	; 0xc0
    a218:	e1833001 	orr	r3, r3, r1
    a21c:	e3c33a0f 	bic	r3, r3, #61440	; 0xf000
    a220:	e1833602 	orr	r3, r3, r2, lsl #12
    a224:	e58830c0 	str	r3, [r8, #192]	; 0xc0
    a228:	e58730c0 	str	r3, [r7, #192]	; 0xc0
    a22c:	e58630c0 	str	r3, [r6, #192]	; 0xc0
    a230:	ebfffe3e 	bl	0x9b30
    a234:	e59833dc 	ldr	r3, [r8, #988]	; 0x3dc
    a238:	e59723dc 	ldr	r2, [r7, #988]	; 0x3dc
    a23c:	e1822003 	orr	r2, r2, r3
    a240:	e59633dc 	ldr	r3, [r6, #988]	; 0x3dc
    a244:	e1922003 	orrs	r2, r2, r3
    a248:	4a000006 	bmi	0xa268
    a24c:	e5953000 	ldr	r3, [r5]
    a250:	e2833001 	add	r3, r3, #1
    a254:	e5853000 	str	r3, [r5]
    a258:	e5952000 	ldr	r2, [r5]
    a25c:	e3a00001 	mov	r0, #1
    a260:	e352000f 	cmp	r2, #15
    a264:	9affffe7 	bls	0xa208
    a268:	e59f0190 	ldr	r0, [pc, #400]	; 0xa400
    a26c:	e59f1190 	ldr	r1, [pc, #400]	; 0xa404
    a270:	e5903644 	ldr	r3, [r0, #1604]	; 0x644
    a274:	e59f218c 	ldr	r2, [pc, #396]	; 0xa408
    a278:	e591c644 	ldr	ip, [r1, #1604]	; 0x644
    a27c:	e18c3003 	orr	r3, ip, r3
    a280:	e592c644 	ldr	ip, [r2, #1604]	; 0x644
    a284:	e183300c 	orr	r3, r3, ip
    a288:	e59fc170 	ldr	ip, [pc, #368]	; 0xa400
    a28c:	e3c33c02 	bic	r3, r3, #512	; 0x200
    a290:	e5803644 	str	r3, [r0, #1604]	; 0x644
    a294:	e5813644 	str	r3, [r1, #1604]	; 0x644
    a298:	e3a00001 	mov	r0, #1
    a29c:	e5823644 	str	r3, [r2, #1604]	; 0x644
    a2a0:	e59f115c 	ldr	r1, [pc, #348]	; 0xa404
    a2a4:	e59f3160 	ldr	r3, [pc, #352]	; 0xa40c
    a2a8:	e7943003 	ldr	r3, [r4, r3]
    a2ac:	e5932000 	ldr	r2, [r3]
    a2b0:	e3520010 	cmp	r2, #16
    a2b4:	03a0200a 	moveq	r2, #10
    a2b8:	05832000 	streq	r2, [r3]
    a2bc:	e59c2644 	ldr	r2, [ip, #1604]	; 0x644
    a2c0:	e5913644 	ldr	r3, [r1, #1604]	; 0x644
    a2c4:	e1822003 	orr	r2, r2, r3
    a2c8:	e59f3138 	ldr	r3, [pc, #312]	; 0xa408
    a2cc:	e3822c01 	orr	r2, r2, #256	; 0x100
    a2d0:	e593e644 	ldr	lr, [r3, #1604]	; 0x644
    a2d4:	e182200e 	orr	r2, r2, lr
    a2d8:	e58c2644 	str	r2, [ip, #1604]	; 0x644
    a2dc:	e5812644 	str	r2, [r1, #1604]	; 0x644
    a2e0:	e5832644 	str	r2, [r3, #1604]	; 0x644
    a2e4:	e1a06003 	mov	r6, r3
    a2e8:	e1a0800c 	mov	r8, ip
    a2ec:	e1a07001 	mov	r7, r1
    a2f0:	ebfffe0e 	bl	0x9b30
    a2f4:	e59f3114 	ldr	r3, [pc, #276]	; 0xa410
    a2f8:	e3a02000 	mov	r2, #0
    a2fc:	e7943003 	ldr	r3, [r4, r3]
    a300:	e1a05003 	mov	r5, r3
    a304:	e5832000 	str	r2, [r3]
    a308:	ea00001a 	b	0xa378
    a30c:	e59820c0 	ldr	r2, [r8, #192]	; 0xc0
    a310:	e59710c0 	ldr	r1, [r7, #192]	; 0xc0
    a314:	e1812002 	orr	r2, r1, r2
    a318:	e59610c0 	ldr	r1, [r6, #192]	; 0xc0
    a31c:	e1822001 	orr	r2, r2, r1
    a320:	e3c22c0f 	bic	r2, r2, #3840	; 0xf00
    a324:	e1823403 	orr	r3, r2, r3, lsl #8
    a328:	e58830c0 	str	r3, [r8, #192]	; 0xc0
    a32c:	e58730c0 	str	r3, [r7, #192]	; 0xc0
    a330:	e58630c0 	str	r3, [r6, #192]	; 0xc0
    a334:	ebfffdfd 	bl	0x9b30
    a338:	e59833dc 	ldr	r3, [r8, #988]	; 0x3dc
    a33c:	e59723dc 	ldr	r2, [r7, #988]	; 0x3dc
    a340:	e1823003 	orr	r3, r2, r3
    a344:	e59623dc 	ldr	r2, [r6, #988]	; 0x3dc
    a348:	e1833002 	orr	r3, r3, r2
    a34c:	e1a03f23 	lsr	r3, r3, #30
    a350:	e3530001 	cmp	r3, #1
    a354:	1a000004 	bne	0xa36c
    a358:	e5953000 	ldr	r3, [r5]
    a35c:	e3530000 	cmp	r3, #0
    a360:	12433001 	subne	r3, r3, #1
    a364:	15853000 	strne	r3, [r5]
    a368:	ea000006 	b	0xa388
    a36c:	e5953000 	ldr	r3, [r5]
    a370:	e2833001 	add	r3, r3, #1
    a374:	e5853000 	str	r3, [r5]
    a378:	e5953000 	ldr	r3, [r5]
    a37c:	e3a00001 	mov	r0, #1
    a380:	e353000f 	cmp	r3, #15
    a384:	9affffe0 	bls	0xa30c
    a388:	e59f0070 	ldr	r0, [pc, #112]	; 0xa400
    a38c:	e59f1070 	ldr	r1, [pc, #112]	; 0xa404
    a390:	e5903644 	ldr	r3, [r0, #1604]	; 0x644
    a394:	e59f206c 	ldr	r2, [pc, #108]	; 0xa408
    a398:	e591c644 	ldr	ip, [r1, #1604]	; 0x644
    a39c:	e18c3003 	orr	r3, ip, r3
    a3a0:	e592c644 	ldr	ip, [r2, #1604]	; 0x644
    a3a4:	e183300c 	orr	r3, r3, ip
    a3a8:	e3c33c01 	bic	r3, r3, #256	; 0x100
    a3ac:	e5803644 	str	r3, [r0, #1604]	; 0x644
    a3b0:	e5813644 	str	r3, [r1, #1604]	; 0x644
    a3b4:	e59f0058 	ldr	r0, [pc, #88]	; 0xa414
    a3b8:	e5823644 	str	r3, [r2, #1604]	; 0x644
    a3bc:	e08f0000 	add	r0, pc, r0
    a3c0:	e59f3048 	ldr	r3, [pc, #72]	; 0xa410
    a3c4:	e7943003 	ldr	r3, [r4, r3]
    a3c8:	e5932000 	ldr	r2, [r3]
    a3cc:	e3520010 	cmp	r2, #16
    a3d0:	03a0200a 	moveq	r2, #10
    a3d4:	05832000 	streq	r2, [r3]
    a3d8:	e59f302c 	ldr	r3, [pc, #44]	; 0xa40c
    a3dc:	e7943003 	ldr	r3, [r4, r3]
    a3e0:	e5931000 	ldr	r1, [r3]
    a3e4:	e59f3024 	ldr	r3, [pc, #36]	; 0xa410
    a3e8:	e7943003 	ldr	r3, [r4, r3]
    a3ec:	e5932000 	ldr	r2, [r3]
    a3f0:	e8bd41f0 	pop	{r4, r5, r6, r7, r8, lr}
    a3f4:	eafffbb2 	b	0x92c4
    a3f8:	00006cec 	andeq	r6, r0, ip, ror #25
    a3fc:	00006e24 	andeq	r6, r0, r4, lsr #28
    a400:	10207000 	eorne	r7, r0, r0
    a404:	10208000 	eorne	r8, r0, r0
    a408:	10206000 	eorne	r6, r0, r0
    a40c:	00000048 	andeq	r0, r0, r8, asr #32
    a410:	00000094 	muleq	r0, r4, r0
    a414:	00006aec 	andeq	r6, r0, ip, ror #21
    a418:	e92d4ff8 	push	{r3, r4, r5, r6, r7, r8, r9, sl, fp, lr}
    a41c:	e59fc590 	ldr	ip, [pc, #1424]	; 0xa9b4
    a420:	e59f5590 	ldr	r5, [pc, #1424]	; 0xa9b8
    a424:	e59f4590 	ldr	r4, [pc, #1424]	; 0xa9bc
    a428:	e59f6590 	ldr	r6, [pc, #1424]	; 0xa9c0
    a42c:	e3a07000 	mov	r7, #0
    a430:	e59f358c 	ldr	r3, [pc, #1420]	; 0xa9c4
    a434:	e59fb58c 	ldr	fp, [pc, #1420]	; 0xa9c8
    a438:	e59f958c 	ldr	r9, [pc, #1420]	; 0xa9cc
    a43c:	e59fa58c 	ldr	sl, [pc, #1420]	; 0xa9d0
    a440:	e59fe58c 	ldr	lr, [pc, #1420]	; 0xa9d4
    a444:	e3a0051e 	mov	r0, #125829120	; 0x7800000
    a448:	e59f1588 	ldr	r1, [pc, #1416]	; 0xa9d8
    a44c:	e3a08001 	mov	r8, #1
    a450:	e59f2584 	ldr	r2, [pc, #1412]	; 0xa9dc
    a454:	e5862000 	str	r2, [r6]
    a458:	e59f2580 	ldr	r2, [pc, #1408]	; 0xa9e0
    a45c:	e5862100 	str	r2, [r6, #256]	; 0x100
    a460:	e59f257c 	ldr	r2, [pc, #1404]	; 0xa9e4
    a464:	e5862108 	str	r2, [r6, #264]	; 0x108
    a468:	e2422099 	sub	r2, r2, #153	; 0x99
    a46c:	e5862110 	str	r2, [r6, #272]	; 0x110
    a470:	e59f2570 	ldr	r2, [pc, #1392]	; 0xa9e8
    a474:	e5862118 	str	r2, [r6, #280]	; 0x118
    a478:	e59f256c 	ldr	r2, [pc, #1388]	; 0xa9ec
    a47c:	e5862120 	str	r2, [r6, #288]	; 0x120
    a480:	e586b128 	str	fp, [r6, #296]	; 0x128
    a484:	e59f2564 	ldr	r2, [pc, #1380]	; 0xa9f0
    a488:	e586b134 	str	fp, [r6, #308]	; 0x134
    a48c:	e59fb560 	ldr	fp, [pc, #1376]	; 0xa9f4
    a490:	e586b008 	str	fp, [r6, #8]
    a494:	e59fb55c 	ldr	fp, [pc, #1372]	; 0xa9f8
    a498:	e586b010 	str	fp, [r6, #16]
    a49c:	e59fb558 	ldr	fp, [pc, #1368]	; 0xa9fc
    a4a0:	e586b030 	str	fp, [r6, #48]	; 0x30
    a4a4:	e59fb554 	ldr	fp, [pc, #1364]	; 0xaa00
    a4a8:	e586b018 	str	fp, [r6, #24]
    a4ac:	e59fb550 	ldr	fp, [pc, #1360]	; 0xaa04
    a4b0:	e586b020 	str	fp, [r6, #32]
    a4b4:	e5867038 	str	r7, [r6, #56]	; 0x38
    a4b8:	e59fb548 	ldr	fp, [pc, #1352]	; 0xaa08
    a4bc:	e586b078 	str	fp, [r6, #120]	; 0x78
    a4c0:	e58690d0 	str	r9, [r6, #208]	; 0xd0
    a4c4:	e58690d8 	str	r9, [r6, #216]	; 0xd8
    a4c8:	e59f953c 	ldr	r9, [pc, #1340]	; 0xaa0c
    a4cc:	e58690e8 	str	r9, [r6, #232]	; 0xe8
    a4d0:	e59f9538 	ldr	r9, [pc, #1336]	; 0xaa10
    a4d4:	e58690f0 	str	r9, [r6, #240]	; 0xf0
    a4d8:	e58670f8 	str	r7, [r6, #248]	; 0xf8
    a4dc:	e586a140 	str	sl, [r6, #320]	; 0x140
    a4e0:	e586a144 	str	sl, [r6, #324]	; 0x144
    a4e4:	e586e148 	str	lr, [r6, #328]	; 0x148
    a4e8:	e59fa524 	ldr	sl, [pc, #1316]	; 0xaa14
    a4ec:	e586e14c 	str	lr, [r6, #332]	; 0x14c
    a4f0:	e586c150 	str	ip, [r6, #336]	; 0x150
    a4f4:	e59fe51c 	ldr	lr, [pc, #1308]	; 0xaa18
    a4f8:	e586c154 	str	ip, [r6, #340]	; 0x154
    a4fc:	e59fc518 	ldr	ip, [pc, #1304]	; 0xaa1c
    a500:	e586c158 	str	ip, [r6, #344]	; 0x158
    a504:	e59fc514 	ldr	ip, [pc, #1300]	; 0xaa20
    a508:	e586c028 	str	ip, [r6, #40]	; 0x28
    a50c:	e300c6ff 	movw	ip, #1791	; 0x6ff
    a510:	e586c060 	str	ip, [r6, #96]	; 0x60
    a514:	e59fc508 	ldr	ip, [pc, #1288]	; 0xaa24
    a518:	e08fc00c 	add	ip, pc, ip
    a51c:	e79ce00e 	ldr	lr, [ip, lr]
    a520:	e79ca00a 	ldr	sl, [ip, sl]
    a524:	e59ee000 	ldr	lr, [lr]
    a528:	e59aa000 	ldr	sl, [sl]
    a52c:	e1a0ce0a 	lsl	ip, sl, #28
    a530:	e08ccc0e 	add	ip, ip, lr, lsl #24
    a534:	e08ca60a 	add	sl, ip, sl, lsl #12
    a538:	e08aa40e 	add	sl, sl, lr, lsl #8
    a53c:	e585a0b4 	str	sl, [r5, #180]	; 0xb4
    a540:	e584a0b4 	str	sl, [r4, #180]	; 0xb4
    a544:	e585a0b8 	str	sl, [r5, #184]	; 0xb8
    a548:	e584a0b8 	str	sl, [r4, #184]	; 0xb8
    a54c:	e585a0bc 	str	sl, [r5, #188]	; 0xbc
    a550:	e584a0bc 	str	sl, [r4, #188]	; 0xbc
    a554:	e595c644 	ldr	ip, [r5, #1604]	; 0x644
    a558:	e3ccc001 	bic	ip, ip, #1
    a55c:	e585c644 	str	ip, [r5, #1604]	; 0x644
    a560:	e594c644 	ldr	ip, [r4, #1604]	; 0x644
    a564:	e3ccc001 	bic	ip, ip, #1
    a568:	e584c644 	str	ip, [r4, #1604]	; 0x644
    a56c:	e58500fc 	str	r0, [r5, #252]	; 0xfc
    a570:	e58400fc 	str	r0, [r4, #252]	; 0xfc
    a574:	e5851048 	str	r1, [r5, #72]	; 0x48
    a578:	e5841048 	str	r1, [r4, #72]	; 0x48
    a57c:	e58520d8 	str	r2, [r5, #216]	; 0xd8
    a580:	e58420d8 	str	r2, [r4, #216]	; 0xd8
    a584:	e58570e4 	str	r7, [r5, #228]	; 0xe4
    a588:	e3a02102 	mov	r2, #-2147483648	; 0x80000000
    a58c:	e58470e4 	str	r7, [r4, #228]	; 0xe4
    a590:	e585808c 	str	r8, [r5, #140]	; 0x8c
    a594:	e584808c 	str	r8, [r4, #140]	; 0x8c
    a598:	e5857090 	str	r7, [r5, #144]	; 0x90
    a59c:	e5847090 	str	r7, [r4, #144]	; 0x90
    a5a0:	e5852094 	str	r2, [r5, #148]	; 0x94
    a5a4:	e5842094 	str	r2, [r4, #148]	; 0x94
    a5a8:	e59f2478 	ldr	r2, [pc, #1144]	; 0xaa28
    a5ac:	e58520dc 	str	r2, [r5, #220]	; 0xdc
    a5b0:	e58420dc 	str	r2, [r4, #220]	; 0xdc
    a5b4:	e2822326 	add	r2, r2, #-1744830464	; 0x98000000
    a5b8:	e58520e0 	str	r2, [r5, #224]	; 0xe0
    a5bc:	e58420e0 	str	r2, [r4, #224]	; 0xe0
    a5c0:	e59f2464 	ldr	r2, [pc, #1124]	; 0xaa2c
    a5c4:	e5852124 	str	r2, [r5, #292]	; 0x124
    a5c8:	e5842124 	str	r2, [r4, #292]	; 0x124
    a5cc:	e58570f0 	str	r7, [r5, #240]	; 0xf0
    a5d0:	e3a02401 	mov	r2, #16777216	; 0x1000000
    a5d4:	e58470f0 	str	r7, [r4, #240]	; 0xf0
    a5d8:	e58520f4 	str	r2, [r5, #244]	; 0xf4
    a5dc:	e58420f4 	str	r2, [r4, #244]	; 0xf4
    a5e0:	e59520f4 	ldr	r2, [r5, #244]	; 0xf4
    a5e4:	e3822201 	orr	r2, r2, #268435456	; 0x10000000
    a5e8:	e58520f4 	str	r2, [r5, #244]	; 0xf4
    a5ec:	e59420f4 	ldr	r2, [r4, #244]	; 0xf4
    a5f0:	e3822201 	orr	r2, r2, #268435456	; 0x10000000
    a5f4:	e58420f4 	str	r2, [r4, #244]	; 0xf4
    a5f8:	e59520f4 	ldr	r2, [r5, #244]	; 0xf4
    a5fc:	e382260f 	orr	r2, r2, #15728640	; 0xf00000
    a600:	e58520f4 	str	r2, [r5, #244]	; 0xf4
    a604:	e59420f4 	ldr	r2, [r4, #244]	; 0xf4
    a608:	e382260f 	orr	r2, r2, #15728640	; 0xf00000
    a60c:	e58420f4 	str	r2, [r4, #244]	; 0xf4
    a610:	e3a02080 	mov	r2, #128	; 0x80
    a614:	e5852168 	str	r2, [r5, #360]	; 0x168
    a618:	e5842168 	str	r2, [r4, #360]	; 0x168
    a61c:	e59f240c 	ldr	r2, [pc, #1036]	; 0xaa30
    a620:	e58520d8 	str	r2, [r5, #216]	; 0xd8
    a624:	e58420d8 	str	r2, [r4, #216]	; 0xd8
    a628:	e59f2404 	ldr	r2, [pc, #1028]	; 0xaa34
    a62c:	e5852004 	str	r2, [r5, #4]
    a630:	e5842004 	str	r2, [r4, #4]
    a634:	e59f23fc 	ldr	r2, [pc, #1020]	; 0xaa38
    a638:	e585207c 	str	r2, [r5, #124]	; 0x7c
    a63c:	e584207c 	str	r2, [r4, #124]	; 0x7c
    a640:	e59f23f4 	ldr	r2, [pc, #1012]	; 0xaa3c
    a644:	e5852028 	str	r2, [r5, #40]	; 0x28
    a648:	e5842028 	str	r2, [r4, #40]	; 0x28
    a64c:	e59f23ec 	ldr	r2, [pc, #1004]	; 0xaa40
    a650:	e58521e0 	str	r2, [r5, #480]	; 0x1e0
    a654:	e58421e0 	str	r2, [r4, #480]	; 0x1e0
    a658:	e59f23e4 	ldr	r2, [pc, #996]	; 0xaa44
    a65c:	e5852158 	str	r2, [r5, #344]	; 0x158
    a660:	e5842158 	str	r2, [r4, #344]	; 0x158
    a664:	e59f23dc 	ldr	r2, [pc, #988]	; 0xaa48
    a668:	e5852400 	str	r2, [r5, #1024]	; 0x400
    a66c:	e5842400 	str	r2, [r4, #1024]	; 0x400
    a670:	e3a02002 	mov	r2, #2
    a674:	e5852404 	str	r2, [r5, #1028]	; 0x404
    a678:	e5842404 	str	r2, [r4, #1028]	; 0x404
    a67c:	e59f23c8 	ldr	r2, [pc, #968]	; 0xaa4c
    a680:	e5852408 	str	r2, [r5, #1032]	; 0x408
    a684:	e5842408 	str	r2, [r4, #1032]	; 0x408
    a688:	e585340c 	str	r3, [r5, #1036]	; 0x40c
    a68c:	e3a02005 	mov	r2, #5
    a690:	e584340c 	str	r3, [r4, #1036]	; 0x40c
    a694:	e5853410 	str	r3, [r5, #1040]	; 0x410
    a698:	e5843410 	str	r3, [r4, #1040]	; 0x410
    a69c:	e59f33ac 	ldr	r3, [pc, #940]	; 0xaa50
    a6a0:	e5853110 	str	r3, [r5, #272]	; 0x110
    a6a4:	e5843110 	str	r3, [r4, #272]	; 0x110
    a6a8:	e58520e4 	str	r2, [r5, #228]	; 0xe4
    a6ac:	e58420e4 	str	r2, [r4, #228]	; 0xe4
    a6b0:	f57ff04f 	dsb	sy
    a6b4:	e3a000c8 	mov	r0, #200	; 0xc8
    a6b8:	ebfffd1c 	bl	0x9b30
    a6bc:	e3a0303f 	mov	r3, #63	; 0x3f
    a6c0:	e5853088 	str	r3, [r5, #136]	; 0x88
    a6c4:	e5843088 	str	r3, [r4, #136]	; 0x88
    a6c8:	e58581e4 	str	r8, [r5, #484]	; 0x1e4
    a6cc:	e58481e4 	str	r8, [r4, #484]	; 0x1e4
    a6d0:	f57ff04f 	dsb	sy
    a6d4:	e3a0000a 	mov	r0, #10
    a6d8:	e59fa374 	ldr	sl, [pc, #884]	; 0xaa54
    a6dc:	ebfffd13 	bl	0x9b30
    a6e0:	e58571e4 	str	r7, [r5, #484]	; 0x1e4
    a6e4:	e58471e4 	str	r7, [r4, #484]	; 0x1e4
    a6e8:	e5953110 	ldr	r3, [r5, #272]	; 0x110
    a6ec:	e3c33007 	bic	r3, r3, #7
    a6f0:	e5853110 	str	r3, [r5, #272]	; 0x110
    a6f4:	e5943110 	ldr	r3, [r4, #272]	; 0x110
    a6f8:	e3c33007 	bic	r3, r3, #7
    a6fc:	e5843110 	str	r3, [r4, #272]	; 0x110
    a700:	e585a088 	str	sl, [r5, #136]	; 0x88
    a704:	e584a088 	str	sl, [r4, #136]	; 0x88
    a708:	e58581e4 	str	r8, [r5, #484]	; 0x1e4
    a70c:	e58481e4 	str	r8, [r4, #484]	; 0x1e4
    a710:	f57ff04f 	dsb	sy
    a714:	e1a00008 	mov	r0, r8
    a718:	ebfffd04 	bl	0x9b30
    a71c:	e58571e4 	str	r7, [r5, #484]	; 0x1e4
    a720:	e58471e4 	str	r7, [r4, #484]	; 0x1e4
    a724:	e5963000 	ldr	r3, [r6]
    a728:	e3130802 	tst	r3, #131072	; 0x20000
    a72c:	0a00001a 	beq	0xa79c
    a730:	e5953110 	ldr	r3, [r5, #272]	; 0x110
    a734:	e3833008 	orr	r3, r3, #8
    a738:	e5853110 	str	r3, [r5, #272]	; 0x110
    a73c:	e5943110 	ldr	r3, [r4, #272]	; 0x110
    a740:	e3833008 	orr	r3, r3, #8
    a744:	e5843110 	str	r3, [r4, #272]	; 0x110
    a748:	e585a088 	str	sl, [r5, #136]	; 0x88
    a74c:	e584a088 	str	sl, [r4, #136]	; 0x88
    a750:	e58581e4 	str	r8, [r5, #484]	; 0x1e4
    a754:	e58481e4 	str	r8, [r4, #484]	; 0x1e4
    a758:	f57ff04f 	dsb	sy
    a75c:	e1a00008 	mov	r0, r8
    a760:	ebfffcf2 	bl	0x9b30
    a764:	e58571e4 	str	r7, [r5, #484]	; 0x1e4
    a768:	e58471e4 	str	r7, [r4, #484]	; 0x1e4
    a76c:	e5953110 	ldr	r3, [r5, #272]	; 0x110
    a770:	e3c33008 	bic	r3, r3, #8
    a774:	e5853110 	str	r3, [r5, #272]	; 0x110
    a778:	e5943110 	ldr	r3, [r4, #272]	; 0x110
    a77c:	e3c33008 	bic	r3, r3, #8
    a780:	e5843110 	str	r3, [r4, #272]	; 0x110
    a784:	e5953110 	ldr	r3, [r5, #272]	; 0x110
    a788:	e1833008 	orr	r3, r3, r8
    a78c:	e5853110 	str	r3, [r5, #272]	; 0x110
    a790:	e5943110 	ldr	r3, [r4, #272]	; 0x110
    a794:	e1833008 	orr	r3, r3, r8
    a798:	e5843110 	str	r3, [r4, #272]	; 0x110
    a79c:	e59f5214 	ldr	r5, [pc, #532]	; 0xa9b8
    a7a0:	e59f32b0 	ldr	r3, [pc, #688]	; 0xaa58
    a7a4:	e59f4210 	ldr	r4, [pc, #528]	; 0xa9bc
    a7a8:	e5853088 	str	r3, [r5, #136]	; 0x88
    a7ac:	e3a06001 	mov	r6, #1
    a7b0:	e5843088 	str	r3, [r4, #136]	; 0x88
    a7b4:	e58561e4 	str	r6, [r5, #484]	; 0x1e4
    a7b8:	e58461e4 	str	r6, [r4, #484]	; 0x1e4
    a7bc:	f57ff04f 	dsb	sy
    a7c0:	e1a00006 	mov	r0, r6
    a7c4:	e3a07000 	mov	r7, #0
    a7c8:	ebfffcd8 	bl	0x9b30
    a7cc:	e58571e4 	str	r7, [r5, #484]	; 0x1e4
    a7d0:	e59f3284 	ldr	r3, [pc, #644]	; 0xaa5c
    a7d4:	e58471e4 	str	r7, [r4, #484]	; 0x1e4
    a7d8:	e5853088 	str	r3, [r5, #136]	; 0x88
    a7dc:	e5843088 	str	r3, [r4, #136]	; 0x88
    a7e0:	e58561e4 	str	r6, [r5, #484]	; 0x1e4
    a7e4:	e58461e4 	str	r6, [r4, #484]	; 0x1e4
    a7e8:	f57ff04f 	dsb	sy
    a7ec:	e1a00006 	mov	r0, r6
    a7f0:	ebfffcce 	bl	0x9b30
    a7f4:	e58571e4 	str	r7, [r5, #484]	; 0x1e4
    a7f8:	e59f3260 	ldr	r3, [pc, #608]	; 0xaa60
    a7fc:	e58471e4 	str	r7, [r4, #484]	; 0x1e4
    a800:	e5853088 	str	r3, [r5, #136]	; 0x88
    a804:	e5843088 	str	r3, [r4, #136]	; 0x88
    a808:	e58561e4 	str	r6, [r5, #484]	; 0x1e4
    a80c:	e58461e4 	str	r6, [r4, #484]	; 0x1e4
    a810:	f57ff04f 	dsb	sy
    a814:	e1a00006 	mov	r0, r6
    a818:	ebfffcc4 	bl	0x9b30
    a81c:	e59f2194 	ldr	r2, [pc, #404]	; 0xa9b8
    a820:	e3a01000 	mov	r1, #0
    a824:	e3a00001 	mov	r0, #1
    a828:	e3a03c11 	mov	r3, #4352	; 0x1100
    a82c:	e300ca56 	movw	ip, #2646	; 0xa56
    a830:	e58531e4 	str	r3, [r5, #484]	; 0x1e4
    a834:	e58431e4 	str	r3, [r4, #484]	; 0x1e4
    a838:	e59f3180 	ldr	r3, [pc, #384]	; 0xa9c0
    a83c:	e5933000 	ldr	r3, [r3]
    a840:	e3130802 	tst	r3, #131072	; 0x20000
    a844:	159f3218 	ldrne	r3, [pc, #536]	; 0xaa64
    a848:	059f3218 	ldreq	r3, [pc, #536]	; 0xaa68
    a84c:	e5853110 	str	r3, [r5, #272]	; 0x110
    a850:	e5843110 	str	r3, [r4, #272]	; 0x110
    a854:	e59f5210 	ldr	r5, [pc, #528]	; 0xaa6c
    a858:	e59f315c 	ldr	r3, [pc, #348]	; 0xa9bc
    a85c:	e58200e4 	str	r0, [r2, #228]	; 0xe4
    a860:	e58300e4 	str	r0, [r3, #228]	; 0xe4
    a864:	e58201ec 	str	r0, [r2, #492]	; 0x1ec
    a868:	e58301ec 	str	r0, [r3, #492]	; 0x1ec
    a86c:	e582c084 	str	ip, [r2, #132]	; 0x84
    a870:	e59f01f8 	ldr	r0, [pc, #504]	; 0xaa70
    a874:	e583c084 	str	ip, [r3, #132]	; 0x84
    a878:	e582100c 	str	r1, [r2, #12]
    a87c:	e59fc1f0 	ldr	ip, [pc, #496]	; 0xaa74
    a880:	e583100c 	str	r1, [r3, #12]
    a884:	e582c000 	str	ip, [r2]
    a888:	e583c000 	str	ip, [r3]
    a88c:	e59fc1e4 	ldr	ip, [pc, #484]	; 0xaa78
    a890:	e582c1f8 	str	ip, [r2, #504]	; 0x1f8
    a894:	e583c1f8 	str	ip, [r3, #504]	; 0x1f8
    a898:	e59fc1dc 	ldr	ip, [pc, #476]	; 0xaa7c
    a89c:	e582c044 	str	ip, [r2, #68]	; 0x44
    a8a0:	e583c044 	str	ip, [r3, #68]	; 0x44
    a8a4:	e59fc1d4 	ldr	ip, [pc, #468]	; 0xaa80
    a8a8:	e582c1e8 	str	ip, [r2, #488]	; 0x1e8
    a8ac:	e583c1e8 	str	ip, [r3, #488]	; 0x1e8
    a8b0:	e5821010 	str	r1, [r2, #16]
    a8b4:	e59fc1c8 	ldr	ip, [pc, #456]	; 0xaa84
    a8b8:	e5831010 	str	r1, [r3, #16]
    a8bc:	e582c0f8 	str	ip, [r2, #248]	; 0xf8
    a8c0:	e583c0f8 	str	ip, [r3, #248]	; 0xf8
    a8c4:	e5821020 	str	r1, [r2, #32]
    a8c8:	e59fc1b8 	ldr	ip, [pc, #440]	; 0xaa88
    a8cc:	e5831020 	str	r1, [r3, #32]
    a8d0:	e5921640 	ldr	r1, [r2, #1600]	; 0x640
    a8d4:	e3811801 	orr	r1, r1, #65536	; 0x10000
    a8d8:	e5821640 	str	r1, [r2, #1600]	; 0x640
    a8dc:	e59f11a8 	ldr	r1, [pc, #424]	; 0xaa8c
    a8e0:	e5934640 	ldr	r4, [r3, #1600]	; 0x640
    a8e4:	e3844801 	orr	r4, r4, #65536	; 0x10000
    a8e8:	e5834640 	str	r4, [r3, #1600]	; 0x640
    a8ec:	e582c008 	str	ip, [r2, #8]
    a8f0:	e59f4198 	ldr	r4, [pc, #408]	; 0xaa90
    a8f4:	e583c008 	str	ip, [r3, #8]
    a8f8:	e58211dc 	str	r1, [r2, #476]	; 0x1dc
    a8fc:	e59fc190 	ldr	ip, [pc, #400]	; 0xaa94
    a900:	e58311dc 	str	r1, [r3, #476]	; 0x1dc
    a904:	e59f118c 	ldr	r1, [pc, #396]	; 0xaa98
    a908:	e5821008 	str	r1, [r2, #8]
    a90c:	e5831008 	str	r1, [r3, #8]
    a910:	e59f1184 	ldr	r1, [pc, #388]	; 0xaa9c
    a914:	e5821110 	str	r1, [r2, #272]	; 0x110
    a918:	e5831110 	str	r1, [r3, #272]	; 0x110
    a91c:	e592107c 	ldr	r1, [r2, #124]	; 0x7c
    a920:	e3811070 	orr	r1, r1, #112	; 0x70
    a924:	e582107c 	str	r1, [r2, #124]	; 0x7c
    a928:	e593107c 	ldr	r1, [r3, #124]	; 0x7c
    a92c:	e3811070 	orr	r1, r1, #112	; 0x70
    a930:	e583107c 	str	r1, [r3, #124]	; 0x7c
    a934:	e59210e4 	ldr	r1, [r2, #228]	; 0xe4
    a938:	e3c11010 	bic	r1, r1, #16
    a93c:	e58210e4 	str	r1, [r2, #228]	; 0xe4
    a940:	e59f1158 	ldr	r1, [pc, #344]	; 0xaaa0
    a944:	e59360e4 	ldr	r6, [r3, #228]	; 0xe4
    a948:	e3c66010 	bic	r6, r6, #16
    a94c:	e58360e4 	str	r6, [r3, #228]	; 0xe4
    a950:	e5825210 	str	r5, [r2, #528]	; 0x210
    a954:	e5835210 	str	r5, [r3, #528]	; 0x210
    a958:	e5824214 	str	r4, [r2, #532]	; 0x214
    a95c:	e5834214 	str	r4, [r3, #532]	; 0x214
    a960:	e582c218 	str	ip, [r2, #536]	; 0x218
    a964:	e583c218 	str	ip, [r3, #536]	; 0x218
    a968:	e582121c 	str	r1, [r2, #540]	; 0x21c
    a96c:	e583121c 	str	r1, [r3, #540]	; 0x21c
    a970:	e59f112c 	ldr	r1, [pc, #300]	; 0xaaa4
    a974:	e5821220 	str	r1, [r2, #544]	; 0x220
    a978:	e5831220 	str	r1, [r3, #544]	; 0x220
    a97c:	e59f1124 	ldr	r1, [pc, #292]	; 0xaaa8
    a980:	e5821224 	str	r1, [r2, #548]	; 0x224
    a984:	e5831224 	str	r1, [r3, #548]	; 0x224
    a988:	e59f111c 	ldr	r1, [pc, #284]	; 0xaaac
    a98c:	e5821228 	str	r1, [r2, #552]	; 0x228
    a990:	e5831228 	str	r1, [r3, #552]	; 0x228
    a994:	e59f1114 	ldr	r1, [pc, #276]	; 0xaab0
    a998:	e582122c 	str	r1, [r2, #556]	; 0x22c
    a99c:	e583122c 	str	r1, [r3, #556]	; 0x22c
    a9a0:	e5820018 	str	r0, [r2, #24]
    a9a4:	e5830018 	str	r0, [r3, #24]
    a9a8:	e582001c 	str	r0, [r2, #28]
    a9ac:	e583001c 	str	r0, [r3, #28]
    a9b0:	e8bd8ff8 	pop	{r3, r4, r5, r6, r7, r8, r9, sl, fp, pc}
    a9b4:	64f3fc79 	ldrbtvs	pc, [r3], #3193	; 0xc79	; <UNPREDICTABLE>
    a9b8:	10207000 	eorne	r7, r0, r0
    a9bc:	10208000 	eorne	r8, r0, r0
    a9c0:	10205000 	eorne	r5, r0, r0
    a9c4:	33330000 	teqcc	r3, #0
    a9c8:	a0a07046 	adcge	r7, r0, r6, asr #32
    a9cc:	cccccccc 	stclgt	12, cr12, [ip], {204}	; 0xcc
    a9d0:	20406188 	subcs	r6, r0, r8, lsl #3
    a9d4:	9719595e 			; <UNDEFINED> instruction: 0x9719595e
    a9d8:	0001110d 	andeq	r1, r1, sp, lsl #2
    a9dc:	00025052 	andeq	r5, r2, r2, asr r0
    a9e0:	7f07704a 	svcvc	0x0007704a
    a9e4:	a0a070db 	ldrdge	r7, [r0], fp	; <UNPREDICTABLE>
    a9e8:	07007047 	streq	r7, [r0, -r7, asr #32]
    a9ec:	2030604b 	eorscs	r6, r0, fp, asr #32
    a9f0:	00500900 	subseq	r0, r0, r0, lsl #18
    a9f4:	0d1e293a 	ldceq	9, cr2, [lr, #-232]	; 0xffffff18
    a9f8:	09190819 	ldmdbeq	r9, {r0, r3, r4, fp}
    a9fc:	2b2b282e 	blcs	0xad4abc
    aa00:	3657587a 			; <UNDEFINED> instruction: 0x3657587a
    aa04:	ffff0848 			; <UNDEFINED> instruction: 0xffff0848
    aa08:	34220e17 	strtcc	r0, [r2], #-3607	; 0xe17
    aa0c:	00020027 	andeq	r0, r2, r7, lsr #32
    aa10:	38460000 	stmdacc	r6, {}^	; <UNPREDICTABLE>
    aa14:	00000048 	andeq	r0, r0, r8, asr #32
    aa18:	00000094 	muleq	r0, r4, r0
    aa1c:	ff01ff00 			; <UNDEFINED> instruction: 0xff01ff00
    aa20:	00421000 	subeq	r1, r2, r0
    aa24:	00006aec 	andeq	r6, r0, ip, ror #21
    aa28:	83004004 	movwhi	r4, #4
    aa2c:	aa080033 	bge	0x20ab00
    aa30:	00700900 	rsbseq	r0, r0, r0, lsl #18
    aa34:	f0048483 			; <UNDEFINED> instruction: 0xf0048483
    aa38:	a00632d1 	ldrdge	r3, [r6], -r1
    aa3c:	f1200f01 			; <UNDEFINED> instruction: 0xf1200f01
    aa40:	1110017f 	tstne	r0, pc, ror r1
    aa44:	f0f0f0f0 			; <UNDEFINED> instruction: 0xf0f0f0f0
    aa48:	00111100 	andseq	r1, r1, r0, lsl #2
    aa4c:	00222222 	eoreq	r2, r2, r2, lsr #4
    aa50:	0b052311 	bleq	0x15369c
    aa54:	00ff000a 	rscseq	r0, pc, sl
    aa58:	00c30001 	sbceq	r0, r3, r1
    aa5c:	00060002 	andeq	r0, r6, r2
    aa60:	00020003 	andeq	r0, r2, r3
    aa64:	00112391 	mulseq	r1, r1, r3
    aa68:	00112390 	mulseq	r1, r0, r3
    aa6c:	05050101 	streq	r0, [r5, #-257]	; 0x101
    aa70:	1f221e22 	svcne	0x00221e22
    aa74:	44584493 	ldrbmi	r4, [r8], #-1171	; 0x493
    aa78:	04002600 	streq	r2, [r0], #-1536	; 0x600
    aa7c:	bf080401 	svclt	0x00080401
    aa80:	01000510 	tsteq	r0, r0, lsl r5
    aa84:	edcb000f 	stcl	0, cr0, [fp, #60]	; 0x3c
    aa88:	11806c3f 	orrne	r6, r0, pc, lsr ip
    aa8c:	d1642342 	cmnle	r4, r2, asr #6
    aa90:	00040307 	andeq	r0, r4, r7, lsl #6
    aa94:	01030503 	tsteq	r3, r3, lsl #10
    aa98:	01806c3f 	orreq	r6, r0, pc, lsr ip
    aa9c:	00112381 	andseq	r2, r1, r1, lsl #7
    aaa0:	03020100 	movweq	r0, #8448	; 0x2100
    aaa4:	05070001 	streq	r0, [r7, #-1]
    aaa8:	03040602 	movweq	r0, #17922	; 0x4602
    aaac:	03030405 	movweq	r0, #13317	; 0x3405
    aab0:	04040004 	streq	r0, [r4], #-4
    aab4:	e92d4010 	push	{r4, lr}
    aab8:	ebfffdb5 	bl	0xa194
    aabc:	ebfffe55 	bl	0xa418
    aac0:	e59f300c 	ldr	r3, [pc, #12]	; 0xaad4
    aac4:	e5932060 	ldr	r2, [r3, #96]	; 0x60
    aac8:	e3822b01 	orr	r2, r2, #1024	; 0x400
    aacc:	e5832060 	str	r2, [r3, #96]	; 0x60
    aad0:	e8bd8010 	pop	{r4, pc}
    aad4:	10205000 	eorne	r5, r0, r0
    aad8:	e92d4010 	push	{r4, lr}
    aadc:	e3a03000 	mov	r3, #0
    aae0:	e3a02e7d 	mov	r2, #2000	; 0x7d0
    aae4:	e1a03002 	mov	r3, r2
    aae8:	e2533001 	subs	r3, r3, #1
    aaec:	1afffffd 	bne	0xaae8
    aaf0:	e59f308c 	ldr	r3, [pc, #140]	; 0xab84
    aaf4:	e59f108c 	ldr	r1, [pc, #140]	; 0xab88
    aaf8:	e59f208c 	ldr	r2, [pc, #140]	; 0xab8c
    aafc:	e59f408c 	ldr	r4, [pc, #140]	; 0xab90
    ab00:	e3a00000 	mov	r0, #0
    ab04:	e5840060 	str	r0, [r4, #96]	; 0x60
    ab08:	e5910008 	ldr	r0, [r1, #8]
    ab0c:	e3c000ff 	bic	r0, r0, #255	; 0xff
    ab10:	e5810008 	str	r0, [r1, #8]
    ab14:	e5920008 	ldr	r0, [r2, #8]
    ab18:	e3c000ff 	bic	r0, r0, #255	; 0xff
    ab1c:	e5820008 	str	r0, [r2, #8]
    ab20:	e5930008 	ldr	r0, [r3, #8]
    ab24:	e3c000ff 	bic	r0, r0, #255	; 0xff
    ab28:	e5830008 	str	r0, [r3, #8]
    ab2c:	e59101dc 	ldr	r0, [r1, #476]	; 0x1dc
    ab30:	e3c008ff 	bic	r0, r0, #16711680	; 0xff0000
    ab34:	e58101dc 	str	r0, [r1, #476]	; 0x1dc
    ab38:	e59201dc 	ldr	r0, [r2, #476]	; 0x1dc
    ab3c:	e3c008ff 	bic	r0, r0, #16711680	; 0xff0000
    ab40:	e58201dc 	str	r0, [r2, #476]	; 0x1dc
    ab44:	e59301dc 	ldr	r0, [r3, #476]	; 0x1dc
    ab48:	e3c008ff 	bic	r0, r0, #16711680	; 0xff0000
    ab4c:	e58301dc 	str	r0, [r3, #476]	; 0x1dc
    ab50:	e5910044 	ldr	r0, [r1, #68]	; 0x44
    ab54:	e3c00102 	bic	r0, r0, #-2147483648	; 0x80000000
    ab58:	e5810044 	str	r0, [r1, #68]	; 0x44
    ab5c:	e5921044 	ldr	r1, [r2, #68]	; 0x44
    ab60:	e3c11102 	bic	r1, r1, #-2147483648	; 0x80000000
    ab64:	e5821044 	str	r1, [r2, #68]	; 0x44
    ab68:	e5932044 	ldr	r2, [r3, #68]	; 0x44
    ab6c:	e3c22102 	bic	r2, r2, #-2147483648	; 0x80000000
    ab70:	e5832044 	str	r2, [r3, #68]	; 0x44
    ab74:	ebfffe27 	bl	0xa418
    ab78:	e3a03c05 	mov	r3, #1280	; 0x500
    ab7c:	e5843060 	str	r3, [r4, #96]	; 0x60
    ab80:	e8bd8010 	pop	{r4, pc}
    ab84:	10206000 	eorne	r6, r0, r0
    ab88:	10207000 	eorne	r7, r0, r0
    ab8c:	10208000 	eorne	r8, r0, r0
    ab90:	10205000 	eorne	r5, r0, r0
    ab94:	e92d4ff8 	push	{r3, r4, r5, r6, r7, r8, r9, sl, fp, lr}
    ab98:	e59f6130 	ldr	r6, [pc, #304]	; 0xacd0
    ab9c:	e59f5130 	ldr	r5, [pc, #304]	; 0xacd4
    aba0:	e59621e8 	ldr	r2, [r6, #488]	; 0x1e8
    aba4:	e59f412c 	ldr	r4, [pc, #300]	; 0xacd8
    aba8:	e59571e8 	ldr	r7, [r5, #488]	; 0x1e8
    abac:	e1a03000 	mov	r3, r0
    abb0:	e1877002 	orr	r7, r7, r2
    abb4:	e3a00ffa 	mov	r0, #1000	; 0x3e8
    abb8:	e59421e8 	ldr	r2, [r4, #488]	; 0x1e8
    abbc:	e1877002 	orr	r7, r7, r2
    abc0:	e59f2114 	ldr	r2, [pc, #276]	; 0xacdc
    abc4:	e58621f4 	str	r2, [r6, #500]	; 0x1f4
    abc8:	e58521f4 	str	r2, [r5, #500]	; 0x1f4
    abcc:	e58421f4 	str	r2, [r4, #500]	; 0x1f4
    abd0:	e5863088 	str	r3, [r6, #136]	; 0x88
    abd4:	e5853088 	str	r3, [r5, #136]	; 0x88
    abd8:	e5843088 	str	r3, [r4, #136]	; 0x88
    abdc:	e59631e8 	ldr	r3, [r6, #488]	; 0x1e8
    abe0:	e3833801 	orr	r3, r3, #65536	; 0x10000
    abe4:	e58631e8 	str	r3, [r6, #488]	; 0x1e8
    abe8:	e59531e8 	ldr	r3, [r5, #488]	; 0x1e8
    abec:	e3833801 	orr	r3, r3, #65536	; 0x10000
    abf0:	e58531e8 	str	r3, [r5, #488]	; 0x1e8
    abf4:	e59431e8 	ldr	r3, [r4, #488]	; 0x1e8
    abf8:	e3833801 	orr	r3, r3, #65536	; 0x10000
    abfc:	e58431e8 	str	r3, [r4, #488]	; 0x1e8
    ac00:	ebfffbca 	bl	0x9b30
    ac04:	e59623b8 	ldr	r2, [r6, #952]	; 0x3b8
    ac08:	e59f30d0 	ldr	r3, [pc, #208]	; 0xace0
    ac0c:	e59583b8 	ldr	r8, [r5, #952]	; 0x3b8
    ac10:	e3a00ffa 	mov	r0, #1000	; 0x3e8
    ac14:	e1888002 	orr	r8, r8, r2
    ac18:	e59423b8 	ldr	r2, [r4, #952]	; 0x3b8
    ac1c:	e58631f4 	str	r3, [r6, #500]	; 0x1f4
    ac20:	e58531f4 	str	r3, [r5, #500]	; 0x1f4
    ac24:	e58431f4 	str	r3, [r4, #500]	; 0x1f4
    ac28:	e1888002 	orr	r8, r8, r2
    ac2c:	ebfffbbf 	bl	0x9b30
    ac30:	e59693b8 	ldr	r9, [r6, #952]	; 0x3b8
    ac34:	e3013b1e 	movw	r3, #6942	; 0x1b1e
    ac38:	e595b3b8 	ldr	fp, [r5, #952]	; 0x3b8
    ac3c:	e3a00ffa 	mov	r0, #1000	; 0x3e8
    ac40:	e594a3b8 	ldr	sl, [r4, #952]	; 0x3b8
    ac44:	e58631f4 	str	r3, [r6, #500]	; 0x1f4
    ac48:	e58531f4 	str	r3, [r5, #500]	; 0x1f4
    ac4c:	e58431f4 	str	r3, [r4, #500]	; 0x1f4
    ac50:	ebfffbb6 	bl	0x9b30
    ac54:	e7e28458 	ubfx	r8, r8, #8, #3
    ac58:	e59633b8 	ldr	r3, [r6, #952]	; 0x3b8
    ac5c:	e59f2080 	ldr	r2, [pc, #128]	; 0xace4
    ac60:	e59513b8 	ldr	r1, [r5, #952]	; 0x3b8
    ac64:	e18b0009 	orr	r0, fp, r9
    ac68:	e1813003 	orr	r3, r1, r3
    ac6c:	e180000a 	orr	r0, r0, sl
    ac70:	e59413b8 	ldr	r1, [r4, #952]	; 0x3b8
    ac74:	e7e20450 	ubfx	r0, r0, #8, #3
    ac78:	e58671e8 	str	r7, [r6, #488]	; 0x1e8
    ac7c:	e1833001 	orr	r3, r3, r1
    ac80:	e58571e8 	str	r7, [r5, #488]	; 0x1e8
    ac84:	e7e13453 	ubfx	r3, r3, #8, #2
    ac88:	e58471e8 	str	r7, [r4, #488]	; 0x1e8
    ac8c:	e1a03303 	lsl	r3, r3, #6
    ac90:	e1830180 	orr	r0, r3, r0, lsl #3
    ac94:	e5923034 	ldr	r3, [r2, #52]	; 0x34
    ac98:	e1800008 	orr	r0, r0, r8
    ac9c:	e3833004 	orr	r3, r3, #4
    aca0:	e5823034 	str	r3, [r2, #52]	; 0x34
    aca4:	e59f303c 	ldr	r3, [pc, #60]	; 0xace8
    aca8:	e5921034 	ldr	r1, [r2, #52]	; 0x34
    acac:	e3c11004 	bic	r1, r1, #4
    acb0:	e5821034 	str	r1, [r2, #52]	; 0x34
    acb4:	e59320e4 	ldr	r2, [r3, #228]	; 0xe4
    acb8:	e3822004 	orr	r2, r2, #4
    acbc:	e58320e4 	str	r2, [r3, #228]	; 0xe4
    acc0:	e59320e4 	ldr	r2, [r3, #228]	; 0xe4
    acc4:	e3c22004 	bic	r2, r2, #4
    acc8:	e58320e4 	str	r2, [r3, #228]	; 0xe4
    accc:	e8bd8ff8 	pop	{r3, r4, r5, r6, r7, r8, r9, sl, fp, pc}
    acd0:	10207000 	eorne	r7, r0, r0
    acd4:	10208000 	eorne	r8, r0, r0
    acd8:	10206000 	eorne	r6, r0, r0
    acdc:	001c1a19 	andseq	r1, ip, r9, lsl sl
    ace0:	001d1f18 	andseq	r1, sp, r8, lsl pc
    ace4:	10001000 	andne	r1, r0, r0
    ace8:	10004000 	andne	r4, r0, r0
    acec:	e92d4070 	push	{r4, r5, r6, lr}
    acf0:	e59f519c 	ldr	r5, [pc, #412]	; 0xae94
    acf4:	e08f5005 	add	r5, pc, r5
    acf8:	e1a00005 	mov	r0, r5
    acfc:	ebfff970 	bl	0x92c4
    ad00:	e59f0190 	ldr	r0, [pc, #400]	; 0xae98
    ad04:	e08f0000 	add	r0, pc, r0
    ad08:	e59f418c 	ldr	r4, [pc, #396]	; 0xae9c
    ad0c:	ebfff96c 	bl	0x92c4
    ad10:	e1a00005 	mov	r0, r5
    ad14:	ebfff96a 	bl	0x92c4
    ad18:	e59f1180 	ldr	r1, [pc, #384]	; 0xaea0
    ad1c:	e59f0180 	ldr	r0, [pc, #384]	; 0xaea4
    ad20:	e08f0000 	add	r0, pc, r0
    ad24:	ebfff966 	bl	0x92c4
    ad28:	e1a01004 	mov	r1, r4
    ad2c:	e59f0174 	ldr	r0, [pc, #372]	; 0xaea8
    ad30:	e08f0000 	add	r0, pc, r0
    ad34:	ebfff962 	bl	0x92c4
    ad38:	e1a01004 	mov	r1, r4
    ad3c:	e59f0168 	ldr	r0, [pc, #360]	; 0xaeac
    ad40:	e08f0000 	add	r0, pc, r0
    ad44:	ebfff95e 	bl	0x92c4
    ad48:	e59f1160 	ldr	r1, [pc, #352]	; 0xaeb0
    ad4c:	e59f0160 	ldr	r0, [pc, #352]	; 0xaeb4
    ad50:	e08f0000 	add	r0, pc, r0
    ad54:	ebfff95a 	bl	0x92c4
    ad58:	e3a01401 	mov	r1, #16777216	; 0x1000000
    ad5c:	e59f0154 	ldr	r0, [pc, #340]	; 0xaeb8
    ad60:	e08f0000 	add	r0, pc, r0
    ad64:	ebfff956 	bl	0x92c4
    ad68:	e59f114c 	ldr	r1, [pc, #332]	; 0xaebc
    ad6c:	e59f014c 	ldr	r0, [pc, #332]	; 0xaec0
    ad70:	e08f0000 	add	r0, pc, r0
    ad74:	ebfff952 	bl	0x92c4
    ad78:	e59f1144 	ldr	r1, [pc, #324]	; 0xaec4
    ad7c:	e59f0144 	ldr	r0, [pc, #324]	; 0xaec8
    ad80:	e08f0000 	add	r0, pc, r0
    ad84:	ebfff94e 	bl	0x92c4
    ad88:	e59f113c 	ldr	r1, [pc, #316]	; 0xaecc
    ad8c:	e59f013c 	ldr	r0, [pc, #316]	; 0xaed0
    ad90:	e08f0000 	add	r0, pc, r0
    ad94:	ebfff94a 	bl	0x92c4
    ad98:	e59f1134 	ldr	r1, [pc, #308]	; 0xaed4
    ad9c:	e59f0134 	ldr	r0, [pc, #308]	; 0xaed8
    ada0:	e08f0000 	add	r0, pc, r0
    ada4:	ebfff946 	bl	0x92c4
    ada8:	e59f112c 	ldr	r1, [pc, #300]	; 0xaedc
    adac:	e59f012c 	ldr	r0, [pc, #300]	; 0xaee0
    adb0:	e08f0000 	add	r0, pc, r0
    adb4:	ebfff942 	bl	0x92c4
    adb8:	e3081888 	movw	r1, #34952	; 0x8888
    adbc:	e59f0120 	ldr	r0, [pc, #288]	; 0xaee4
    adc0:	e08f0000 	add	r0, pc, r0
    adc4:	ebfff93e 	bl	0x92c4
    adc8:	e59f1118 	ldr	r1, [pc, #280]	; 0xaee8
    adcc:	e59f0118 	ldr	r0, [pc, #280]	; 0xaeec
    add0:	e08f0000 	add	r0, pc, r0
    add4:	ebfff93a 	bl	0x92c4
    add8:	e3a01000 	mov	r1, #0
    addc:	e59f010c 	ldr	r0, [pc, #268]	; 0xaef0
    ade0:	e08f0000 	add	r0, pc, r0
    ade4:	ebfff936 	bl	0x92c4
    ade8:	e3a01000 	mov	r1, #0
    adec:	e59f0100 	ldr	r0, [pc, #256]	; 0xaef4
    adf0:	e08f0000 	add	r0, pc, r0
    adf4:	ebfff932 	bl	0x92c4
    adf8:	e59f10f8 	ldr	r1, [pc, #248]	; 0xaef8
    adfc:	e59f00f8 	ldr	r0, [pc, #248]	; 0xaefc
    ae00:	e08f0000 	add	r0, pc, r0
    ae04:	ebfff92e 	bl	0x92c4
    ae08:	e3a0151e 	mov	r1, #125829120	; 0x7800000
    ae0c:	e59f00ec 	ldr	r0, [pc, #236]	; 0xaf00
    ae10:	e08f0000 	add	r0, pc, r0
    ae14:	ebfff92a 	bl	0x92c4
    ae18:	e59f10e4 	ldr	r1, [pc, #228]	; 0xaf04
    ae1c:	e59f00e4 	ldr	r0, [pc, #228]	; 0xaf08
    ae20:	e08f0000 	add	r0, pc, r0
    ae24:	ebfff926 	bl	0x92c4
    ae28:	e59f10dc 	ldr	r1, [pc, #220]	; 0xaf0c
    ae2c:	e59f00dc 	ldr	r0, [pc, #220]	; 0xaf10
    ae30:	e08f0000 	add	r0, pc, r0
    ae34:	ebfff922 	bl	0x92c4
    ae38:	e59f10d4 	ldr	r1, [pc, #212]	; 0xaf14
    ae3c:	e59f00d4 	ldr	r0, [pc, #212]	; 0xaf18
    ae40:	e08f0000 	add	r0, pc, r0
    ae44:	ebfff91e 	bl	0x92c4
    ae48:	e59f10cc 	ldr	r1, [pc, #204]	; 0xaf1c
    ae4c:	e59f00cc 	ldr	r0, [pc, #204]	; 0xaf20
    ae50:	e08f0000 	add	r0, pc, r0
    ae54:	ebfff91a 	bl	0x92c4
    ae58:	e3a00005 	mov	r0, #5
    ae5c:	ebffff4c 	bl	0xab94
    ae60:	e1a01000 	mov	r1, r0
    ae64:	e59f00b8 	ldr	r0, [pc, #184]	; 0xaf24
    ae68:	e08f0000 	add	r0, pc, r0
    ae6c:	ebfff914 	bl	0x92c4
    ae70:	e59f10b0 	ldr	r1, [pc, #176]	; 0xaf28
    ae74:	e59f00b0 	ldr	r0, [pc, #176]	; 0xaf2c
    ae78:	e08f0000 	add	r0, pc, r0
    ae7c:	ebfff910 	bl	0x92c4
    ae80:	e59f00a8 	ldr	r0, [pc, #168]	; 0xaf30
    ae84:	e3a0103f 	mov	r1, #63	; 0x3f
    ae88:	e08f0000 	add	r0, pc, r0
    ae8c:	e8bd4070 	pop	{r4, r5, r6, lr}
    ae90:	eafff90b 	b	0x92c4
    ae94:	00001621 	andeq	r1, r0, r1, lsr #12
    ae98:	000061af 	andeq	r6, r0, pc, lsr #3
    ae9c:	aa00aa00 	bge	0x356a4
    aea0:	00025052 	andeq	r5, r2, r2, asr r0
    aea4:	000061a0 	andeq	r6, r0, r0, lsr #3
    aea8:	0000619b 	muleq	r0, fp, r1
    aeac:	00006199 	muleq	r0, r9, r1
    aeb0:	44584493 	ldrbmi	r4, [r8], #-1171	; 0x493
    aeb4:	00006197 	muleq	r0, r7, r1
    aeb8:	00006193 	muleq	r0, r3, r1
    aebc:	f0048483 			; <UNDEFINED> instruction: 0xf0048483
    aec0:	00006193 	muleq	r0, r3, r1
    aec4:	a00632d1 	ldrdge	r3, [r6], -r1
    aec8:	0000618f 	andeq	r6, r0, pc, lsl #3
    aecc:	bf080401 	svclt	0x00080401
    aed0:	0000618d 	andeq	r6, r0, sp, lsl #3
    aed4:	01806c3f 	orreq	r6, r0, pc, lsr ip
    aed8:	0000618b 	andeq	r6, r0, fp, lsl #3
    aedc:	d1642342 	cmnle	r4, r2, asr #6
    aee0:	00006187 	andeq	r6, r0, r7, lsl #3
    aee4:	00006184 	andeq	r6, r0, r4, lsl #3
    aee8:	88888888 	stmhi	r8, {r3, r7, fp, pc}
    aeec:	00006182 	andeq	r6, r0, r2, lsl #3
    aef0:	0000617f 	andeq	r6, r0, pc, ror r1
    aef4:	00006189 	andeq	r6, r0, r9, lsl #3
    aef8:	01000510 	tsteq	r0, r0, lsl r5
    aefc:	0000618e 	andeq	r6, r0, lr, lsl #3
    af00:	0000618b 	andeq	r6, r0, fp, lsl #3
    af04:	04002600 	streq	r2, [r0], #-1536	; 0x600
    af08:	00006189 	andeq	r6, r0, r9, lsl #3
    af0c:	00c30001 	sbceq	r0, r3, r1
    af10:	00006188 	andeq	r6, r0, r8, lsl #3
    af14:	00060002 	andeq	r0, r6, r2
    af18:	00006184 	andeq	r6, r0, r4, lsl #3
    af1c:	00020003 	andeq	r0, r2, r3
    af20:	00006180 	andeq	r6, r0, r0, lsl #3
    af24:	00006174 	andeq	r6, r0, r4, ror r1
    af28:	00ff000a 	rscseq	r0, pc, sl
    af2c:	00006170 	andeq	r6, r0, r0, ror r1
    af30:	0000616d 	andeq	r6, r0, sp, ror #2
    af34:	ee192f1c 	mrc	15, 0, r2, cr9, cr12, {0}
    af38:	e3500000 	cmp	r0, #0
    af3c:	03c22001 	biceq	r2, r2, #1
    af40:	13822001 	orrne	r2, r2, #1
    af44:	ee092f1c 	mcr	15, 0, r2, cr9, cr12, {0}
    af48:	1e192f3c 	mrcne	15, 0, r2, cr9, cr12, {1}
    af4c:	e3a011fe 	mov	r1, #-2147483585	; 0x8000003f
    af50:	11822001 	orrne	r2, r2, r1
    af54:	1e092f3c 	mcrne	15, 0, r2, cr9, cr12, {1}
    af58:	e12fff1e 	bx	lr
    af5c:	ee090fbc 	mcr	15, 0, r0, cr9, cr12, {5}
    af60:	ee091f3d 	mcr	15, 0, r1, cr9, cr13, {1}
    af64:	e12fff1e 	bx	lr
    af68:	ee192f1c 	mrc	15, 0, r2, cr9, cr12, {0}
    af6c:	e3500000 	cmp	r0, #0
    af70:	03c22008 	biceq	r2, r2, #8
    af74:	13822008 	orrne	r2, r2, #8
    af78:	ee092f1c 	mcr	15, 0, r2, cr9, cr12, {0}
    af7c:	e12fff1e 	bx	lr
    af80:	ee190f1c 	mrc	15, 0, r0, cr9, cr12, {0}
    af84:	e1a001a0 	lsr	r0, r0, #3
    af88:	e2000001 	and	r0, r0, #1
    af8c:	e12fff1e 	bx	lr
    af90:	ee191f7c 	mrc	15, 0, r1, cr9, cr12, {3}
    af94:	e35000ff 	cmp	r0, #255	; 0xff
    af98:	b1a01031 	lsrlt	r1, r1, r0
    af9c:	a1a01fa1 	lsrge	r1, r1, #31
    afa0:	e2010001 	and	r0, r1, #1
    afa4:	e12fff1e 	bx	lr
    afa8:	ee191f1c 	mrc	15, 0, r1, cr9, cr12, {0}
    afac:	e3500000 	cmp	r0, #0
    afb0:	03811002 	orreq	r1, r1, #2
    afb4:	13811004 	orrne	r1, r1, #4
    afb8:	ee091f1c 	mcr	15, 0, r1, cr9, cr12, {0}
    afbc:	e12fff1e 	bx	lr
    afc0:	e35000ff 	cmp	r0, #255	; 0xff
    afc4:	1e090fbc 	mcrne	15, 0, r0, cr9, cr12, {5}
    afc8:	1e190f5d 	mrcne	15, 0, r0, cr9, cr13, {2}
    afcc:	0e190f1d 	mrceq	15, 0, r0, cr9, cr13, {0}
    afd0:	e12fff1e 	bx	lr
    afd4:	e35000ff 	cmp	r0, #255	; 0xff
    afd8:	1e090fbc 	mcrne	15, 0, r0, cr9, cr12, {5}
    afdc:	1e091f5d 	mcrne	15, 0, r1, cr9, cr13, {2}
    afe0:	0e091f1d 	mcreq	15, 0, r1, cr9, cr13, {0}
    afe4:	e12fff1e 	bx	lr
    afe8:	e2512001 	subs	r2, r1, #1
    afec:	012fff1e 	bxeq	lr
    aff0:	3a000023 	bcc	0xb084
    aff4:	e1500001 	cmp	r0, r1
    aff8:	9a00001a 	bls	0xb068
    affc:	e1110002 	tst	r1, r2
    b000:	0a00001b 	beq	0xb074
    b004:	e16f3f11 	clz	r3, r1
    b008:	e16f2f10 	clz	r2, r0
    b00c:	e0432002 	sub	r2, r3, r2
    b010:	e3a03001 	mov	r3, #1
    b014:	e1a01211 	lsl	r1, r1, r2
    b018:	e1a03213 	lsl	r3, r3, r2
    b01c:	e3a02000 	mov	r2, #0
    b020:	e1500001 	cmp	r0, r1
    b024:	20400001 	subcs	r0, r0, r1
    b028:	21822003 	orrcs	r2, r2, r3
    b02c:	e15000a1 	cmp	r0, r1, lsr #1
    b030:	204000a1 	subcs	r0, r0, r1, lsr #1
    b034:	218220a3 	orrcs	r2, r2, r3, lsr #1
    b038:	e1500121 	cmp	r0, r1, lsr #2
    b03c:	20400121 	subcs	r0, r0, r1, lsr #2
    b040:	21822123 	orrcs	r2, r2, r3, lsr #2
    b044:	e15001a1 	cmp	r0, r1, lsr #3
    b048:	204001a1 	subcs	r0, r0, r1, lsr #3
    b04c:	218221a3 	orrcs	r2, r2, r3, lsr #3
    b050:	e3500000 	cmp	r0, #0
    b054:	11b03223 	lsrsne	r3, r3, #4
    b058:	11a01221 	lsrne	r1, r1, #4
    b05c:	1affffef 	bne	0xb020
    b060:	e1a00002 	mov	r0, r2
    b064:	e12fff1e 	bx	lr
    b068:	03a00001 	moveq	r0, #1
    b06c:	13a00000 	movne	r0, #0
    b070:	e12fff1e 	bx	lr
    b074:	e16f2f11 	clz	r2, r1
    b078:	e262201f 	rsb	r2, r2, #31
    b07c:	e1a00230 	lsr	r0, r0, r2
    b080:	e12fff1e 	bx	lr
    b084:	e52de008 	str	lr, [sp, #-8]!
    b088:	eb000007 	bl	0xb0ac
    b08c:	e3a00000 	mov	r0, #0
    b090:	e49df008 	ldr	pc, [sp], #8
    b094:	e92d4003 	push	{r0, r1, lr}
    b098:	ebffffd2 	bl	0xafe8
    b09c:	e8bd4006 	pop	{r1, r2, lr}
    b0a0:	e0030092 	mul	r3, r2, r0
    b0a4:	e0411003 	sub	r1, r1, r3
    b0a8:	e12fff1e 	bx	lr
    b0ac:	e12fff1e 	bx	lr
    b0b0:	e2211102 	eor	r1, r1, #-2147483648	; 0x80000000
    b0b4:	ea000000 	b	0xb0bc
    b0b8:	e2233102 	eor	r3, r3, #-2147483648	; 0x80000000
    b0bc:	e92d4030 	push	{r4, r5, lr}
    b0c0:	e1a04081 	lsl	r4, r1, #1
    b0c4:	e1a05083 	lsl	r5, r3, #1
    b0c8:	e1340005 	teq	r4, r5
    b0cc:	01300002 	teqeq	r0, r2
    b0d0:	1194c000 	orrsne	ip, r4, r0
    b0d4:	1195c002 	orrsne	ip, r5, r2
    b0d8:	11f0cac4 	mvnsne	ip, r4, asr #21
    b0dc:	11f0cac5 	mvnsne	ip, r5, asr #21
    b0e0:	0a000079 	beq	0xb2cc
    b0e4:	e1a04aa4 	lsr	r4, r4, #21
    b0e8:	e0745aa5 	rsbs	r5, r4, r5, lsr #21
    b0ec:	b2655000 	rsblt	r5, r5, #0
    b0f0:	da000006 	ble	0xb110
    b0f4:	e0844005 	add	r4, r4, r5
    b0f8:	e0202002 	eor	r2, r0, r2
    b0fc:	e0213003 	eor	r3, r1, r3
    b100:	e0220000 	eor	r0, r2, r0
    b104:	e0231001 	eor	r1, r3, r1
    b108:	e0202002 	eor	r2, r0, r2
    b10c:	e0213003 	eor	r3, r1, r3
    b110:	e3550036 	cmp	r5, #54	; 0x36
    b114:	88bd8030 	pophi	{r4, r5, pc}
    b118:	e3110102 	tst	r1, #-2147483648	; 0x80000000
    b11c:	e1a01601 	lsl	r1, r1, #12
    b120:	e3a0c601 	mov	ip, #1048576	; 0x100000
    b124:	e18c1621 	orr	r1, ip, r1, lsr #12
    b128:	0a000001 	beq	0xb134
    b12c:	e2700000 	rsbs	r0, r0, #0
    b130:	e2e11000 	rsc	r1, r1, #0
    b134:	e3130102 	tst	r3, #-2147483648	; 0x80000000
    b138:	e1a03603 	lsl	r3, r3, #12
    b13c:	e18c3623 	orr	r3, ip, r3, lsr #12
    b140:	0a000001 	beq	0xb14c
    b144:	e2722000 	rsbs	r2, r2, #0
    b148:	e2e33000 	rsc	r3, r3, #0
    b14c:	e1340005 	teq	r4, r5
    b150:	0a000057 	beq	0xb2b4
    b154:	e2444001 	sub	r4, r4, #1
    b158:	e275e020 	rsbs	lr, r5, #32
    b15c:	ba000005 	blt	0xb178
    b160:	e1a0ce12 	lsl	ip, r2, lr
    b164:	e0900532 	adds	r0, r0, r2, lsr r5
    b168:	e2a11000 	adc	r1, r1, #0
    b16c:	e0900e13 	adds	r0, r0, r3, lsl lr
    b170:	e0b11553 	adcs	r1, r1, r3, asr r5
    b174:	ea000006 	b	0xb194
    b178:	e2455020 	sub	r5, r5, #32
    b17c:	e28ee020 	add	lr, lr, #32
    b180:	e3520001 	cmp	r2, #1
    b184:	e1a0ce13 	lsl	ip, r3, lr
    b188:	238cc002 	orrcs	ip, ip, #2
    b18c:	e0900553 	adds	r0, r0, r3, asr r5
    b190:	e0b11fc3 	adcs	r1, r1, r3, asr #31
    b194:	e2015102 	and	r5, r1, #-2147483648	; 0x80000000
    b198:	5a000002 	bpl	0xb1a8
    b19c:	e27cc000 	rsbs	ip, ip, #0
    b1a0:	e2f00000 	rscs	r0, r0, #0
    b1a4:	e2e11000 	rsc	r1, r1, #0
    b1a8:	e3510601 	cmp	r1, #1048576	; 0x100000
    b1ac:	3a00000e 	bcc	0xb1ec
    b1b0:	e3510602 	cmp	r1, #2097152	; 0x200000
    b1b4:	3a000006 	bcc	0xb1d4
    b1b8:	e1b010a1 	lsrs	r1, r1, #1
    b1bc:	e1b00060 	rrxs	r0, r0
    b1c0:	e1a0c06c 	rrx	ip, ip
    b1c4:	e2844001 	add	r4, r4, #1
    b1c8:	e1a02a84 	lsl	r2, r4, #21
    b1cc:	e3720501 	cmn	r2, #4194304	; 0x400000
    b1d0:	2a000055 	bcs	0xb32c
    b1d4:	e35c0102 	cmp	ip, #-2147483648	; 0x80000000
    b1d8:	01b0c0a0 	lsrseq	ip, r0, #1
    b1dc:	e2b00000 	adcs	r0, r0, #0
    b1e0:	e0a11a04 	adc	r1, r1, r4, lsl #20
    b1e4:	e1811005 	orr	r1, r1, r5
    b1e8:	e8bd8030 	pop	{r4, r5, pc}
    b1ec:	e1b0c08c 	lsls	ip, ip, #1
    b1f0:	e0b00000 	adcs	r0, r0, r0
    b1f4:	e0a11001 	adc	r1, r1, r1
    b1f8:	e3110601 	tst	r1, #1048576	; 0x100000
    b1fc:	e2444001 	sub	r4, r4, #1
    b200:	1afffff3 	bne	0xb1d4
    b204:	e3310000 	teq	r1, #0
    b208:	01a01000 	moveq	r1, r0
    b20c:	03a00000 	moveq	r0, #0
    b210:	e16f3f11 	clz	r3, r1
    b214:	02833020 	addeq	r3, r3, #32
    b218:	e243300b 	sub	r3, r3, #11
    b21c:	e2532020 	subs	r2, r3, #32
    b220:	aa000007 	bge	0xb244
    b224:	e292200c 	adds	r2, r2, #12
    b228:	da000004 	ble	0xb240
    b22c:	e282c014 	add	ip, r2, #20
    b230:	e262200c 	rsb	r2, r2, #12
    b234:	e1a00c11 	lsl	r0, r1, ip
    b238:	e1a01231 	lsr	r1, r1, r2
    b23c:	ea000004 	b	0xb254
    b240:	e2822014 	add	r2, r2, #20
    b244:	d262c020 	rsble	ip, r2, #32
    b248:	e1a01211 	lsl	r1, r1, r2
    b24c:	d1811c30 	orrle	r1, r1, r0, lsr ip
    b250:	d1a00210 	lslle	r0, r0, r2
    b254:	e0544003 	subs	r4, r4, r3
    b258:	a0811a04 	addge	r1, r1, r4, lsl #20
    b25c:	a1811005 	orrge	r1, r1, r5
    b260:	a8bd8030 	popge	{r4, r5, pc}
    b264:	e1e04004 	mvn	r4, r4
    b268:	e254401f 	subs	r4, r4, #31
    b26c:	aa00000d 	bge	0xb2a8
    b270:	e294400c 	adds	r4, r4, #12
    b274:	ca000005 	bgt	0xb290
    b278:	e2844014 	add	r4, r4, #20
    b27c:	e2642020 	rsb	r2, r4, #32
    b280:	e1a00430 	lsr	r0, r0, r4
    b284:	e1800211 	orr	r0, r0, r1, lsl r2
    b288:	e1851431 	orr	r1, r5, r1, lsr r4
    b28c:	e8bd8030 	pop	{r4, r5, pc}
    b290:	e264400c 	rsb	r4, r4, #12
    b294:	e2642020 	rsb	r2, r4, #32
    b298:	e1a00230 	lsr	r0, r0, r2
    b29c:	e1800411 	orr	r0, r0, r1, lsl r4
    b2a0:	e1a01005 	mov	r1, r5
    b2a4:	e8bd8030 	pop	{r4, r5, pc}
    b2a8:	e1a00431 	lsr	r0, r1, r4
    b2ac:	e1a01005 	mov	r1, r5
    b2b0:	e8bd8030 	pop	{r4, r5, pc}
    b2b4:	e3340000 	teq	r4, #0
    b2b8:	e2233601 	eor	r3, r3, #1048576	; 0x100000
    b2bc:	02211601 	eoreq	r1, r1, #1048576	; 0x100000
    b2c0:	02844001 	addeq	r4, r4, #1
    b2c4:	12455001 	subne	r5, r5, #1
    b2c8:	eaffffa1 	b	0xb154
    b2cc:	e1f0cac4 	mvns	ip, r4, asr #21
    b2d0:	11f0cac5 	mvnsne	ip, r5, asr #21
    b2d4:	0a000018 	beq	0xb33c
    b2d8:	e1340005 	teq	r4, r5
    b2dc:	01300002 	teqeq	r0, r2
    b2e0:	0a000003 	beq	0xb2f4
    b2e4:	e194c000 	orrs	ip, r4, r0
    b2e8:	01a01003 	moveq	r1, r3
    b2ec:	01a00002 	moveq	r0, r2
    b2f0:	e8bd8030 	pop	{r4, r5, pc}
    b2f4:	e1310003 	teq	r1, r3
    b2f8:	13a01000 	movne	r1, #0
    b2fc:	13a00000 	movne	r0, #0
    b300:	18bd8030 	popne	{r4, r5, pc}
    b304:	e1b0caa4 	lsrs	ip, r4, #21
    b308:	1a000003 	bne	0xb31c
    b30c:	e1b00080 	lsls	r0, r0, #1
    b310:	e0b11001 	adcs	r1, r1, r1
    b314:	23811102 	orrcs	r1, r1, #-2147483648	; 0x80000000
    b318:	e8bd8030 	pop	{r4, r5, pc}
    b31c:	e2944501 	adds	r4, r4, #4194304	; 0x400000
    b320:	32811601 	addcc	r1, r1, #1048576	; 0x100000
    b324:	38bd8030 	popcc	{r4, r5, pc}
    b328:	e2015102 	and	r5, r1, #-2147483648	; 0x80000000
    b32c:	e385147f 	orr	r1, r5, #2130706432	; 0x7f000000
    b330:	e381160f 	orr	r1, r1, #15728640	; 0xf00000
    b334:	e3a00000 	mov	r0, #0
    b338:	e8bd8030 	pop	{r4, r5, pc}
    b33c:	e1f0cac4 	mvns	ip, r4, asr #21
    b340:	11a01003 	movne	r1, r3
    b344:	11a00002 	movne	r0, r2
    b348:	01f0cac5 	mvnseq	ip, r5, asr #21
    b34c:	11a03001 	movne	r3, r1
    b350:	11a02000 	movne	r2, r0
    b354:	e1904601 	orrs	r4, r0, r1, lsl #12
    b358:	01925603 	orrseq	r5, r2, r3, lsl #12
    b35c:	01310003 	teqeq	r1, r3
    b360:	13811702 	orrne	r1, r1, #524288	; 0x80000
    b364:	e8bd8030 	pop	{r4, r5, pc}
    b368:	e3300000 	teq	r0, #0
    b36c:	03a01000 	moveq	r1, #0
    b370:	012fff1e 	bxeq	lr
    b374:	e92d4030 	push	{r4, r5, lr}
    b378:	e3a04b01 	mov	r4, #1024	; 0x400
    b37c:	e2844032 	add	r4, r4, #50	; 0x32
    b380:	e3a05000 	mov	r5, #0
    b384:	e3a01000 	mov	r1, #0
    b388:	eaffff9d 	b	0xb204
    b38c:	e3300000 	teq	r0, #0
    b390:	03a01000 	moveq	r1, #0
    b394:	012fff1e 	bxeq	lr
    b398:	e92d4030 	push	{r4, r5, lr}
    b39c:	e3a04b01 	mov	r4, #1024	; 0x400
    b3a0:	e2844032 	add	r4, r4, #50	; 0x32
    b3a4:	e2105102 	ands	r5, r0, #-2147483648	; 0x80000000
    b3a8:	42600000 	rsbmi	r0, r0, #0
    b3ac:	e3a01000 	mov	r1, #0
    b3b0:	eaffff93 	b	0xb204
    b3b4:	e1b02080 	lsls	r2, r0, #1
    b3b8:	e1a011c2 	asr	r1, r2, #3
    b3bc:	e1a01061 	rrx	r1, r1
    b3c0:	e1a00e02 	lsl	r0, r2, #28
    b3c4:	121234ff 	andsne	r3, r2, #-16777216	; 0xff000000
    b3c8:	133304ff 	teqne	r3, #-16777216	; 0xff000000
    b3cc:	1221130e 	eorne	r1, r1, #939524096	; 0x38000000
    b3d0:	112fff1e 	bxne	lr
    b3d4:	e3320000 	teq	r2, #0
    b3d8:	133304ff 	teqne	r3, #-16777216	; 0xff000000
    b3dc:	012fff1e 	bxeq	lr
    b3e0:	e92d4030 	push	{r4, r5, lr}
    b3e4:	e3a04d0e 	mov	r4, #896	; 0x380
    b3e8:	e2015102 	and	r5, r1, #-2147483648	; 0x80000000
    b3ec:	e3c11102 	bic	r1, r1, #-2147483648	; 0x80000000
    b3f0:	eaffff83 	b	0xb204
    b3f4:	e1902001 	orrs	r2, r0, r1
    b3f8:	012fff1e 	bxeq	lr
    b3fc:	e92d4030 	push	{r4, r5, lr}
    b400:	e3a05000 	mov	r5, #0
    b404:	ea000006 	b	0xb424
    b408:	e1902001 	orrs	r2, r0, r1
    b40c:	012fff1e 	bxeq	lr
    b410:	e92d4030 	push	{r4, r5, lr}
    b414:	e2115102 	ands	r5, r1, #-2147483648	; 0x80000000
    b418:	5a000001 	bpl	0xb424
    b41c:	e2700000 	rsbs	r0, r0, #0
    b420:	e2e11000 	rsc	r1, r1, #0
    b424:	e3a04b01 	mov	r4, #1024	; 0x400
    b428:	e2844032 	add	r4, r4, #50	; 0x32
    b42c:	e1b0cb21 	lsrs	ip, r1, #22
    b430:	0affff5c 	beq	0xb1a8
    b434:	e3a02003 	mov	r2, #3
    b438:	e1b0c1ac 	lsrs	ip, ip, #3
    b43c:	12822003 	addne	r2, r2, #3
    b440:	e1b0c1ac 	lsrs	ip, ip, #3
    b444:	12822003 	addne	r2, r2, #3
    b448:	e08221ac 	add	r2, r2, ip, lsr #3
    b44c:	e2623020 	rsb	r3, r2, #32
    b450:	e1a0c310 	lsl	ip, r0, r3
    b454:	e1a00230 	lsr	r0, r0, r2
    b458:	e1800311 	orr	r0, r0, r1, lsl r3
    b45c:	e1a01231 	lsr	r1, r1, r2
    b460:	e0844002 	add	r4, r4, r2
    b464:	eaffff4f 	b	0xb1a8
    b468:	e92d4070 	push	{r4, r5, r6, lr}
    b46c:	e3a0c0ff 	mov	ip, #255	; 0xff
    b470:	e38ccc07 	orr	ip, ip, #1792	; 0x700
    b474:	e01c4a21 	ands	r4, ip, r1, lsr #20
    b478:	101c5a23 	andsne	r5, ip, r3, lsr #20
    b47c:	1134000c 	teqne	r4, ip
    b480:	1135000c 	teqne	r5, ip
    b484:	0b00006f 	bleq	0xb648
    b488:	e0844005 	add	r4, r4, r5
    b48c:	e0216003 	eor	r6, r1, r3
    b490:	e1c11a8c 	bic	r1, r1, ip, lsl #21
    b494:	e1c33a8c 	bic	r3, r3, ip, lsl #21
    b498:	e1905601 	orrs	r5, r0, r1, lsl #12
    b49c:	11925603 	orrsne	r5, r2, r3, lsl #12
    b4a0:	e3811601 	orr	r1, r1, #1048576	; 0x100000
    b4a4:	e3833601 	orr	r3, r3, #1048576	; 0x100000
    b4a8:	0a00001c 	beq	0xb520
    b4ac:	e08ec290 	umull	ip, lr, r0, r2
    b4b0:	e3a05000 	mov	r5, #0
    b4b4:	e0a5e291 	umlal	lr, r5, r1, r2
    b4b8:	e2062102 	and	r2, r6, #-2147483648	; 0x80000000
    b4bc:	e0a5e390 	umlal	lr, r5, r0, r3
    b4c0:	e3a06000 	mov	r6, #0
    b4c4:	e0a65391 	umlal	r5, r6, r1, r3
    b4c8:	e33c0000 	teq	ip, #0
    b4cc:	138ee001 	orrne	lr, lr, #1
    b4d0:	e24440ff 	sub	r4, r4, #255	; 0xff
    b4d4:	e3560c02 	cmp	r6, #512	; 0x200
    b4d8:	e2c44c03 	sbc	r4, r4, #768	; 0x300
    b4dc:	2a000002 	bcs	0xb4ec
    b4e0:	e1b0e08e 	lsls	lr, lr, #1
    b4e4:	e0b55005 	adcs	r5, r5, r5
    b4e8:	e0a66006 	adc	r6, r6, r6
    b4ec:	e1821586 	orr	r1, r2, r6, lsl #11
    b4f0:	e1811aa5 	orr	r1, r1, r5, lsr #21
    b4f4:	e1a00585 	lsl	r0, r5, #11
    b4f8:	e1800aae 	orr	r0, r0, lr, lsr #21
    b4fc:	e1a0e58e 	lsl	lr, lr, #11
    b500:	e254c0fd 	subs	ip, r4, #253	; 0xfd
    b504:	835c0c07 	cmphi	ip, #1792	; 0x700
    b508:	8a00000f 	bhi	0xb54c
    b50c:	e35e0102 	cmp	lr, #-2147483648	; 0x80000000
    b510:	01b0e0a0 	lsrseq	lr, r0, #1
    b514:	e2b00000 	adcs	r0, r0, #0
    b518:	e0a11a04 	adc	r1, r1, r4, lsl #20
    b51c:	e8bd8070 	pop	{r4, r5, r6, pc}
    b520:	e2066102 	and	r6, r6, #-2147483648	; 0x80000000
    b524:	e1861001 	orr	r1, r6, r1
    b528:	e1800002 	orr	r0, r0, r2
    b52c:	e0211003 	eor	r1, r1, r3
    b530:	e05440ac 	subs	r4, r4, ip, lsr #1
    b534:	c074500c 	rsbsgt	r5, r4, ip
    b538:	c1811a04 	orrgt	r1, r1, r4, lsl #20
    b53c:	c8bd8070 	popgt	{r4, r5, r6, pc}
    b540:	e3811601 	orr	r1, r1, #1048576	; 0x100000
    b544:	e3a0e000 	mov	lr, #0
    b548:	e2544001 	subs	r4, r4, #1
    b54c:	ca000058 	bgt	0xb6b4
    b550:	e3740036 	cmn	r4, #54	; 0x36
    b554:	d3a00000 	movle	r0, #0
    b558:	d2011102 	andle	r1, r1, #-2147483648	; 0x80000000
    b55c:	d8bd8070 	pople	{r4, r5, r6, pc}
    b560:	e2644000 	rsb	r4, r4, #0
    b564:	e2544020 	subs	r4, r4, #32
    b568:	aa000018 	bge	0xb5d0
    b56c:	e294400c 	adds	r4, r4, #12
    b570:	ca00000b 	bgt	0xb5a4
    b574:	e2844014 	add	r4, r4, #20
    b578:	e2645020 	rsb	r5, r4, #32
    b57c:	e1a03510 	lsl	r3, r0, r5
    b580:	e1a00430 	lsr	r0, r0, r4
    b584:	e1800511 	orr	r0, r0, r1, lsl r5
    b588:	e2012102 	and	r2, r1, #-2147483648	; 0x80000000
    b58c:	e3c11102 	bic	r1, r1, #-2147483648	; 0x80000000
    b590:	e0900fa3 	adds	r0, r0, r3, lsr #31
    b594:	e0a21431 	adc	r1, r2, r1, lsr r4
    b598:	e19ee083 	orrs	lr, lr, r3, lsl #1
    b59c:	01c00fa3 	biceq	r0, r0, r3, lsr #31
    b5a0:	e8bd8070 	pop	{r4, r5, r6, pc}
    b5a4:	e264400c 	rsb	r4, r4, #12
    b5a8:	e2645020 	rsb	r5, r4, #32
    b5ac:	e1a03410 	lsl	r3, r0, r4
    b5b0:	e1a00530 	lsr	r0, r0, r5
    b5b4:	e1800411 	orr	r0, r0, r1, lsl r4
    b5b8:	e2011102 	and	r1, r1, #-2147483648	; 0x80000000
    b5bc:	e0900fa3 	adds	r0, r0, r3, lsr #31
    b5c0:	e2a11000 	adc	r1, r1, #0
    b5c4:	e19ee083 	orrs	lr, lr, r3, lsl #1
    b5c8:	01c00fa3 	biceq	r0, r0, r3, lsr #31
    b5cc:	e8bd8070 	pop	{r4, r5, r6, pc}
    b5d0:	e2645020 	rsb	r5, r4, #32
    b5d4:	e18ee510 	orr	lr, lr, r0, lsl r5
    b5d8:	e1a03430 	lsr	r3, r0, r4
    b5dc:	e1833511 	orr	r3, r3, r1, lsl r5
    b5e0:	e1a00431 	lsr	r0, r1, r4
    b5e4:	e2011102 	and	r1, r1, #-2147483648	; 0x80000000
    b5e8:	e1c00431 	bic	r0, r0, r1, lsr r4
    b5ec:	e0800fa3 	add	r0, r0, r3, lsr #31
    b5f0:	e19ee083 	orrs	lr, lr, r3, lsl #1
    b5f4:	01c00fa3 	biceq	r0, r0, r3, lsr #31
    b5f8:	e8bd8070 	pop	{r4, r5, r6, pc}
    b5fc:	e3340000 	teq	r4, #0
    b600:	1a000008 	bne	0xb628
    b604:	e2016102 	and	r6, r1, #-2147483648	; 0x80000000
    b608:	e1b00080 	lsls	r0, r0, #1
    b60c:	e0a11001 	adc	r1, r1, r1
    b610:	e3110601 	tst	r1, #1048576	; 0x100000
    b614:	02444001 	subeq	r4, r4, #1
    b618:	0afffffa 	beq	0xb608
    b61c:	e1811006 	orr	r1, r1, r6
    b620:	e3350000 	teq	r5, #0
    b624:	112fff1e 	bxne	lr
    b628:	e2036102 	and	r6, r3, #-2147483648	; 0x80000000
    b62c:	e1b02082 	lsls	r2, r2, #1
    b630:	e0a33003 	adc	r3, r3, r3
    b634:	e3130601 	tst	r3, #1048576	; 0x100000
    b638:	02455001 	subeq	r5, r5, #1
    b63c:	0afffffa 	beq	0xb62c
    b640:	e1833006 	orr	r3, r3, r6
    b644:	e12fff1e 	bx	lr
    b648:	e134000c 	teq	r4, ip
    b64c:	e00c5a23 	and	r5, ip, r3, lsr #20
    b650:	1135000c 	teqne	r5, ip
    b654:	0a000006 	beq	0xb674
    b658:	e1906081 	orrs	r6, r0, r1, lsl #1
    b65c:	11926083 	orrsne	r6, r2, r3, lsl #1
    b660:	1affffe5 	bne	0xb5fc
    b664:	e0211003 	eor	r1, r1, r3
    b668:	e2011102 	and	r1, r1, #-2147483648	; 0x80000000
    b66c:	e3a00000 	mov	r0, #0
    b670:	e8bd8070 	pop	{r4, r5, r6, pc}
    b674:	e1906081 	orrs	r6, r0, r1, lsl #1
    b678:	01a00002 	moveq	r0, r2
    b67c:	01a01003 	moveq	r1, r3
    b680:	11926083 	orrsne	r6, r2, r3, lsl #1
    b684:	0a00000f 	beq	0xb6c8
    b688:	e134000c 	teq	r4, ip
    b68c:	1a000001 	bne	0xb698
    b690:	e1906601 	orrs	r6, r0, r1, lsl #12
    b694:	1a00000b 	bne	0xb6c8
    b698:	e135000c 	teq	r5, ip
    b69c:	1a000003 	bne	0xb6b0
    b6a0:	e1926603 	orrs	r6, r2, r3, lsl #12
    b6a4:	11a00002 	movne	r0, r2
    b6a8:	11a01003 	movne	r1, r3
    b6ac:	1a000005 	bne	0xb6c8
    b6b0:	e0211003 	eor	r1, r1, r3
    b6b4:	e2011102 	and	r1, r1, #-2147483648	; 0x80000000
    b6b8:	e381147f 	orr	r1, r1, #2130706432	; 0x7f000000
    b6bc:	e381160f 	orr	r1, r1, #15728640	; 0xf00000
    b6c0:	e3a00000 	mov	r0, #0
    b6c4:	e8bd8070 	pop	{r4, r5, r6, pc}
    b6c8:	e381147f 	orr	r1, r1, #2130706432	; 0x7f000000
    b6cc:	e381173e 	orr	r1, r1, #16252928	; 0xf80000
    b6d0:	e8bd8070 	pop	{r4, r5, r6, pc}
    b6d4:	e92d4070 	push	{r4, r5, r6, lr}
    b6d8:	e3a0c0ff 	mov	ip, #255	; 0xff
    b6dc:	e38ccc07 	orr	ip, ip, #1792	; 0x700
    b6e0:	e01c4a21 	ands	r4, ip, r1, lsr #20
    b6e4:	101c5a23 	andsne	r5, ip, r3, lsr #20
    b6e8:	1134000c 	teqne	r4, ip
    b6ec:	1135000c 	teqne	r5, ip
    b6f0:	0b00005c 	bleq	0xb868
    b6f4:	e0444005 	sub	r4, r4, r5
    b6f8:	e021e003 	eor	lr, r1, r3
    b6fc:	e1925603 	orrs	r5, r2, r3, lsl #12
    b700:	e1a01601 	lsl	r1, r1, #12
    b704:	0a00004b 	beq	0xb838
    b708:	e1a03603 	lsl	r3, r3, #12
    b70c:	e3a05201 	mov	r5, #268435456	; 0x10000000
    b710:	e1853223 	orr	r3, r5, r3, lsr #4
    b714:	e1833c22 	orr	r3, r3, r2, lsr #24
    b718:	e1a02402 	lsl	r2, r2, #8
    b71c:	e1855221 	orr	r5, r5, r1, lsr #4
    b720:	e1855c20 	orr	r5, r5, r0, lsr #24
    b724:	e1a06400 	lsl	r6, r0, #8
    b728:	e20e1102 	and	r1, lr, #-2147483648	; 0x80000000
    b72c:	e1550003 	cmp	r5, r3
    b730:	01560002 	cmpeq	r6, r2
    b734:	e2a440fd 	adc	r4, r4, #253	; 0xfd
    b738:	e2844c03 	add	r4, r4, #768	; 0x300
    b73c:	2a000001 	bcs	0xb748
    b740:	e1b030a3 	lsrs	r3, r3, #1
    b744:	e1a02062 	rrx	r2, r2
    b748:	e0566002 	subs	r6, r6, r2
    b74c:	e0c55003 	sbc	r5, r5, r3
    b750:	e1b030a3 	lsrs	r3, r3, #1
    b754:	e1a02062 	rrx	r2, r2
    b758:	e3a00601 	mov	r0, #1048576	; 0x100000
    b75c:	e3a0c702 	mov	ip, #524288	; 0x80000
    b760:	e056e002 	subs	lr, r6, r2
    b764:	e0d5e003 	sbcs	lr, r5, r3
    b768:	20466002 	subcs	r6, r6, r2
    b76c:	21a0500e 	movcs	r5, lr
    b770:	2180000c 	orrcs	r0, r0, ip
    b774:	e1b030a3 	lsrs	r3, r3, #1
    b778:	e1a02062 	rrx	r2, r2
    b77c:	e056e002 	subs	lr, r6, r2
    b780:	e0d5e003 	sbcs	lr, r5, r3
    b784:	20466002 	subcs	r6, r6, r2
    b788:	21a0500e 	movcs	r5, lr
    b78c:	218000ac 	orrcs	r0, r0, ip, lsr #1
    b790:	e1b030a3 	lsrs	r3, r3, #1
    b794:	e1a02062 	rrx	r2, r2
    b798:	e056e002 	subs	lr, r6, r2
    b79c:	e0d5e003 	sbcs	lr, r5, r3
    b7a0:	20466002 	subcs	r6, r6, r2
    b7a4:	21a0500e 	movcs	r5, lr
    b7a8:	2180012c 	orrcs	r0, r0, ip, lsr #2
    b7ac:	e1b030a3 	lsrs	r3, r3, #1
    b7b0:	e1a02062 	rrx	r2, r2
    b7b4:	e056e002 	subs	lr, r6, r2
    b7b8:	e0d5e003 	sbcs	lr, r5, r3
    b7bc:	20466002 	subcs	r6, r6, r2
    b7c0:	21a0500e 	movcs	r5, lr
    b7c4:	218001ac 	orrcs	r0, r0, ip, lsr #3
    b7c8:	e195e006 	orrs	lr, r5, r6
    b7cc:	0a00000d 	beq	0xb808
    b7d0:	e1a05205 	lsl	r5, r5, #4
    b7d4:	e1855e26 	orr	r5, r5, r6, lsr #28
    b7d8:	e1a06206 	lsl	r6, r6, #4
    b7dc:	e1a03183 	lsl	r3, r3, #3
    b7e0:	e1833ea2 	orr	r3, r3, r2, lsr #29
    b7e4:	e1a02182 	lsl	r2, r2, #3
    b7e8:	e1b0c22c 	lsrs	ip, ip, #4
    b7ec:	1affffdb 	bne	0xb760
    b7f0:	e3110601 	tst	r1, #1048576	; 0x100000
    b7f4:	1a000006 	bne	0xb814
    b7f8:	e1811000 	orr	r1, r1, r0
    b7fc:	e3a00000 	mov	r0, #0
    b800:	e3a0c102 	mov	ip, #-2147483648	; 0x80000000
    b804:	eaffffd5 	b	0xb760
    b808:	e3110601 	tst	r1, #1048576	; 0x100000
    b80c:	01811000 	orreq	r1, r1, r0
    b810:	03a00000 	moveq	r0, #0
    b814:	e254c0fd 	subs	ip, r4, #253	; 0xfd
    b818:	835c0c07 	cmphi	ip, #1792	; 0x700
    b81c:	8affff4a 	bhi	0xb54c
    b820:	e055c003 	subs	ip, r5, r3
    b824:	0056c002 	subseq	ip, r6, r2
    b828:	01b0c0a0 	lsrseq	ip, r0, #1
    b82c:	e2b00000 	adcs	r0, r0, #0
    b830:	e0a11a04 	adc	r1, r1, r4, lsl #20
    b834:	e8bd8070 	pop	{r4, r5, r6, pc}
    b838:	e20ee102 	and	lr, lr, #-2147483648	; 0x80000000
    b83c:	e18e1621 	orr	r1, lr, r1, lsr #12
    b840:	e09440ac 	adds	r4, r4, ip, lsr #1
    b844:	c074500c 	rsbsgt	r5, r4, ip
    b848:	c1811a04 	orrgt	r1, r1, r4, lsl #20
    b84c:	c8bd8070 	popgt	{r4, r5, r6, pc}
    b850:	e3811601 	orr	r1, r1, #1048576	; 0x100000
    b854:	e3a0e000 	mov	lr, #0
    b858:	e2544001 	subs	r4, r4, #1
    b85c:	eaffff3a 	b	0xb54c
    b860:	e185e006 	orr	lr, r5, r6
    b864:	eaffff38 	b	0xb54c
    b868:	e00c5a23 	and	r5, ip, r3, lsr #20
    b86c:	e134000c 	teq	r4, ip
    b870:	0135000c 	teqeq	r5, ip
    b874:	0affff93 	beq	0xb6c8
    b878:	e134000c 	teq	r4, ip
    b87c:	1a000006 	bne	0xb89c
    b880:	e1904601 	orrs	r4, r0, r1, lsl #12
    b884:	1affff8f 	bne	0xb6c8
    b888:	e135000c 	teq	r5, ip
    b88c:	1affff87 	bne	0xb6b0
    b890:	e1a00002 	mov	r0, r2
    b894:	e1a01003 	mov	r1, r3
    b898:	eaffff8a 	b	0xb6c8
    b89c:	e135000c 	teq	r5, ip
    b8a0:	1a000004 	bne	0xb8b8
    b8a4:	e1925603 	orrs	r5, r2, r3, lsl #12
    b8a8:	0affff6d 	beq	0xb664
    b8ac:	e1a00002 	mov	r0, r2
    b8b0:	e1a01003 	mov	r1, r3
    b8b4:	eaffff83 	b	0xb6c8
    b8b8:	e1906081 	orrs	r6, r0, r1, lsl #1
    b8bc:	11926083 	orrsne	r6, r2, r3, lsl #1
    b8c0:	1affff4d 	bne	0xb5fc
    b8c4:	e1904081 	orrs	r4, r0, r1, lsl #1
    b8c8:	1affff78 	bne	0xb6b0
    b8cc:	e1925083 	orrs	r5, r2, r3, lsl #1
    b8d0:	1affff63 	bne	0xb664
    b8d4:	eaffff7b 	b	0xb6c8
    b8d8:	e3e0c000 	mvn	ip, #0
    b8dc:	ea000002 	b	0xb8ec
    b8e0:	e3a0c001 	mov	ip, #1
    b8e4:	ea000000 	b	0xb8ec
    b8e8:	e3a0c001 	mov	ip, #1
    b8ec:	e52dc004 	push	{ip}		; (str ip, [sp, #-4]!)
    b8f0:	e1a0c081 	lsl	ip, r1, #1
    b8f4:	e1f0cacc 	mvns	ip, ip, asr #21
    b8f8:	e1a0c083 	lsl	ip, r3, #1
    b8fc:	11f0cacc 	mvnsne	ip, ip, asr #21
    b900:	0a00000e 	beq	0xb940
    b904:	e28dd004 	add	sp, sp, #4
    b908:	e190c081 	orrs	ip, r0, r1, lsl #1
    b90c:	0192c083 	orrseq	ip, r2, r3, lsl #1
    b910:	11310003 	teqne	r1, r3
    b914:	01300002 	teqeq	r0, r2
    b918:	03a00000 	moveq	r0, #0
    b91c:	012fff1e 	bxeq	lr
    b920:	e3700000 	cmn	r0, #0
    b924:	e1310003 	teq	r1, r3
    b928:	51510003 	cmppl	r1, r3
    b92c:	01500002 	cmpeq	r0, r2
    b930:	21a00fc3 	asrcs	r0, r3, #31
    b934:	31e00fc3 	mvncc	r0, r3, asr #31
    b938:	e3800001 	orr	r0, r0, #1
    b93c:	e12fff1e 	bx	lr
    b940:	e1a0c081 	lsl	ip, r1, #1
    b944:	e1f0cacc 	mvns	ip, ip, asr #21
    b948:	1a000001 	bne	0xb954
    b94c:	e190c601 	orrs	ip, r0, r1, lsl #12
    b950:	1a000004 	bne	0xb968
    b954:	e1a0c083 	lsl	ip, r3, #1
    b958:	e1f0cacc 	mvns	ip, ip, asr #21
    b95c:	1affffe8 	bne	0xb904
    b960:	e192c603 	orrs	ip, r2, r3, lsl #12
    b964:	0affffe6 	beq	0xb904
    b968:	e49d0004 	pop	{r0}		; (ldr r0, [sp], #4)
    b96c:	e12fff1e 	bx	lr
    b970:	e1a0c000 	mov	ip, r0
    b974:	e1a00002 	mov	r0, r2
    b978:	e1a0200c 	mov	r2, ip
    b97c:	e1a0c001 	mov	ip, r1
    b980:	e1a01003 	mov	r1, r3
    b984:	e1a0300c 	mov	r3, ip
    b988:	eaffffff 	b	0xb98c
    b98c:	e92d4001 	push	{r0, lr}
    b990:	ebffffd4 	bl	0xb8e8
    b994:	e3500000 	cmp	r0, #0
    b998:	43700000 	cmnmi	r0, #0
    b99c:	e8bd8001 	pop	{r0, pc}
    b9a0:	e52de008 	str	lr, [sp, #-8]!
    b9a4:	ebfffff8 	bl	0xb98c
    b9a8:	03a00001 	moveq	r0, #1
    b9ac:	13a00000 	movne	r0, #0
    b9b0:	e49df008 	ldr	pc, [sp], #8
    b9b4:	e52de008 	str	lr, [sp, #-8]!
    b9b8:	ebfffff3 	bl	0xb98c
    b9bc:	33a00001 	movcc	r0, #1
    b9c0:	23a00000 	movcs	r0, #0
    b9c4:	e49df008 	ldr	pc, [sp], #8
    b9c8:	e52de008 	str	lr, [sp, #-8]!
    b9cc:	ebffffee 	bl	0xb98c
    b9d0:	93a00001 	movls	r0, #1
    b9d4:	83a00000 	movhi	r0, #0
    b9d8:	e49df008 	ldr	pc, [sp], #8
    b9dc:	e52de008 	str	lr, [sp, #-8]!
    b9e0:	ebffffe2 	bl	0xb970
    b9e4:	93a00001 	movls	r0, #1
    b9e8:	83a00000 	movhi	r0, #0
    b9ec:	e49df008 	ldr	pc, [sp], #8
    b9f0:	e52de008 	str	lr, [sp, #-8]!
    b9f4:	ebffffdd 	bl	0xb970
    b9f8:	33a00001 	movcc	r0, #1
    b9fc:	23a00000 	movcs	r0, #0
    ba00:	e49df008 	ldr	pc, [sp], #8
    ba04:	e1a02081 	lsl	r2, r1, #1
    ba08:	e2922602 	adds	r2, r2, #2097152	; 0x200000
    ba0c:	2a00000c 	bcs	0xba44
    ba10:	5a000009 	bpl	0xba3c
    ba14:	e3e03e3e 	mvn	r3, #992	; 0x3e0
    ba18:	e0532ac2 	subs	r2, r3, r2, asr #21
    ba1c:	9a00000a 	bls	0xba4c
    ba20:	e1a03581 	lsl	r3, r1, #11
    ba24:	e3833102 	orr	r3, r3, #-2147483648	; 0x80000000
    ba28:	e1833aa0 	orr	r3, r3, r0, lsr #21
    ba2c:	e3110102 	tst	r1, #-2147483648	; 0x80000000
    ba30:	e1a00233 	lsr	r0, r3, r2
    ba34:	12600000 	rsbne	r0, r0, #0
    ba38:	e12fff1e 	bx	lr
    ba3c:	e3a00000 	mov	r0, #0
    ba40:	e12fff1e 	bx	lr
    ba44:	e1900601 	orrs	r0, r0, r1, lsl #12
    ba48:	1a000002 	bne	0xba58
    ba4c:	e2110102 	ands	r0, r1, #-2147483648	; 0x80000000
    ba50:	03e00102 	mvneq	r0, #-2147483648	; 0x80000000
    ba54:	e12fff1e 	bx	lr
    ba58:	e3a00000 	mov	r0, #0
    ba5c:	e12fff1e 	bx	lr
    ba60:	10000000 	andne	r0, r0, r0
    ba64:	10000000 	andne	r0, r0, r0
    ba68:	00400000 	subeq	r0, r0, r0
    ba6c:	00000000 	andeq	r0, r0, r0
    ba70:	11000000 	mrsne	r0, (UNDEF: 0)
    ba74:	11000000 	mrsne	r0, (UNDEF: 0)
    ba78:	00100000 	andseq	r0, r0, r0
    ba7c:	00000000 	andeq	r0, r0, r0
    ba80:	10210000 	eorne	r0, r1, r0
    ba84:	10210000 	eorne	r0, r1, r0
    ba88:	00010000 	andeq	r0, r1, r0
    ba8c:	00000000 	andeq	r0, r0, r0
    ba90:	10200000 	eorne	r0, r0, r0
    ba94:	10200000 	eorne	r0, r0, r0
    ba98:	00010000 	andeq	r0, r1, r0
    ba9c:	00000000 	andeq	r0, r0, r0
    baa0:	62756f64 	rsbsvs	r6, r5, #400	; 0x190
    baa4:	662d656c 	strtvs	r6, [sp], -ip, ror #10
    baa8:	20656572 	rsbcs	r6, r5, r2, ror r5
    baac:	0a657470 	beq	0x1968c74
    bab0:	73655200 	cmnvc	r5, #0
    bab4:	65767265 	ldrbvs	r7, [r6, #-613]!	; 0x265
    bab8:	63784520 	cmnvs	r8, #134217728	; 0x8000000
    babc:	69747065 	ldmdbvs	r4!, {r0, r2, r5, r6, ip, sp, lr}^
    bac0:	66206e6f 	strtvs	r6, [r0], -pc, ror #28
    bac4:	206d6f72 	rsbcs	r6, sp, r2, ror pc
    bac8:	72646461 	rsbvc	r6, r4, #1627389952	; 0x61000000
    bacc:	20737365 	rsbscs	r7, r3, r5, ror #6
    bad0:	0d0a7825 	stceq	8, cr7, [sl, #-148]	; 0xffffff6c
    bad4:	72615400 	rsbvc	r5, r1, #0
    bad8:	20746567 	rsbscs	r6, r4, r7, ror #10
    badc:	64616564 	strbtvs	r6, [r1], #-1380	; 0x564
    bae0:	000d0a21 	andeq	r0, sp, r1, lsr #20
    bae4:	61746144 	cmnvs	r4, r4, asr #2
    bae8:	6f626120 	svcvs	0x00626120
    baec:	66207472 			; <UNDEFINED> instruction: 0x66207472
    baf0:	206d6f72 	rsbcs	r6, sp, r2, ror pc
    baf4:	72646461 	rsbvc	r6, r4, #1627389952	; 0x61000000
    baf8:	20737365 	rsbscs	r7, r3, r5, ror #6
    bafc:	0d0a7825 	stceq	8, cr7, [sl, #-148]	; 0xffffff6c
    bb00:	65725000 	ldrbvs	r5, [r2, #-0]!
    bb04:	63746566 	cmnvs	r4, #427819008	; 0x19800000
    bb08:	62612068 	rsbvs	r2, r1, #104	; 0x68
    bb0c:	2074726f 	rsbscs	r7, r4, pc, ror #4
    bb10:	6d6f7266 	sfmvs	f7, 2, [pc, #-408]!	; 0xb980
    bb14:	64646120 	strbtvs	r6, [r4], #-288	; 0x120
    bb18:	73736572 	cmnvc	r3, #478150656	; 0x1c800000
    bb1c:	25783020 	ldrbcs	r3, [r8, #-32]!
    bb20:	000d0a78 	andeq	r0, sp, r8, ror sl
    bb24:	65646e55 	strbvs	r6, [r4, #-3669]!	; 0xe55
    bb28:	656e6966 	strbvs	r6, [lr, #-2406]!	; 0x966
    bb2c:	62612064 	rsbvs	r2, r1, #100	; 0x64
    bb30:	2074726f 	rsbscs	r7, r4, pc, ror #4
    bb34:	6d6f7266 	sfmvs	f7, 2, [pc, #-408]!	; 0xb9a4
    bb38:	64646120 	strbtvs	r6, [r4], #-288	; 0x120
    bb3c:	73736572 	cmnvc	r3, #478150656	; 0x1c800000
    bb40:	25783020 	ldrbcs	r3, [r8, #-32]!
    bb44:	000d0a78 	andeq	r0, sp, r8, ror sl
    bb48:	67726154 			; <UNDEFINED> instruction: 0x67726154
    bb4c:	64207465 	strtvs	r7, [r0], #-1125	; 0x465
    bb50:	21646165 	cmncs	r4, r5, ror #2
    bb54:	5b000a0a 	blpl	0xe384
    bb58:	4f525245 	svcmi	0x00525245
    bb5c:	52205d52 	eorpl	r5, r0, #5248	; 0x1480
    bb60:	73696765 	cmnvc	r9, #26476544	; 0x1940000
    bb64:	20726574 	rsbscs	r6, r2, r4, ror r5
    bb68:	65637845 	strbvs	r7, [r3, #-2117]!	; 0x845
    bb6c:	6f697470 	svcvs	0x00697470
    bb70:	6553206e 	ldrbvs	r2, [r3, #-110]	; 0x6e
    bb74:	63766972 	cmnvs	r6, #1867776	; 0x1c8000
    bb78:	6f522065 	svcvs	0x00522065
    bb7c:	6e697475 	mcrvs	4, 3, r7, cr9, cr5, {3}
    bb80:	202d2067 	eorcs	r2, sp, r7, rrx
    bb84:	61766e69 	cmnvs	r6, r9, ror #28
    bb88:	6564696c 	strbvs	r6, [r4, #-2412]!	; 0x96c
    bb8c:	63786520 	cmnvs	r8, #134217728	; 0x8000000
    bb90:	69747065 	ldmdbvs	r4!, {r0, r2, r5, r6, ip, sp, lr}^
    bb94:	74206e6f 	strtvc	r6, [r0], #-3695	; 0xe6f
    bb98:	20657079 	rsbcs	r7, r5, r9, ror r0
    bb9c:	0d0a6425 	cfstrseq	mvf6, [sl, #-148]	; 0xffffff6c
    bba0:	72724500 	rsbsvc	r4, r2, #0
    bba4:	202e726f 	eorcs	r7, lr, pc, ror #4
    bba8:	61766e49 	cmnvs	r6, r9, asr #28
    bbac:	6164696c 	cmnvs	r4, ip, ror #18
    bbb0:	49206574 	stmdbmi	r0!, {r2, r4, r5, r6, r8, sl, sp, lr}
    bbb4:	6e205152 	mcrvs	1, 1, r5, cr0, cr2, {2}
    bbb8:	65626d75 	strbvs	r6, [r2, #-3445]!	; 0xd75
    bbbc:	3d002e72 	stccc	14, cr2, [r0, #-456]	; 0xfffffe38
    bbc0:	3d3d3d3d 	ldccc	13, cr3, [sp, #-244]!	; 0xffffff0c
    bbc4:	3d3d3d3d 	ldccc	13, cr3, [sp, #-244]!	; 0xffffff0c
    bbc8:	3d3d3d3d 	ldccc	13, cr3, [sp, #-244]!	; 0xffffff0c
    bbcc:	3d3d3d3d 	ldccc	13, cr3, [sp, #-244]!	; 0xffffff0c
    bbd0:	3d3d3d3d 	ldccc	13, cr3, [sp, #-244]!	; 0xffffff0c
    bbd4:	3d474244 	sfmcc	f4, 2, [r7, #-272]	; 0xfffffef0
    bbd8:	3d3d3d3d 	ldccc	13, cr3, [sp, #-244]!	; 0xffffff0c
    bbdc:	3d3d3d3d 	ldccc	13, cr3, [sp, #-244]!	; 0xffffff0c
    bbe0:	3d3d3d3d 	ldccc	13, cr3, [sp, #-244]!	; 0xffffff0c
    bbe4:	3d3d3d3d 	ldccc	13, cr3, [sp, #-244]!	; 0xffffff0c
    bbe8:	3d3d3d3d 	ldccc	13, cr3, [sp, #-244]!	; 0xffffff0c
    bbec:	6461000a 	strbtvs	r0, [r1], #-10
    bbf0:	253a7264 	ldrcs	r7, [sl, #-612]!	; 0x264
    bbf4:	76202c78 			; <UNDEFINED> instruction: 0x76202c78
    bbf8:	65756c61 	ldrbvs	r6, [r5, #-3169]!	; 0xc61
    bbfc:	0a78253a 	beq	0x1e150ec
    bc00:	6d562800 	ldclvs	8, cr2, [r6, #-0]
    bc04:	48206d65 	stmdami	r0!, {r0, r2, r5, r6, r8, sl, fp, sp, lr}
    bc08:	56202c56 			; <UNDEFINED> instruction: 0x56202c56
    bc0c:	65726f63 	ldrbvs	r6, [r2, #-3939]!	; 0xf63
    bc10:	29564820 	ldmdbcs	r6, {r5, fp, lr}^
    bc14:	64616820 	strbtvs	r6, [r1], #-2080	; 0x820
    bc18:	65656220 	strbvs	r6, [r5, #-544]!	; 0x220
    bc1c:	6573206e 	ldrbvs	r2, [r3, #-110]!	; 0x6e
    bc20:	2e2e2e74 	mcrcs	14, 1, r2, cr14, cr4, {3}
    bc24:	5628000a 	strtpl	r0, [r8], -sl
    bc28:	206d656d 	rsbcs	r6, sp, sp, ror #10
    bc2c:	202c564e 	eorcs	r5, ip, lr, asr #12
    bc30:	726f6356 	rsbvc	r6, pc, #1476395009	; 0x58000001
    bc34:	564e2065 	strbpl	r2, [lr], -r5, rrx
    bc38:	61682029 	cmnvs	r8, r9, lsr #32
    bc3c:	65622064 	strbvs	r2, [r2, #-100]!	; 0x64
    bc40:	73206e65 	teqvc	r0, #1616	; 0x650
    bc44:	2e2e7465 	cdpcs	4, 2, cr7, cr14, cr5, {3}
    bc48:	28000a2e 	stmdacs	r0, {r1, r2, r3, r5, r9, fp}
    bc4c:	6d656d56 	stclvs	13, cr6, [r5, #-344]!	; 0xfffffea8
    bc50:	2c564c20 	mrrccs	12, 2, r4, r6, cr0
    bc54:	63562020 	cmpvs	r6, #32
    bc58:	2065726f 	rsbcs	r7, r5, pc, ror #4
    bc5c:	2029564c 	eorcs	r5, r9, ip, asr #12
    bc60:	20646168 	rsbcs	r6, r4, r8, ror #2
    bc64:	6e656562 	cdpvs	5, 6, cr6, cr5, cr2, {3}
    bc68:	74657320 	strbtvc	r7, [r5], #-800	; 0x320
    bc6c:	0a2e2e2e 	beq	0xb9752c
    bc70:	63562800 	cmpvs	r6, #0
    bc74:	2065726f 	rsbcs	r7, r5, pc, ror #4
    bc78:	2b202029 	blcs	0x813d24
    bc7c:	6168202b 	cmnvs	r8, fp, lsr #32
    bc80:	65622064 	strbvs	r2, [r2, #-100]!	; 0x64
    bc84:	73206e65 	teqvc	r0, #1616	; 0x650
    bc88:	2e2e7465 	cdpcs	4, 2, cr7, cr14, cr5, {3}
    bc8c:	28000a2e 	stmdacs	r0, {r1, r2, r3, r5, r9, fp}
    bc90:	726f6356 	rsbvc	r6, pc, #1476395009	; 0x58000001
    bc94:	20292065 	eorcs	r2, r9, r5, rrx
    bc98:	202d2d20 	eorcs	r2, sp, r0, lsr #26
    bc9c:	20646168 	rsbcs	r6, r4, r8, ror #2
    bca0:	6e656562 	cdpvs	5, 6, cr6, cr5, cr2, {3}
    bca4:	74657320 	strbtvc	r7, [r5], #-800	; 0x320
    bca8:	0a2e2e2e 	beq	0xb97568
    bcac:	69724f00 	ldmdbvs	r2!, {r8, r9, sl, fp, lr}^
    bcb0:	6c616e67 	stclvs	14, cr6, [r1], #-412	; 0xfffffe64
    bcb4:	43324920 	teqmi	r2, #524288	; 0x80000
    bcb8:	3d206e5f 	stccc	14, cr6, [r0, #-380]!	; 0xfffffe84
    bcbc:	78257830 	stmdavc	r5!, {r4, r5, fp, ip, sp, lr}
    bcc0:	6f4e000a 	svcvs	0x004e000a
    bcc4:	32492077 	subcc	r2, r9, #119	; 0x77
    bcc8:	206e5f43 	rsbcs	r5, lr, r3, asr #30
    bccc:	2578303d 	ldrbcs	r3, [r8, #-61]!	; 0x3d
    bcd0:	0a000a78 	beq	0xe6b8
    bcd4:	544d5b0a 	strbpl	r5, [sp], #-2826	; 0xb0a
    bcd8:	30383536 	eorscc	r3, r8, r6, lsr r5
    bcdc:	6557205d 	ldrbvs	r2, [r7, #-93]	; 0x5d
    bce0:	6d6f636c 	stclvs	3, cr6, [pc, #-432]!	; 0xbb38
    bce4:	6f742065 	svcvs	0x00742065
    bce8:	54544520 	ldrbpl	r4, [r4], #-1312	; 0x520
    bcec:	77207327 	strvc	r7, [r0, -r7, lsr #6]!
    bcf0:	646c726f 	strbtvs	r7, [ip], #-623	; 0x26f
    bcf4:	2e2e2e20 	cdpcs	14, 2, cr2, cr14, cr0, {1}
    bcf8:	52444420 	subpl	r4, r4, #536870912	; 0x20000000
    bcfc:	45505954 	ldrbmi	r5, [r0, #-2388]	; 0x954
    bd00:	000a0a32 	andeq	r0, sl, r2, lsr sl
    bd04:	4d5b0a0a 	vldrmi	s1, [fp, #-40]	; 0xffffffd8
    bd08:	38353654 	ldmdacc	r5!, {r2, r4, r6, r9, sl, ip, sp}
    bd0c:	52205d30 	eorpl	r5, r0, #3072	; 0xc00
    bd10:	206b6e61 	rsbcs	r6, fp, r1, ror #28
    bd14:	54452030 	strbpl	r2, [r5], #-48	; 0x30
    bd18:	65722054 	ldrbvs	r2, [r2, #-84]!	; 0x54
    bd1c:	746c7573 	strbtvc	r7, [ip], #-1395	; 0x573
    bd20:	000a0a3a 	andeq	r0, sl, sl, lsr sl
    bd24:	4d5b0a0a 	vldrmi	s1, [fp, #-40]	; 0xffffffd8
    bd28:	38353654 	ldmdacc	r5!, {r2, r4, r6, r9, sl, ip, sp}
    bd2c:	52205d30 	eorpl	r5, r0, #3072	; 0xc00
    bd30:	206b6e61 	rsbcs	r6, fp, r1, ror #28
    bd34:	54452031 	strbpl	r2, [r5], #-49	; 0x31
    bd38:	65722054 	ldrbvs	r2, [r2, #-84]!	; 0x54
    bd3c:	746c7573 	strbtvc	r7, [ip], #-1395	; 0x573
    bd40:	000a0a3a 	andeq	r0, sl, sl, lsr sl
    bd44:	54450a0a 	strbpl	r0, [r5], #-2570	; 0xa0a
    bd48:	6f442054 	svcvs	0x00442054
    bd4c:	2121656e 	teqcs	r1, lr, ror #10
    bd50:	45000a0a 	strmi	r0, [r0, #-2570]	; 0xa0a
    bd54:	7265746e 	rsbvc	r7, r5, #1845493760	; 0x6e000000
    bd58:	636e6920 	cmnvs	lr, #524288	; 0x80000
    bd5c:	6572726f 	ldrbvs	r7, [r2, #-623]!	; 0x26f
    bd60:	63207463 	teqvs	r0, #1660944384	; 0x63000000
    bd64:	69666e6f 	stmdbvs	r6!, {r0, r1, r2, r3, r5, r6, r9, sl, fp, sp, lr}^
    bd68:	756e2067 	strbvc	r2, [lr, #-103]!	; 0x67
    bd6c:	7265626d 	rsbvc	r6, r5, #-805306362	; 0xd0000006
    bd70:	21212120 	teqcs	r1, r0, lsr #2
    bd74:	4d505b00 	vldrmi	d21, [r0, #-0]
    bd78:	705d4349 	subsvc	r4, sp, r9, asr #6
    bd7c:	5f63696d 	svcpl	0x0063696d
    bd80:	746c6f76 	strbtvc	r6, [ip], #-3958	; 0xf76
    bd84:	5f656761 	svcpl	0x00656761
    bd88:	64616572 	strbtvs	r6, [r1], #-1394	; 0x572
    bd8c:	0d203a20 	vstmdbeq	r0!, {s6-s37}
    bd90:	565b000a 	ldrbpl	r0, [fp], -sl
    bd94:	65726f63 	ldrbvs	r6, [r2, #-3939]!	; 0xf63
    bd98:	544d205d 	strbpl	r2, [sp], #-93	; 0x5d
    bd9c:	30353336 	eorscc	r3, r5, r6, lsr r3
    bda0:	5250565f 	subspl	r5, r0, #99614720	; 0x5f00000
    bda4:	435f434f 	cmpmi	pc, #1006632961	; 0x3c000001
    bda8:	3d394e4f 	ldccc	14, cr4, [r9, #-316]!	; 0xfffffec4
    bdac:	78257830 	stmdavc	r5!, {r4, r5, fp, ip, sp, lr}
    bdb0:	5b0a0d2c 	blpl	0x28f268
    bdb4:	6d656d56 	stclvs	13, cr6, [r5, #-344]!	; 0xfffffea8
    bdb8:	544d205d 	strbpl	r2, [sp], #-93	; 0x5d
    bdbc:	30353336 	eorscc	r3, r5, r6, lsr r3
    bdc0:	5f4d565f 	svcpl	0x004d565f
    bdc4:	314e4f43 	cmpcc	lr, r3, asr #30
    bdc8:	303d312f 	eorscc	r3, sp, pc, lsr #2
    bdcc:	20782578 	rsbscs	r2, r8, r8, ror r5
    bdd0:	78257830 	stmdavc	r5!, {r4, r5, fp, ip, sp, lr}
    bdd4:	45000a0d 	strmi	r0, [r0, #-2573]	; 0xa0d
    bdd8:	0a205454 	beq	0x820f30
    bddc:	3a204700 	bcc	0x81d9e4
    bde0:	61745320 	cmnvs	r4, r0, lsr #6
    bde4:	74207472 	strtvc	r7, [r0], #-1138	; 0x472
    bde8:	45206568 	strmi	r6, [r0, #-1384]!	; 0x568
    bdec:	74205454 	strtvc	r5, [r0], #-1108	; 0x454
    bdf0:	2e747365 	cdpcs	3, 7, cr7, cr4, cr5, {3}
    bdf4:	0a732520 	beq	0x1cd527c
    bdf8:	3a204400 	bcc	0x81ce00
    bdfc:	20732520 	rsbscs	r2, r3, r0, lsr #10
    be00:	616c6544 	cmnvs	ip, r4, asr #10
    be04:	30342079 	eorscc	r2, r4, r9, ror r0
    be08:	65622073 	strbvs	r2, [r2, #-115]!	; 0x73
    be0c:	65726f66 	ldrbvs	r6, [r2, #-3942]!	; 0xf66
    be10:	61747320 	cmnvs	r4, r0, lsr #6
    be14:	45207472 	strmi	r7, [r0, #-1138]!	; 0x472
    be18:	2e2e5454 	mcrcs	4, 1, r5, cr14, cr4, {2}
    be1c:	44000a2e 	strmi	r0, [r0], #-2606	; 0xa2e
    be20:	62617369 	rsbvs	r7, r1, #-1543503871	; 0xa4000001
    be24:	5000656c 	andpl	r6, r0, ip, ror #10
    be28:	50203a20 	eorpl	r3, r0, r0, lsr #20
    be2c:	746e6972 	strbtvc	r6, [lr], #-2418	; 0x972
    be30:	6c6f7620 	stclvs	6, cr7, [pc], #-128	; 0xbdb8
    be34:	65676174 	strbvs	r6, [r7, #-372]!	; 0x174
    be38:	74657320 	strbtvc	r7, [r5], #-800	; 0x320
    be3c:	676e6974 			; <UNDEFINED> instruction: 0x676e6974
    be40:	56000a73 			; <UNDEFINED> instruction: 0x56000a73
    be44:	56203a20 	strtpl	r3, [r0], -r0, lsr #20
    be48:	61746c6f 	cmnvs	r4, pc, ror #24
    be4c:	61206567 	teqvs	r0, r7, ror #10
    be50:	73756a64 	cmnvc	r5, #409600	; 0x64000
    be54:	6e656d74 	mcrvs	13, 3, r6, cr5, cr4, {3}
    be58:	0a202e74 	beq	0x817830
    be5c:	656c5000 	strbvs	r5, [ip, #-0]!
    be60:	20657361 	rsbcs	r7, r5, r1, ror #6
    be64:	65746e65 	ldrbvs	r6, [r4, #-3685]!	; 0xe65
    be68:	65732072 	ldrbvs	r2, [r3, #-114]!	; 0x72
    be6c:	7463656c 	strbtvc	r6, [r3], #-1388	; 0x56c
    be70:	3a6e6f69 	bcc	0x1ba7c1c
    be74:	44004400 	strmi	r4, [r0], #-1024	; 0x400
    be78:	62617369 	rsbvs	r7, r1, #-1543503871	; 0xa4000001
    be7c:	4420656c 	strtmi	r6, [r0], #-1388	; 0x56c
    be80:	79616c65 	stmdbvc	r1!, {r0, r2, r5, r6, sl, fp, sp, lr}^
    be84:	73303420 	teqvc	r0, #536870912	; 0x20000000
    be88:	66656220 	strbtvs	r6, [r5], -r0, lsr #4
    be8c:	2065726f 	rsbcs	r7, r5, pc, ror #4
    be90:	72617473 	rsbvc	r7, r1, #1929379840	; 0x73000000
    be94:	54452074 	strbpl	r2, [r5], #-116	; 0x74
    be98:	2e2e2e54 	mcrcs	14, 1, r2, cr14, cr4, {2}
    be9c:	6e45000a 	cdpvs	0, 4, cr0, cr5, cr10, {0}
    bea0:	656c6261 	strbvs	r6, [ip, #-609]!	; 0x261
    bea4:	6c654420 	cfstrdvs	mvd4, [r5], #-128	; 0xffffff80
    bea8:	34207961 	strtcc	r7, [r0], #-2401	; 0x961
    beac:	62207330 	eorvs	r7, r0, #-1073741824	; 0xc0000000
    beb0:	726f6665 	rsbvc	r6, pc, #105906176	; 0x6500000
    beb4:	74732065 	ldrbtvc	r2, [r3], #-101	; 0x65
    beb8:	20747261 	rsbscs	r7, r4, r1, ror #4
    bebc:	2e545445 	cdpcs	4, 5, cr5, cr4, cr5, {2}
    bec0:	000a2e2e 	andeq	r2, sl, lr, lsr #28
    bec4:	00490050 	subeq	r0, r9, r0, asr r0
    bec8:	32490053 	subcc	r0, r9, #83	; 0x53
    becc:	756e2043 	strbvc	r2, [lr, #-67]!	; 0x43
    bed0:	7265626d 	rsbvc	r6, r5, #-805306362	; 0xd0000006
    bed4:	776f6e20 	strbvc	r6, [pc, -r0, lsr #28]!
    bed8:	20736920 	rsbscs	r6, r3, r0, lsr #18
    bedc:	78257830 	stmdavc	r5!, {r4, r5, fp, ip, sp, lr}
    bee0:	50000a2e 	andpl	r0, r0, lr, lsr #20
    bee4:	7361656c 	cmnvc	r1, #452984832	; 0x1b000000
    bee8:	6e652065 	cdpvs	0, 6, cr2, cr5, cr5, {3}
    beec:	20726574 	rsbscs	r6, r2, r4, ror r5
    bef0:	2077656e 	rsbscs	r6, r7, lr, ror #10
    bef4:	20433249 	subcs	r3, r3, r9, asr #4
    bef8:	626d756e 	rsbvs	r7, sp, #461373440	; 0x1b800000
    befc:	283a7265 	ldmdacs	sl!, {r0, r2, r5, r6, r9, ip, sp, lr}
    bf00:	29362d30 	ldmdbcs	r6!, {r4, r5, r8, sl, fp, sp}
    bf04:	6f725700 	svcvs	0x00725700
    bf08:	7320676e 	teqvc	r0, #28835840	; 0x1b80000
    bf0c:	63656c65 	cmnvs	r5, #25856	; 0x6500
    bf10:	6e6f6974 	mcrvs	9, 3, r6, cr15, cr4, {3}
    bf14:	20642520 	rsbcs	r2, r4, r0, lsr #10
    bf18:	362d3028 	strtcc	r3, [sp], -r8, lsr #32
    bf1c:	00540029 	subseq	r0, r4, r9, lsr #32
    bf20:	3d33524d 	lfmcc	f5, 4, [r3, #-308]!	; 0xfffffecc
    bf24:	78257830 	stmdavc	r5!, {r4, r5, fp, ip, sp, lr}
    bf28:	6553000a 	ldrbvs	r0, [r3, #-10]
    bf2c:	6e697474 	mcrvs	4, 3, r7, cr9, cr4, {3}
    bf30:	65522067 	ldrbvs	r2, [r2, #-103]	; 0x67
    bf34:	65726566 	ldrbvs	r6, [r2, #-1382]!	; 0x566
    bf38:	0a65636e 	beq	0x1964cf8
    bf3c:	41524400 	cmpmi	r2, r0, lsl #8
    bf40:	7244204d 	subvc	r2, r4, #77	; 0x4d
    bf44:	6e697669 	cdpvs	6, 6, cr7, cr9, cr9, {3}
    bf48:	30000a67 	andcc	r0, r0, r7, ror #20
    bf4c:	3a303030 	bcc	0xc18014
    bf50:	65736572 	ldrbvs	r6, [r3, #-1394]!	; 0x572
    bf54:	64657672 	strbtvs	r7, [r5], #-1650	; 0x672
    bf58:	3030000a 	eorscc	r0, r0, sl
    bf5c:	333a3130 	teqcc	sl, #12
    bf60:	2d332e34 	ldccs	14, cr2, [r3, #-208]!	; 0xffffff30
    bf64:	206d686f 	rsbcs	r6, sp, pc, ror #16
    bf68:	69707974 	ldmdbvs	r0!, {r2, r4, r5, r6, r8, fp, ip, sp, lr}^
    bf6c:	0a6c6163 	beq	0x1b24500
    bf70:	31303000 	teqcc	r0, r0
    bf74:	30343a30 	eorscc	r3, r4, r0, lsr sl
    bf78:	6d686f2d 	stclvs	15, cr6, [r8, #-180]!	; 0xffffff4c
    bf7c:	70797420 	rsbsvc	r7, r9, r0, lsr #8
    bf80:	6c616369 	stclvs	3, cr6, [r1], #-420	; 0xfffffe5c
    bf84:	66656428 	strbtvs	r6, [r5], -r8, lsr #8
    bf88:	746c7561 	strbtvc	r7, [ip], #-1377	; 0x561
    bf8c:	30000a29 	andcc	r0, r0, r9, lsr #20
    bf90:	3a313130 	bcc	0xc58458
    bf94:	6f2d3834 	svcvs	0x002d3834
    bf98:	74206d68 	strtvc	r6, [r0], #-3432	; 0xd68
    bf9c:	63697079 	cmnvs	r9, #121	; 0x79
    bfa0:	000a6c61 	andeq	r6, sl, r1, ror #24
    bfa4:	30303130 	eorscc	r3, r0, r0, lsr r1
    bfa8:	2d30363a 	ldccs	6, cr3, [r0, #-232]!	; 0xffffff18
    bfac:	206d686f 	rsbcs	r6, sp, pc, ror #16
    bfb0:	69707974 	ldmdbvs	r0!, {r2, r4, r5, r6, r8, fp, ip, sp, lr}^
    bfb4:	0a6c6163 	beq	0x1b24548
    bfb8:	30313000 	eorscc	r3, r1, r0
    bfbc:	65723a31 	ldrbvs	r3, [r2, #-2609]!	; 0xa31
    bfc0:	76726573 			; <UNDEFINED> instruction: 0x76726573
    bfc4:	66206465 	strtvs	r6, [r0], -r5, ror #8
    bfc8:	3620726f 	strtcc	r7, [r0], -pc, ror #4
    bfcc:	2d362e38 	ldccs	14, cr2, [r6, #-224]!	; 0xffffff20
    bfd0:	206d686f 	rsbcs	r6, sp, pc, ror #16
    bfd4:	69707974 	ldmdbvs	r0!, {r2, r4, r5, r6, r8, fp, ip, sp, lr}^
    bfd8:	206c6163 	rsbcs	r6, ip, r3, ror #2
    bfdc:	3130000a 	teqcc	r0, sl
    bfe0:	383a3031 	ldmdacc	sl!, {r0, r4, r5, ip, sp}
    bfe4:	686f2d30 	stmdavs	pc!, {r4, r5, r8, sl, fp, sp}^	; <UNPREDICTABLE>
    bfe8:	7974206d 	ldmdbvc	r4!, {r0, r2, r3, r5, r6, sp}^
    bfec:	61636970 	smcvs	13968	; 0x3690
    bff0:	30000a6c 	andcc	r0, r0, ip, ror #20
    bff4:	3a313131 	bcc	0xc584c0
    bff8:	2d303231 	lfmcs	f3, 4, [r0, #-196]!	; 0xffffff3c
    bffc:	206d686f 	rsbcs	r6, sp, pc, ror #16
    c000:	69707974 	ldmdbvs	r0!, {r2, r4, r5, r6, r8, fp, ip, sp, lr}^
    c004:	0a6c6163 	beq	0x1b24598
    c008:	53004700 	movwpl	r4, #1792	; 0x700
    c00c:	74726174 	ldrbtvc	r6, [r2], #-372	; 0x174
    c010:	65687420 	strbvs	r7, [r8, #-1056]!	; 0x420
    c014:	73657420 	cmnvc	r5, #536870912	; 0x20000000
    c018:	2e2e2e74 	mcrcs	14, 1, r2, cr14, cr4, {3}
    c01c:	6944000a 	stmdbvs	r4, {r1, r3}^
    c020:	6c626173 	stfvse	f6, [r2], #-460	; 0xfffffe34
    c024:	72502065 	subsvc	r2, r0, #101	; 0x65
    c028:	6d452d65 	stclvs	13, cr2, [r5, #-404]	; 0xfffffe6c
    c02c:	73616870 	cmnvc	r1, #7340032	; 0x700000
    c030:	2e2e7369 	cdpcs	3, 2, cr7, cr14, cr9, {3}
    c034:	45000a2e 	strmi	r0, [r0, #-2606]	; 0xa2e
    c038:	6c62616e 	stfvse	f6, [r2], #-440	; 0xfffffe48
    c03c:	72502065 	subsvc	r2, r0, #101	; 0x65
    c040:	6d452d65 	stclvs	13, cr2, [r5, #-404]	; 0xfffffe6c
    c044:	73616870 	cmnvc	r1, #7340032	; 0x700000
    c048:	2e2e7369 	cdpcs	3, 2, cr7, cr14, cr9, {3}
    c04c:	56000a2e 	strpl	r0, [r0], -lr, lsr #20
    c050:	656d5600 	strbvs	r5, [sp, #-1536]!	; 0x600
    c054:	4828206d 	stmdami	r8!, {r0, r2, r3, r5, r6, sp}
    c058:	4e202c56 	mcrmi	12, 1, r2, cr0, cr6, {2}
    c05c:	4c202c56 	stcmi	12, cr2, [r0], #-344	; 0xfffffea8
    c060:	283d2956 	ldmdacs	sp!, {r1, r2, r4, r6, r8, fp, sp}
    c064:	30332e31 	eorscc	r2, r3, r1, lsr lr
    c068:	2e31202c 	cdpcs	0, 3, cr2, cr1, cr12, {1}
    c06c:	202c3232 	eorcs	r3, ip, r2, lsr r2
    c070:	36312e31 			; <UNDEFINED> instruction: 0x36312e31
    c074:	56000a29 	strpl	r0, [r0], -r9, lsr #20
    c078:	65726f63 	ldrbvs	r6, [r2, #-3939]!	; 0xf63
    c07c:	2c564828 	mrrccs	8, 2, r4, r6, cr8
    c080:	2c564e20 	mrrccs	14, 2, r4, r6, cr0
    c084:	29564c20 	ldmdbcs	r6, {r5, sl, fp, lr}^
    c088:	2e31283d 	mrccs	8, 1, r2, cr1, cr13, {1}
    c08c:	35313733 	ldrcc	r3, [r1, #-1843]!	; 0x733
    c090:	2e31202c 	cdpcs	0, 3, cr2, cr1, cr12, {1}
    c094:	202c3531 	eorcs	r3, ip, r1, lsr r5
    c098:	39302e31 	ldmdbcc	r0!, {r0, r4, r5, r9, sl, fp, sp}
    c09c:	0a293532 	beq	0xa5956c
    c0a0:	3a203100 	bcc	0x8184a8
    c0a4:	6d562820 	ldclvs	8, cr2, [r6, #-128]	; 0xffffff80
    c0a8:	48206d65 	stmdami	r0!, {r0, r2, r5, r6, r8, sl, fp, sp, lr}
    c0ac:	2e313a56 	mrccs	10, 1, r3, cr1, cr6, {2}
    c0b0:	202c3033 	eorcs	r3, ip, r3, lsr r0
    c0b4:	726f6356 	rsbvc	r6, pc, #1476395009	; 0x58000001
    c0b8:	56482065 	strbpl	r2, [r8], -r5, rrx
    c0bc:	332e313a 	teqcc	lr, #-2147483634	; 0x8000000e
    c0c0:	29353137 	ldmdbcs	r5!, {r0, r1, r2, r4, r5, r8, ip, sp}
    c0c4:	2032000a 	eorscs	r0, r2, sl
    c0c8:	5628203a 			; <UNDEFINED> instruction: 0x5628203a
    c0cc:	206d656d 	rsbcs	r6, sp, sp, ror #10
    c0d0:	313a564e 	teqcc	sl, lr, asr #12
    c0d4:	2c32322e 	lfmcs	f3, 4, [r2], #-184	; 0xffffff48
    c0d8:	6f635620 	svcvs	0x00635620
    c0dc:	4e206572 	mcrmi	5, 1, r6, cr0, cr2, {3}
    c0e0:	2e313a56 	mrccs	10, 1, r3, cr1, cr6, {2}
    c0e4:	0a293531 	beq	0xa595b0
    c0e8:	3a203300 	bcc	0x818cf0
    c0ec:	6d562820 	ldclvs	8, cr2, [r6, #-128]	; 0xffffff80
    c0f0:	4c206d65 	stcmi	13, cr6, [r0], #-404	; 0xfffffe6c
    c0f4:	2e313a56 	mrccs	10, 1, r3, cr1, cr6, {2}
    c0f8:	202c3631 	eorcs	r3, ip, r1, lsr r6
    c0fc:	726f6356 	rsbvc	r6, pc, #1476395009	; 0x58000001
    c100:	564c2065 	strbpl	r2, [ip], -r5, rrx
    c104:	302e313a 	eorcc	r3, lr, sl, lsr r1
    c108:	29353239 	ldmdbcs	r5!, {r0, r3, r4, r5, r9, ip, sp}
    c10c:	2034000a 	eorscs	r0, r4, sl
    c110:	5628203a 			; <UNDEFINED> instruction: 0x5628203a
    c114:	206d656d 	rsbcs	r6, sp, sp, ror #10
    c118:	313a564c 	teqcc	sl, ip, asr #12
    c11c:	2c36312e 	ldfcss	f3, [r6], #-184	; 0xffffff48
    c120:	6f635620 	svcvs	0x00635620
    c124:	48206572 	stmdami	r0!, {r1, r4, r5, r6, r8, sl, sp, lr}
    c128:	2e313a56 	mrccs	10, 1, r3, cr1, cr6, {2}
    c12c:	35313733 	ldrcc	r3, [r1, #-1843]!	; 0x733
    c130:	35000a29 	strcc	r0, [r0, #-2601]	; 0xa29
    c134:	28203a20 	stmdacs	r0!, {r5, r9, fp, ip, sp}
    c138:	6d656d56 	stclvs	13, cr6, [r5, #-344]!	; 0xfffffea8
    c13c:	3a564820 	bcc	0x159e1c4
    c140:	30332e31 	eorscc	r2, r3, r1, lsr lr
    c144:	6356202c 	cmpvs	r6, #44	; 0x2c
    c148:	2065726f 	rsbcs	r7, r5, pc, ror #4
    c14c:	313a564c 	teqcc	sl, ip, asr #12
    c150:	3239302e 	eorscc	r3, r9, #46	; 0x2e
    c154:	000a2935 	andeq	r2, sl, r5, lsr r9
    c158:	203a2036 	eorscs	r2, sl, r6, lsr r0
    c15c:	656d5628 	strbvs	r5, [sp, #-1576]!	; 0x628
    c160:	564e206d 	strbpl	r2, [lr], -sp, rrx
    c164:	322e313a 	eorcc	r3, lr, #-2147483634	; 0x8000000e
    c168:	56202c32 			; <UNDEFINED> instruction: 0x56202c32
    c16c:	65726f63 	ldrbvs	r6, [r2, #-3939]!	; 0xf63
    c170:	3a564820 	bcc	0x159e1f8
    c174:	37332e31 			; <UNDEFINED> instruction: 0x37332e31
    c178:	0a293531 	beq	0xa59644
    c17c:	3a203700 	bcc	0x819d84
    c180:	6d562820 	ldclvs	8, cr2, [r6, #-128]	; 0xffffff80
    c184:	4e206d65 	cdpmi	13, 2, cr6, cr0, cr5, {3}
    c188:	2e313a56 	mrccs	10, 1, r3, cr1, cr6, {2}
    c18c:	202c3232 	eorcs	r3, ip, r2, lsr r2
    c190:	726f6356 	rsbvc	r6, pc, #1476395009	; 0x58000001
    c194:	564c2065 	strbpl	r2, [ip], -r5, rrx
    c198:	302e313a 	eorcc	r3, lr, sl, lsr r1
    c19c:	29353239 	ldmdbcs	r5!, {r0, r3, r4, r5, r9, ip, sp}
    c1a0:	2038000a 	eorscs	r0, r8, sl
    c1a4:	5628203a 			; <UNDEFINED> instruction: 0x5628203a
    c1a8:	65726f63 	ldrbvs	r6, [r2, #-3939]!	; 0xf63
    c1ac:	20202920 	eorcs	r2, r0, r0, lsr #18
    c1b0:	2e202b2b 	vmulcs.f64	d2, d0, d27
    c1b4:	000a2e2e 	andeq	r2, sl, lr, lsr #28
    c1b8:	203a2039 	eorscs	r2, sl, r9, lsr r0
    c1bc:	6f635628 	svcvs	0x00635628
    c1c0:	29206572 	stmdbcs	r0!, {r1, r4, r5, r6, r8, sl, sp, lr}
    c1c4:	2d2d2020 	stccs	0, cr2, [sp, #-128]!	; 0xffffff80
    c1c8:	2e2e2e20 	cdpcs	14, 2, cr2, cr14, cr0, {1}
    c1cc:	6c50000a 	mrrcvs	0, 0, r0, r0, cr10	; <UNPREDICTABLE>
    c1d0:	65736165 	ldrbvs	r6, [r3, #-357]!	; 0x165
    c1d4:	746e6520 	strbtvc	r6, [lr], #-1312	; 0x520
    c1d8:	70207265 	eorvc	r7, r0, r5, ror #4
    c1dc:	65747461 	ldrbvs	r7, [r4, #-1121]!	; 0x461
    c1e0:	73206e72 	teqvc	r0, #1824	; 0x720
    c1e4:	63656c65 	cmnvs	r5, #25856	; 0x6500
    c1e8:	6e6f6974 	mcrvs	9, 3, r6, cr15, cr4, {3}
    c1ec:	2d31283a 	ldccs	8, cr2, [r1, #-232]!	; 0xffffff18
    c1f0:	57002937 	smladxpl	r0, r7, r9, r2
    c1f4:	676e6f72 			; <UNDEFINED> instruction: 0x676e6f72
    c1f8:	65732020 	ldrbvs	r2, [r3, #-32]!
    c1fc:	7463656c 	strbtvc	r6, [r3], #-1388	; 0x56c
    c200:	206e6f69 	rsbcs	r6, lr, r9, ror #30
    c204:	0a2e6425 	beq	0xba52a0
    c208:	206f4e00 	rsbcs	r4, pc, r0, lsl #28
    c20c:	616c6544 	cmnvs	ip, r4, asr #10
    c210:	30342079 	eorscc	r2, r4, r9, ror r0
    c214:	6e450073 	mcrvs	0, 2, r0, cr5, cr3, {3}
    c218:	656c6261 	strbvs	r6, [ip, #-609]!	; 0x261
    c21c:	20202000 	eorcs	r2, r0, r0
    c220:	54414420 	strbpl	r4, [r1], #-1056	; 0x420
    c224:	2054414c 	subscs	r4, r4, ip, asr #2
    c228:	696c6163 	stmdbvs	ip!, {r0, r1, r5, r6, r8, sp, lr}^
    c22c:	74617262 	strbtvc	r7, [r1], #-610	; 0x262
    c230:	206e6f69 	rsbcs	r6, lr, r9, ror #30
    c234:	4144000a 	cmpmi	r4, sl
    c238:	54414c54 	strbpl	r4, [r1], #-3156	; 0xc54
    c23c:	66654420 	strbtvs	r4, [r5], -r0, lsr #8
    c240:	746c7561 	strbtvc	r7, [ip], #-1377	; 0x561
    c244:	6c617620 	stclvs	6, cr7, [r1], #-128	; 0xffffff80
    c248:	3d206575 	cfstr32cc	mvfx6, [r0, #-468]!	; 0xfffffe2c
    c24c:	25783020 	ldrbcs	r3, [r8, #-32]!
    c250:	54000a78 	strpl	r0, [r0], #-2680	; 0xa78
    c254:	253d5041 	ldrcs	r5, [sp, #-65]!	; 0x41
    c258:	65202c64 	strvs	r2, [r0, #-3172]!	; 0xc64
    c25c:	765f7272 			; <UNDEFINED> instruction: 0x765f7272
    c260:	65756c61 	ldrbvs	r6, [r5, #-3169]!	; 0xc61
    c264:	2578303d 	ldrbcs	r3, [r8, #-61]!	; 0x3d
    c268:	62202c78 	eorvs	r2, r0, #30720	; 0x7800
    c26c:	6e696765 	cdpvs	7, 6, cr6, cr9, cr5, {3}
    c270:	2c64253d 	cfstr64cs	mvdx2, [r4], #-244	; 0xffffff0c
    c274:	72696620 	rsbvc	r6, r9, #33554432	; 0x2000000
    c278:	253d7473 	ldrcs	r7, [sp, #-1139]!	; 0x473
    c27c:	73202c64 	teqvc	r0, #25600	; 0x6400
    c280:	253d6d75 	ldrcs	r6, [sp, #-3445]!	; 0xd75
    c284:	6e000a64 	vmlsvs.f32	s0, s0, s9
    c288:	4144206f 	cmpmi	r4, pc, rrx
    c28c:	54414c54 	strbpl	r4, [r1], #-3156	; 0xc54
    c290:	70617420 	rsbvc	r7, r1, r0, lsr #8
    c294:	61702073 	cmnvs	r0, r3, ror r0
    c298:	000a7373 	andeq	r7, sl, r3, ror r3
    c29c:	73726966 	cmnvc	r2, #1671168	; 0x198000
    c2a0:	74735f74 	ldrbtvc	r5, [r3], #-3956	; 0xf74
    c2a4:	253d7065 	ldrcs	r7, [sp, #-101]!	; 0x65
    c2a8:	6f742064 	svcvs	0x00742064
    c2ac:	206c6174 	rsbcs	r6, ip, r4, ror r1
    c2b0:	73736170 	cmnvc	r3, #28
    c2b4:	2064253d 	rsbcs	r2, r4, sp, lsr r5
    c2b8:	74736562 	ldrbtvc	r6, [r3], #-1378	; 0x562
    c2bc:	6574735f 	ldrbvs	r7, [r4, #-863]!	; 0x35f
    c2c0:	64253d70 	strtvs	r3, [r5], #-3440	; 0xd70
    c2c4:	4144000a 	cmpmi	r4, sl
    c2c8:	54414c54 	strbpl	r4, [r1], #-3156	; 0xc54
    c2cc:	6c616320 	stclvs	3, cr6, [r1], #-128	; 0xffffff80
    c2d0:	61726269 	cmnvs	r2, r9, ror #4
    c2d4:	6e6f6974 	mcrvs	9, 3, r6, cr15, cr4, {3}
    c2d8:	69616620 	stmdbvs	r1!, {r5, r9, sl, sp, lr}^
    c2dc:	77202c6c 	strvc	r2, [r0, -ip, ror #24]!
    c2e0:	65746972 	ldrbvs	r6, [r4, #-2418]!	; 0x972
    c2e4:	63616220 	cmnvs	r1, #2
    c2e8:	6f74206b 	svcvs	0x0074206b
    c2ec:	66656420 	strbtvs	r6, [r5], -r0, lsr #8
    c2f0:	746c7561 	strbtvc	r7, [ip], #-1377	; 0x561
    c2f4:	6c617620 	stclvs	6, cr7, [r1], #-128	; 0xffffff80
    c2f8:	21736575 	cmncs	r3, r5, ror r5
    c2fc:	3d3d000a 	ldccc	0, cr0, [sp, #-40]!	; 0xffffffd8
    c300:	3d3d3d3d 	ldccc	13, cr3, [sp, #-244]!	; 0xffffff0c
    c304:	3d3d3d3d 	ldccc	13, cr3, [sp, #-244]!	; 0xffffff0c
    c308:	3d3d3d3d 	ldccc	13, cr3, [sp, #-244]!	; 0xffffff0c
    c30c:	3d3d3d3d 	ldccc	13, cr3, [sp, #-244]!	; 0xffffff0c
    c310:	3d3d3d3d 	ldccc	13, cr3, [sp, #-244]!	; 0xffffff0c
    c314:	3d3d3d3d 	ldccc	13, cr3, [sp, #-244]!	; 0xffffff0c
    c318:	3d3d3d3d 	ldccc	13, cr3, [sp, #-244]!	; 0xffffff0c
    c31c:	3d3d3d3d 	ldccc	13, cr3, [sp, #-244]!	; 0xffffff0c
    c320:	3d3d3d3d 	ldccc	13, cr3, [sp, #-244]!	; 0xffffff0c
    c324:	3d3d3d3d 	ldccc	13, cr3, [sp, #-244]!	; 0xffffff0c
    c328:	3d3d3d3d 	ldccc	13, cr3, [sp, #-244]!	; 0xffffff0c
    c32c:	3d3d3d3d 	ldccc	13, cr3, [sp, #-244]!	; 0xffffff0c
    c330:	3d3d3d3d 	ldccc	13, cr3, [sp, #-244]!	; 0xffffff0c
    c334:	3d3d3d3d 	ldccc	13, cr3, [sp, #-244]!	; 0xffffff0c
    c338:	3d3d3d3d 	ldccc	13, cr3, [sp, #-244]!	; 0xffffff0c
    c33c:	3d3d3d3d 	ldccc	13, cr3, [sp, #-244]!	; 0xffffff0c
    c340:	3d3d3d3d 	ldccc	13, cr3, [sp, #-244]!	; 0xffffff0c
    c344:	3d3d3d3d 	ldccc	13, cr3, [sp, #-244]!	; 0xffffff0c
    c348:	000a3d3d 	andeq	r3, sl, sp, lsr sp
    c34c:	746f5420 	strbtvc	r5, [pc], #-1056	; 0xc354
    c350:	253d6c61 	ldrcs	r6, [sp, #-3169]!	; 0xc61
    c354:	000a2064 	andeq	r2, sl, r4, rrx
    c358:	20642552 	rsbcs	r2, r4, r2, asr r5
    c35c:	000a5854 	andeq	r5, sl, r4, asr r8
    c360:	42205854 	eormi	r5, r0, #5505024	; 0x540000
    c364:	25657479 	strbcs	r7, [r5, #-1145]!	; 0x479
    c368:	44203a64 	strtmi	r3, [r0], #-2660	; 0xa64
    c36c:	202d2051 	eorcs	r2, sp, r1, asr r0
    c370:	202c6425 	eorcs	r6, ip, r5, lsr #8
    c374:	20535144 	subscs	r5, r3, r4, asr #2
    c378:	6425202d 	strtvs	r2, [r5], #-45	; 0x2d
    c37c:	6977202e 	ldmdbvs	r7!, {r1, r2, r3, r5, sp}^
    c380:	75735f6e 	ldrbvc	r5, [r3, #-3950]!	; 0xf6e
    c384:	25203d6d 	strcs	r3, [r0, #-3437]!	; 0xd6d
    c388:	69000a64 	stmdbvs	r0, {r2, r5, r6, r9, fp}
    c38c:	6f64206e 	svcvs	0x0064206e
    c390:	5f77685f 	svcpl	0x0077685f
    c394:	645f7164 	ldrbvs	r7, [pc], #-356	; 0xc39c
    c398:	635f7371 	cmpvs	pc, #-1006632959	; 0xc4000001
    c39c:	62696c61 	rsbvs	r6, r9, #24832	; 0x6100
    c3a0:	000a2928 	andeq	r2, sl, r8, lsr #18
    c3a4:	74697243 	strbtvc	r7, [r9], #-579	; 0x243
    c3a8:	6c616369 	stclvs	3, cr6, [r1], #-420	; 0xfffffe5c
    c3ac:	72726520 	rsbsvc	r6, r2, #134217728	; 0x8000000
    c3b0:	6920726f 	stmdbvs	r0!, {r0, r1, r2, r3, r5, r6, r9, ip, sp, lr}
    c3b4:	5244206e 	subpl	r2, r4, #110	; 0x6e
    c3b8:	20434d41 	subcs	r4, r3, r1, asr #26
    c3bc:	696c6163 	stmdbvs	ip!, {r0, r1, r5, r6, r8, sp, lr}^
    c3c0:	74617262 	strbtvc	r7, [r1], #-610	; 0x262
    c3c4:	2e6e6f69 	cdpcs	15, 6, cr6, cr14, cr9, {3}
    c3c8:	20574820 	subscs	r4, r7, r0, lsr #16
    c3cc:	696c6163 	stmdbvs	ip!, {r0, r1, r5, r6, r8, sp, lr}^
    c3d0:	74617262 	strbtvc	r7, [r1], #-610	; 0x262
    c3d4:	206e6f69 	rsbcs	r6, lr, r9, ror #30
    c3d8:	656d6974 	strbvs	r6, [sp, #-2420]!	; 0x974
    c3dc:	2e74756f 	cdpcs	5, 7, cr7, cr4, cr15, {3}
    c3e0:	25000d0a 	strcs	r0, [r0, #-3338]	; 0xd0a
    c3e4:	28202064 	stmdacs	r0!, {r2, r5, r6, sp}
    c3e8:	257e6425 	ldrbcs	r6, [lr, #-1061]!	; 0x425
    c3ec:	64252964 	strtvs	r2, [r5], #-2404	; 0x964
    c3f0:	64252020 	strtvs	r2, [r5], #-32
    c3f4:	25282020 	strcs	r2, [r8, #-32]!
    c3f8:	64257e64 	strtvs	r7, [r5], #-3684	; 0xe64
    c3fc:	20642529 	rsbcs	r2, r4, r9, lsr #10
    c400:	20642520 	rsbcs	r2, r4, r0, lsr #10
    c404:	64252820 	strtvs	r2, [r5], #-2080	; 0x820
    c408:	2964257e 	stmdbcs	r4!, {r1, r2, r3, r4, r5, r6, r8, sl, sp}^
    c40c:	20206425 	eorcs	r6, r0, r5, lsr #8
    c410:	20206425 	eorcs	r6, r0, r5, lsr #8
    c414:	7e642528 	cdpvc	5, 6, cr2, cr4, cr8, {1}
    c418:	25296425 	strcs	r6, [r9, #-1061]!	; 0x425
    c41c:	52000a64 	andpl	r0, r0, #409600	; 0x64000
    c420:	52206425 	eorpl	r6, r0, #620756992	; 0x25000000
    c424:	25000a58 	strcs	r0, [r0, #-2648]	; 0xa58
    c428:	25203a64 	strcs	r3, [r0, #-2660]!	; 0xa64
    c42c:	000a2064 	andeq	r2, sl, r4, rrx
    c430:	4d415244 	sfmmi	f5, 2, [r1, #-272]	; 0xfffffef0
    c434:	6570535f 	ldrbvs	r5, [r0, #-863]!	; 0x35f
    c438:	435f6465 	cmpmi	pc, #1694498816	; 0x65000000
    c43c:	69666e6f 	stmdbvs	r6!, {r0, r1, r2, r3, r5, r6, r9, sl, fp, sp, lr}^
    c440:	65445f67 	strbvs	r5, [r4, #-3943]	; 0xf67
    c444:	6d726574 	cfldr64vs	mvdx6, [r2, #-464]!	; 0xfffffe30
    c448:	74616e69 	strbtvc	r6, [r1], #-3689	; 0xe69
    c44c:	006e6f69 	rsbeq	r6, lr, r9, ror #30
    c450:	36544d5b 			; <UNDEFINED> instruction: 0x36544d5b
    c454:	5d303835 	ldcpl	8, cr3, [r0, #-212]!	; 0xffffff2c
    c458:	54544520 	ldrbpl	r4, [r4], #-1312	; 0x520
    c45c:	72657620 	rsbvc	r7, r5, #33554432	; 0x2000000
    c460:	6e6f6973 	mcrvs	9, 3, r6, cr15, cr3, {3}
    c464:	302e3020 	eorcc	r3, lr, r0, lsr #32
    c468:	312e302e 	teqcc	lr, lr, lsr #32
    c46c:	5b000a0a 	blpl	0xec9c
    c470:	20494d45 	subcs	r4, r9, r5, asr #26
    c474:	53465644 	movtpl	r5, #26180	; 0x6644
    c478:	5244205d 	subpl	r2, r4, #93	; 0x5d
    c47c:	4d204d41 	stcmi	13, cr4, [r0, #-260]!	; 0xfffffefc
    c480:	53205841 	teqpl	r0, #4259840	; 0x410000
    c484:	64656570 	strbtvs	r6, [r5], #-1392	; 0x570
    c488:	0a64253d 	beq	0x1915984
    c48c:	44504c00 	ldrbmi	r4, [r0], #-3072	; 0xc00
    c490:	20335244 	eorscs	r5, r3, r4, asr #4
    c494:	6e206f44 	cdpvs	15, 2, cr6, cr0, cr4, {2}
    c498:	7320746f 	teqvc	r0, #1862270976	; 0x6f000000
    c49c:	6f707075 	svcvs	0x00707075
    c4a0:	44207472 	strtmi	r7, [r0], #-1138	; 0x472
    c4a4:	204d4152 	subcs	r4, sp, r2, asr r1
    c4a8:	65657053 	strbvs	r7, [r5, #-83]!	; 0x53
    c4ac:	65622064 	strbvs	r2, [r2, #-100]!	; 0x64
    c4b0:	20776f6c 	rsbscs	r6, r7, ip, ror #30
    c4b4:	33333331 	teqcc	r3, #-1006632960	; 0xc4000000
    c4b8:	2e00200a 	cdpcs	0, 0, cr2, cr0, cr10, {0}
    c4bc:	6372732f 	cmnvs	r2, #-1140850688	; 0xbc000000
    c4c0:	36544d2f 	ldrbcc	r4, [r4], -pc, lsr #26
    c4c4:	2f303835 	svccs	0x00303835
    c4c8:	5f747465 	svcpl	0x00747465
    c4cc:	74737563 	ldrbtvc	r7, [r3], #-1379	; 0x563
    c4d0:	696e692e 	stmdbvs	lr!, {r1, r2, r3, r5, r8, fp, sp, lr}^
    c4d4:	00632e74 	rsbeq	r2, r3, r4, ror lr
    c4d8:	4d415244 	sfmmi	f5, 2, [r1, #-272]	; 0xfffffef0
    c4dc:	6570535f 	ldrbvs	r5, [r0, #-863]!	; 0x35f
    c4e0:	435f6465 	cmpmi	pc, #1694498816	; 0x65000000
    c4e4:	69666e6f 	stmdbvs	r6!, {r0, r1, r2, r3, r5, r6, r9, sl, fp, sp, lr}^
    c4e8:	65445f67 	strbvs	r5, [r4, #-3943]	; 0xf67
    c4ec:	6d726574 	cfldr64vs	mvdx6, [r2, #-464]!	; 0xfffffe30
    c4f0:	74616e69 	strbtvc	r6, [r1], #-3689	; 0xe69
    c4f4:	206e6f69 	rsbcs	r6, lr, r9, ror #30
    c4f8:	6f727245 	svcvs	0x00727245
    c4fc:	000a2172 	andeq	r2, sl, r2, ror r1
    c500:	6e6e6143 	powvsem	f6, f6, f3
    c504:	6620746f 	strtvs	r7, [r0], -pc, ror #8
    c508:	20646e69 	rsbcs	r6, r4, r9, ror #28
    c50c:	20796e61 	rsbscs	r6, r9, r1, ror #28
    c510:	73736170 	cmnvc	r3, #28
    c514:	6e69772d 	cdpvs	7, 6, cr7, cr9, cr13, {1}
    c518:	0a776f64 	beq	0x1de82b0
    c51c:	20202000 	eorcs	r2, r0, r0
    c520:	2d202020 	stccs	0, cr2, [r0, #-128]!	; 0xffffff80
    c524:	2d2d2d2d 	stccs	13, cr2, [sp, #-180]!	; 0xffffff4c
    c528:	2d2d2d2d 	stccs	13, cr2, [sp, #-180]!	; 0xffffff4c
    c52c:	2d2d2d2d 	stccs	13, cr2, [sp, #-180]!	; 0xffffff4c
    c530:	2d2d2d2d 	stccs	13, cr2, [sp, #-180]!	; 0xffffff4c
    c534:	2d2d2d2d 	stccs	13, cr2, [sp, #-180]!	; 0xffffff4c
    c538:	2d2d2d2d 	stccs	13, cr2, [sp, #-180]!	; 0xffffff4c
    c53c:	2d2d2d2d 	stccs	13, cr2, [sp, #-180]!	; 0xffffff4c
    c540:	2d2d2d2d 	stccs	13, cr2, [sp, #-180]!	; 0xffffff4c
    c544:	2d2d2d2d 	stccs	13, cr2, [sp, #-180]!	; 0xffffff4c
    c548:	2d2d2d2d 	stccs	13, cr2, [sp, #-180]!	; 0xffffff4c
    c54c:	2d2d2d2d 	stccs	13, cr2, [sp, #-180]!	; 0xffffff4c
    c550:	2d2d2d2d 	stccs	13, cr2, [sp, #-180]!	; 0xffffff4c
    c554:	2d2d2d2d 	stccs	13, cr2, [sp, #-180]!	; 0xffffff4c
    c558:	2d2d2d2d 	stccs	13, cr2, [sp, #-180]!	; 0xffffff4c
    c55c:	2d2d2d2d 	stccs	13, cr2, [sp, #-180]!	; 0xffffff4c
    c560:	2d2d2d2d 	stccs	13, cr2, [sp, #-180]!	; 0xffffff4c
    c564:	2d2d2d2d 	stccs	13, cr2, [sp, #-180]!	; 0xffffff4c
    c568:	2d2d2d2d 	stccs	13, cr2, [sp, #-180]!	; 0xffffff4c
    c56c:	2d2d2d2d 	stccs	13, cr2, [sp, #-180]!	; 0xffffff4c
    c570:	0a2d2d2d 	beq	0xb57a2c
    c574:	20202000 	eorcs	r2, r0, r0
    c578:	20003020 	andcs	r3, r0, r0, lsr #32
    c57c:	31202020 	teqcc	r0, r0, lsr #32
    c580:	69724300 	ldmdbvs	r2!, {r8, r9, lr}^
    c584:	61636974 	smcvs	13972	; 0x3694
    c588:	7265206c 	rsbvc	r2, r5, #108	; 0x6c
    c58c:	21726f72 	cmncs	r2, r2, ror pc
    c590:	71642021 	cmnvc	r4, r1, lsr #32
    c594:	77675f73 			; <UNDEFINED> instruction: 0x77675f73
    c598:	616f635f 	cmnvs	pc, pc, asr r3	; <UNPREDICTABLE>
    c59c:	20657372 	rsbcs	r7, r5, r2, ror r3
    c5a0:	5144203e 	cmppl	r4, lr, lsr r0
    c5a4:	57475f53 	smlsldpl	r5, r7, r3, pc	; <UNPREDICTABLE>
    c5a8:	414f435f 	cmpmi	pc, pc, asr r3	; <UNPREDICTABLE>
    c5ac:	5f455352 	svcpl	0x00455352
    c5b0:	0a58414d 	beq	0x161caec
    c5b4:	00323300 	eorseq	r3, r2, r0, lsl #6
    c5b8:	34003034 	strcc	r3, [r0], #-52	; 0x34
    c5bc:	36350038 			; <UNDEFINED> instruction: 0x36350038
    c5c0:	00343600 	eorseq	r3, r4, r0, lsl #12
    c5c4:	38003237 	stmdacc	r0, {r0, r1, r2, r4, r5, r9, ip, sp}
    c5c8:	38380030 	ldmdacc	r8!, {r4, r5}
    c5cc:	00363900 	eorseq	r3, r6, r0, lsl #18
    c5d0:	00343031 	eorseq	r3, r4, r1, lsr r0
    c5d4:	00323131 	eorseq	r3, r2, r1, lsr r1
    c5d8:	00303231 	eorseq	r3, r0, r1, lsr r2
    c5dc:	20535144 	subscs	r5, r3, r4, asr #2
    c5e0:	69746147 	ldmdbvs	r4!, {r0, r1, r2, r6, r8, sp, lr}^
    c5e4:	5720676e 	strpl	r6, [r0, -lr, ror #14]!
    c5e8:	6f646e69 	svcvs	0x00646e69
    c5ec:	65442077 	strbvs	r2, [r4, #-119]	; 0x77
    c5f0:	2079616c 	rsbscs	r6, r9, ip, ror #2
    c5f4:	6e694628 	cdpvs	6, 6, cr4, cr9, cr8, {1}
    c5f8:	63532065 	cmpvs	r3, #101	; 0x65
    c5fc:	29656c61 	stmdbcs	r5!, {r0, r5, r6, sl, fp, sp, lr}^
    c600:	53514400 	cmppl	r1, #0
    c604:	74614720 	strbtvc	r4, [r1], #-1824	; 0x720
    c608:	20676e69 	rsbcs	r6, r7, r9, ror #28
    c60c:	646e6957 	strbtvs	r6, [lr], #-2391	; 0x957
    c610:	4420776f 	strtmi	r7, [r0], #-1903	; 0x76f
    c614:	79616c65 	stmdbvc	r1!, {r0, r2, r5, r6, sl, fp, sp, lr}^
    c618:	6f432820 	svcvs	0x00432820
    c61c:	65737261 	ldrbvs	r7, [r3, #-609]!	; 0x261
    c620:	61635320 	cmnvs	r3, r0, lsr #6
    c624:	0029656c 	eoreq	r6, r9, ip, ror #10
    c628:	20642528 	rsbcs	r2, r4, r8, lsr #10
    c62c:	58522800 	ldmdapl	r2, {fp, sp}^
    c630:	42002800 	andmi	r2, r0, #0
    c634:	3a657479 	bcc	0x1969820
    c638:	54206425 	strtpl	r6, [r0], #-1061	; 0x425
    c63c:	61662078 	smcvs	25096	; 0x6208
    c640:	726f7463 	rsbvc	r7, pc, #1660944384	; 0x63000000
    c644:	2020000a 	eorcs	r0, r0, sl
    c648:	00722020 	rsbseq	r2, r2, r0, lsr #32
    c64c:	33003832 	movwcc	r3, #2098	; 0x832
    c650:	34340036 	ldrtcc	r0, [r4], #-54	; 0x36
    c654:	00323500 	eorseq	r3, r2, r0, lsl #10
    c658:	36003036 			; <UNDEFINED> instruction: 0x36003036
    c65c:	36370038 			; <UNDEFINED> instruction: 0x36370038
    c660:	00343800 	eorseq	r3, r4, r0, lsl #16
    c664:	31003239 	tstcc	r0, r9, lsr r2
    c668:	31003030 	tstcc	r0, r0, lsr r0
    c66c:	31003830 	tstcc	r0, r0, lsr r8
    c670:	31003631 	tstcc	r0, r1, lsr r6
    c674:	32003432 	andcc	r3, r0, #838860800	; 0x32000000
    c678:	30330039 	eorscc	r0, r3, r9, lsr r0
    c67c:	00313300 	eorseq	r3, r1, r0, lsl #6
    c680:	33003333 	movwcc	r3, #819	; 0x333
    c684:	35330034 	ldrcc	r0, [r3, #-52]!	; 0x34
    c688:	00373300 	eorseq	r3, r7, r0, lsl #6
    c68c:	33003833 	movwcc	r3, #2099	; 0x833
    c690:	31340039 	teqcc	r4, r9, lsr r0
    c694:	00323400 	eorseq	r3, r2, r0, lsl #8
    c698:	34003334 	strcc	r3, [r0], #-820	; 0x334
    c69c:	36340035 			; <UNDEFINED> instruction: 0x36340035
    c6a0:	00373400 	eorseq	r3, r7, r0, lsl #8
    c6a4:	35003934 	strcc	r3, [r0, #-2356]	; 0x934
    c6a8:	31350030 	teqcc	r5, r0, lsr r0
    c6ac:	00333500 	eorseq	r3, r3, r0, lsl #10
    c6b0:	35003435 	strcc	r3, [r0, #-1077]	; 0x435
    c6b4:	37350035 			; <UNDEFINED> instruction: 0x37350035
    c6b8:	00383500 	eorseq	r3, r8, r0, lsl #10
    c6bc:	36003935 			; <UNDEFINED> instruction: 0x36003935
    c6c0:	32360031 	eorscc	r0, r6, #49	; 0x31
    c6c4:	00333600 	eorseq	r3, r3, r0, lsl #12
    c6c8:	36003536 			; <UNDEFINED> instruction: 0x36003536
    c6cc:	37360036 			; <UNDEFINED> instruction: 0x37360036
    c6d0:	00393600 	eorseq	r3, r9, r0, lsl #12
    c6d4:	37003037 	smladxcc	r0, r7, r0, r3
    c6d8:	33370031 	teqcc	r7, #49	; 0x31
    c6dc:	00343700 	eorseq	r3, r4, r0, lsl #14
    c6e0:	37003537 	smladxcc	r0, r7, r5, r3
    c6e4:	38370037 	ldmdacc	r7!, {r0, r1, r2, r4, r5}
    c6e8:	00393700 	eorseq	r3, r9, r0, lsl #14
    c6ec:	38003138 	stmdacc	r0, {r3, r4, r5, r8, ip, sp}
    c6f0:	33380032 	teqcc	r8, #50	; 0x32
    c6f4:	00353800 	eorseq	r3, r5, r0, lsl #16
    c6f8:	38003638 	stmdacc	r0, {r3, r4, r5, r9, sl, ip, sp}
    c6fc:	39380037 	ldmdbcc	r8!, {r0, r1, r2, r4, r5}
    c700:	00303900 	eorseq	r3, r0, r0, lsl #18
    c704:	39003139 	stmdbcc	r0, {r0, r3, r4, r5, r8, ip, sp}
    c708:	34390033 	ldrtcc	r0, [r9], #-51	; 0x33
    c70c:	00353900 	eorseq	r3, r5, r0, lsl #18
    c710:	39003739 	stmdbcc	r0, {r0, r3, r4, r5, r8, r9, sl, ip, sp}
    c714:	39390038 	ldmdbcc	r9!, {r3, r4, r5}
    c718:	31303100 	teqcc	r0, r0, lsl #2
    c71c:	32303100 	eorscc	r3, r0, #0
    c720:	33303100 	teqcc	r0, #0
    c724:	35303100 	ldrcc	r3, [r0, #-256]!	; 0x100
    c728:	36303100 	ldrtcc	r3, [r0], -r0, lsl #2
    c72c:	37303100 	ldrcc	r3, [r0, -r0, lsl #2]!
    c730:	39303100 	ldmdbcc	r0!, {r8, ip, sp}
    c734:	30313100 	eorscc	r3, r1, r0, lsl #2
    c738:	31313100 	teqcc	r1, r0, lsl #2
    c73c:	33313100 	teqcc	r1, #0
    c740:	34313100 	ldrtcc	r3, [r1], #-256	; 0x100
    c744:	35313100 	ldrcc	r3, [r1, #-256]!	; 0x100
    c748:	37313100 	ldrcc	r3, [r1, -r0, lsl #2]!
    c74c:	38313100 	ldmdacc	r1!, {r8, ip, sp}
    c750:	39313100 	ldmdbcc	r1!, {r8, ip, sp}
    c754:	31323100 	teqcc	r2, r0, lsl #2
    c758:	32323100 	eorscc	r3, r2, #0
    c75c:	33323100 	teqcc	r2, #0
    c760:	35323100 	ldrcc	r3, [r2, #-256]!	; 0x100
    c764:	36323100 	ldrtcc	r3, [r2], -r0, lsl #2
    c768:	37323100 	ldrcc	r3, [r2, -r0, lsl #2]!
    c76c:	442d3c00 	strtmi	r3, [sp], #-3072	; 0xc00
    c770:	3e2d5351 	mcrcc	3, 1, r5, cr13, cr1, {2}
    c774:	706e4920 	rsbvc	r4, lr, r0, lsr #18
    c778:	44207475 	strtmi	r7, [r0], #-1141	; 0x475
    c77c:	79616c65 	stmdbvc	r1!, {r0, r2, r5, r6, sl, fp, sp, lr}^
    c780:	20785400 	rsbscs	r5, r8, r0, lsl #8
    c784:	204f2f49 	subcs	r2, pc, r9, asr #30
    c788:	76697244 	strbtvc	r7, [r9], -r4, asr #4
    c78c:	20676e69 	rsbcs	r6, r7, r9, ror #28
    c790:	56524428 	ldrbpl	r4, [r2], -r8, lsr #8
    c794:	44202c50 	strtmi	r2, [r0], #-3152	; 0xc50
    c798:	294e5652 	stmdbcs	lr, {r1, r4, r6, r9, sl, ip, lr}^
    c79c:	41524400 	cmpmi	r2, r0, lsl #8
    c7a0:	7244204d 	subvc	r2, r4, #77	; 0x4d
    c7a4:	6e697669 	cdpvs	6, 6, cr7, cr9, cr9, {3}
    c7a8:	74532067 	ldrbvc	r2, [r3], #-103	; 0x67
    c7ac:	676e6572 			; <UNDEFINED> instruction: 0x676e6572
    c7b0:	54006874 	strpl	r6, [r0], #-2164	; 0x874
    c7b4:	51442078 	hvcpl	16904	; 0x4208
    c7b8:	74754f20 	ldrbtvc	r4, [r5], #-3872	; 0xf20
    c7bc:	20747570 	rsbscs	r7, r4, r0, ror r5
    c7c0:	616c6544 	cmnvs	ip, r4, asr #10
    c7c4:	78540079 	ldmdavc	r4, {r0, r3, r4, r5, r6}^
    c7c8:	53514420 	cmppl	r1, #536870912	; 0x20000000
    c7cc:	74754f20 	ldrbtvc	r4, [r5], #-3872	; 0xf20
    c7d0:	20747570 	rsbscs	r7, r4, r0, ror r5
    c7d4:	616c6544 	cmnvs	ip, r4, asr #10
    c7d8:	78540079 	ldmdavc	r4, {r0, r3, r4, r5, r6}^
    c7dc:	444d4320 	strbmi	r4, [sp], #-800	; 0x320
    c7e0:	4444412f 	strbmi	r4, [r4], #-303	; 0x12f
    c7e4:	754f2052 	strbvc	r2, [pc, #-82]	; 0xc79a
    c7e8:	74757074 	ldrbtvc	r7, [r5], #-116	; 0x74
    c7ec:	6c654420 	cfstrdvs	mvd4, [r5], #-128	; 0xffffff80
    c7f0:	54007961 	strpl	r7, [r0], #-2401	; 0x961
    c7f4:	4c432078 	mcrrmi	0, 7, r2, r3, cr8
    c7f8:	754f204b 	strbvc	r2, [pc, #-75]	; 0xc7b5
    c7fc:	74757074 	ldrbtvc	r7, [r5], #-116	; 0x74
    c800:	6c654420 	cfstrdvs	mvd4, [r5], #-128	; 0xffffff80
    c804:	44007961 	strmi	r7, [r0], #-2401	; 0x961
    c808:	6300454c 	movwvs	r4, #1356	; 0x54c
    c80c:	6f6e6e61 	svcvs	0x006e6e61
    c810:	69662074 	stmdbvs	r6!, {r2, r4, r5, r6, sp}^
    c814:	6f20646e 	svcvs	0x0020646e
    c818:	645f7470 	ldrbvs	r7, [pc], #-1136	; 0xc820
    c81c:	7620656c 	strtvc	r6, [r0], -ip, ror #10
    c820:	65756c61 	ldrbvs	r6, [r5, #-3169]!	; 0xc61
    c824:	0000000a 	andeq	r0, r0, sl
    c828:	00000000 	andeq	r0, r0, r0
    c82c:	00010000 	andeq	r0, r1, r0
    c830:	00000000 	andeq	r0, r0, r0
    c834:	00000001 	andeq	r0, r0, r1
    c838:	00010000 	andeq	r0, r1, r0
    c83c:	00000001 	andeq	r0, r0, r1
    c840:	00000002 	andeq	r0, r0, r2
    c844:	00010000 	andeq	r0, r1, r0
    c848:	00000002 	andeq	r0, r0, r2
    c84c:	00000003 	andeq	r0, r0, r3
    c850:	00010000 	andeq	r0, r1, r0
    c854:	00000003 	andeq	r0, r0, r3
    c858:	00000004 	andeq	r0, r0, r4
    c85c:	00010000 	andeq	r0, r1, r0
    c860:	00000004 	andeq	r0, r0, r4
    c864:	00000005 	andeq	r0, r0, r5
    c868:	00010000 	andeq	r0, r1, r0
    c86c:	00000005 	andeq	r0, r0, r5
    c870:	00000006 	andeq	r0, r0, r6
    c874:	00010000 	andeq	r0, r1, r0
    c878:	00000006 	andeq	r0, r0, r6
    c87c:	00000007 	andeq	r0, r0, r7
    c880:	00010000 	andeq	r0, r1, r0
    c884:	00000007 	andeq	r0, r0, r7
    c888:	00000008 	andeq	r0, r0, r8
    c88c:	000f0002 	andeq	r0, pc, r2
    c890:	00000000 	andeq	r0, r0, r0
    c894:	00000009 	andeq	r0, r0, r9
    c898:	000f0002 	andeq	r0, pc, r2
    c89c:	00000004 	andeq	r0, r0, r4
    c8a0:	0000000a 	andeq	r0, r0, sl
    c8a4:	00010004 	andeq	r0, r1, r4
    c8a8:	00000001 	andeq	r0, r0, r1
    c8ac:	0000000b 	andeq	r0, r0, fp
    c8b0:	00010004 	andeq	r0, r1, r4
    c8b4:	00000002 	andeq	r0, r0, r2
    c8b8:	0000000c 	andeq	r0, r0, ip
    c8bc:	00010004 	andeq	r0, r1, r4
    c8c0:	00000003 	andeq	r0, r0, r3
    c8c4:	0000000d 	andeq	r0, r0, sp
    c8c8:	00010004 	andeq	r0, r1, r4
    c8cc:	00000005 	andeq	r0, r0, r5
    c8d0:	0000000e 	andeq	r0, r0, lr
    c8d4:	00010004 	andeq	r0, r1, r4
    c8d8:	00000006 	andeq	r0, r0, r6
    c8dc:	0000000f 	andeq	r0, r0, pc
    c8e0:	00010004 	andeq	r0, r1, r4
    c8e4:	00000007 	andeq	r0, r0, r7
    c8e8:	00000010 	andeq	r0, r0, r0, lsl r0
    c8ec:	001f0006 	andseq	r0, pc, r6
    c8f0:	00000000 	andeq	r0, r0, r0
    c8f4:	00000011 	andeq	r0, r0, r1, lsl r0
    c8f8:	00030006 	andeq	r0, r3, r6
    c8fc:	00000006 	andeq	r0, r0, r6
    c900:	00000012 	andeq	r0, r0, r2, lsl r0
    c904:	000f0008 	andeq	r0, pc, r8
    c908:	00000000 	andeq	r0, r0, r0
    c90c:	00000013 	andeq	r0, r0, r3, lsl r0
    c910:	0007000a 	andeq	r0, r7, sl
    c914:	00000000 	andeq	r0, r0, r0
    c918:	00000014 	andeq	r0, r0, r4, lsl r0
    c91c:	0007000a 	andeq	r0, r7, sl
    c920:	00000004 	andeq	r0, r0, r4
    c924:	00000015 	andeq	r0, r0, r5, lsl r0
    c928:	0001000c 	andeq	r0, r1, ip
    c92c:	00000000 	andeq	r0, r0, r0
    c930:	00000016 	andeq	r0, r0, r6, lsl r0
    c934:	0007000c 	andeq	r0, r7, ip
    c938:	00000001 	andeq	r0, r0, r1
    c93c:	00000017 	andeq	r0, r0, r7, lsl r0
    c940:	0001000c 	andeq	r0, r1, ip
    c944:	00000005 	andeq	r0, r0, r5
    c948:	00000018 	andeq	r0, r0, r8, lsl r0
    c94c:	0001000c 	andeq	r0, r1, ip
    c950:	00000006 	andeq	r0, r0, r6
    c954:	00000019 	andeq	r0, r0, r9, lsl r0
    c958:	0001000e 	andeq	r0, r1, lr
    c95c:	00000000 	andeq	r0, r0, r0
    c960:	0000001a 	andeq	r0, r0, sl, lsl r0
    c964:	0001000e 	andeq	r0, r1, lr
    c968:	00000001 	andeq	r0, r0, r1
    c96c:	0000001b 	andeq	r0, r0, fp, lsl r0
    c970:	0001000e 	andeq	r0, r1, lr
    c974:	00000002 	andeq	r0, r0, r2
    c978:	0000001c 	andeq	r0, r0, ip, lsl r0
    c97c:	0007000e 	andeq	r0, r7, lr
    c980:	00000004 	andeq	r0, r0, r4
    c984:	0000001d 	andeq	r0, r0, sp, lsl r0
    c988:	0001000e 	andeq	r0, r1, lr
    c98c:	00000007 	andeq	r0, r0, r7
    c990:	0000001e 	andeq	r0, r0, lr, lsl r0
    c994:	0001000e 	andeq	r0, r1, lr
    c998:	0000000c 	andeq	r0, r0, ip
    c99c:	0000001f 	andeq	r0, r0, pc, lsl r0
    c9a0:	03ff0010 	mvnseq	r0, #16
    c9a4:	00000000 	andeq	r0, r0, r0
    c9a8:	00000020 	andeq	r0, r0, r0, lsr #32
    c9ac:	00010012 	andeq	r0, r1, r2, lsl r0
    c9b0:	00000000 	andeq	r0, r0, r0
    c9b4:	00000021 	andeq	r0, r0, r1, lsr #32
    c9b8:	000f0014 	andeq	r0, pc, r4, lsl r0	; <UNPREDICTABLE>
    c9bc:	00000000 	andeq	r0, r0, r0
    c9c0:	00000022 	andeq	r0, r0, r2, lsr #32
    c9c4:	00010014 	andeq	r0, r1, r4, lsl r0
    c9c8:	00000004 	andeq	r0, r0, r4
    c9cc:	00000023 	andeq	r0, r0, r3, lsr #32
    c9d0:	00010014 	andeq	r0, r1, r4, lsl r0
    c9d4:	00000005 	andeq	r0, r0, r5
    c9d8:	00000024 	andeq	r0, r0, r4, lsr #32
    c9dc:	00010014 	andeq	r0, r1, r4, lsl r0
    c9e0:	00000006 	andeq	r0, r0, r6
    c9e4:	00000025 	andeq	r0, r0, r5, lsr #32
    c9e8:	003f0016 	eorseq	r0, pc, r6, lsl r0	; <UNPREDICTABLE>
    c9ec:	00000000 	andeq	r0, r0, r0
    c9f0:	00000026 	andeq	r0, r0, r6, lsr #32
    c9f4:	00010018 	andeq	r0, r1, r8, lsl r0
    c9f8:	00000000 	andeq	r0, r0, r0
    c9fc:	00000027 	andeq	r0, r0, r7, lsr #32
    ca00:	00010018 	andeq	r0, r1, r8, lsl r0
    ca04:	00000001 	andeq	r0, r0, r1
    ca08:	00000028 	andeq	r0, r0, r8, lsr #32
    ca0c:	00010018 	andeq	r0, r1, r8, lsl r0
    ca10:	00000002 	andeq	r0, r0, r2
    ca14:	00000029 	andeq	r0, r0, r9, lsr #32
    ca18:	00070018 	andeq	r0, r7, r8, lsl r0
    ca1c:	00000004 	andeq	r0, r0, r4
    ca20:	0000002a 	andeq	r0, r0, sl, lsr #32
    ca24:	000f001a 	andeq	r0, pc, sl, lsl r0	; <UNPREDICTABLE>
    ca28:	00000000 	andeq	r0, r0, r0
    ca2c:	0000002b 	andeq	r0, r0, fp, lsr #32
    ca30:	0001001a 	andeq	r0, r1, sl, lsl r0
    ca34:	00000004 	andeq	r0, r0, r4
    ca38:	0000002c 	andeq	r0, r0, ip, lsr #32
    ca3c:	0001001a 	andeq	r0, r1, sl, lsl r0
    ca40:	00000008 	andeq	r0, r0, r8
    ca44:	0000002d 	andeq	r0, r0, sp, lsr #32
    ca48:	00ff001c 	rscseq	r0, pc, ip, lsl r0	; <UNPREDICTABLE>
    ca4c:	00000000 	andeq	r0, r0, r0
    ca50:	0000002e 	andeq	r0, r0, lr, lsr #32
    ca54:	0001001e 	andeq	r0, r1, lr, lsl r0
    ca58:	00000000 	andeq	r0, r0, r0
    ca5c:	0000002f 	andeq	r0, r0, pc, lsr #32
    ca60:	0001001e 	andeq	r0, r1, lr, lsl r0
    ca64:	00000001 	andeq	r0, r0, r1
    ca68:	00000030 	andeq	r0, r0, r0, lsr r0
    ca6c:	0001001e 	andeq	r0, r1, lr, lsl r0
    ca70:	00000002 	andeq	r0, r0, r2
    ca74:	00000031 	andeq	r0, r0, r1, lsr r0
    ca78:	00030020 	andeq	r0, r3, r0, lsr #32
    ca7c:	00000000 	andeq	r0, r0, r0
    ca80:	00000032 	andeq	r0, r0, r2, lsr r0
    ca84:	00010020 	andeq	r0, r1, r0, lsr #32
    ca88:	00000002 	andeq	r0, r0, r2
    ca8c:	00000033 	andeq	r0, r0, r3, lsr r0
    ca90:	00010020 	andeq	r0, r1, r0, lsr #32
    ca94:	00000003 	andeq	r0, r0, r3
    ca98:	00000034 	andeq	r0, r0, r4, lsr r0
    ca9c:	00010020 	andeq	r0, r1, r0, lsr #32
    caa0:	00000008 	andeq	r0, r0, r8
    caa4:	00000035 	andeq	r0, r0, r5, lsr r0
    caa8:	00010020 	andeq	r0, r1, r0, lsr #32
    caac:	00000009 	andeq	r0, r0, r9
    cab0:	00000036 	andeq	r0, r0, r6, lsr r0
    cab4:	00010020 	andeq	r0, r1, r0, lsr #32
    cab8:	0000000a 	andeq	r0, r0, sl
    cabc:	00000037 	andeq	r0, r0, r7, lsr r0
    cac0:	00010020 	andeq	r0, r1, r0, lsr #32
    cac4:	0000000b 	andeq	r0, r0, fp
    cac8:	00000038 	andeq	r0, r0, r8, lsr r0
    cacc:	00010020 	andeq	r0, r1, r0, lsr #32
    cad0:	0000000c 	andeq	r0, r0, ip
    cad4:	00000039 	andeq	r0, r0, r9, lsr r0
    cad8:	00070022 	andeq	r0, r7, r2, lsr #32
    cadc:	00000000 	andeq	r0, r0, r0
    cae0:	0000003a 	andeq	r0, r0, sl, lsr r0
    cae4:	00010022 	andeq	r0, r1, r2, lsr #32
    cae8:	00000004 	andeq	r0, r0, r4
    caec:	0000003b 	andeq	r0, r0, fp, lsr r0
    caf0:	00010022 	andeq	r0, r1, r2, lsr #32
    caf4:	00000005 	andeq	r0, r0, r5
    caf8:	0000003c 	andeq	r0, r0, ip, lsr r0
    cafc:	00010024 	andeq	r0, r1, r4, lsr #32
    cb00:	00000000 	andeq	r0, r0, r0
    cb04:	0000003d 	andeq	r0, r0, sp, lsr r0
    cb08:	00010024 	andeq	r0, r1, r4, lsr #32
    cb0c:	00000001 	andeq	r0, r0, r1
    cb10:	0000003e 	andeq	r0, r0, lr, lsr r0
    cb14:	00030024 	andeq	r0, r3, r4, lsr #32
    cb18:	00000002 	andeq	r0, r0, r2
    cb1c:	0000003f 	andeq	r0, r0, pc, lsr r0
    cb20:	00010024 	andeq	r0, r1, r4, lsr #32
    cb24:	00000007 	andeq	r0, r0, r7
    cb28:	00000040 	andeq	r0, r0, r0, asr #32
    cb2c:	00030026 	andeq	r0, r3, r6, lsr #32
    cb30:	00000000 	andeq	r0, r0, r0
    cb34:	00000041 	andeq	r0, r0, r1, asr #32
    cb38:	00030026 	andeq	r0, r3, r6, lsr #32
    cb3c:	00000002 	andeq	r0, r0, r2
    cb40:	00000042 	andeq	r0, r0, r2, asr #32
    cb44:	00030026 	andeq	r0, r3, r6, lsr #32
    cb48:	00000004 	andeq	r0, r0, r4
    cb4c:	00000043 	andeq	r0, r0, r3, asr #32
    cb50:	00030026 	andeq	r0, r3, r6, lsr #32
    cb54:	00000006 	andeq	r0, r0, r6
    cb58:	00000044 	andeq	r0, r0, r4, asr #32
    cb5c:	00010026 	andeq	r0, r1, r6, lsr #32
    cb60:	00000008 	andeq	r0, r0, r8
    cb64:	00000045 	andeq	r0, r0, r5, asr #32
    cb68:	00070028 	andeq	r0, r7, r8, lsr #32
    cb6c:	00000000 	andeq	r0, r0, r0
    cb70:	00000046 	andeq	r0, r0, r6, asr #32
    cb74:	00070028 	andeq	r0, r7, r8, lsr #32
    cb78:	00000004 	andeq	r0, r0, r4
    cb7c:	00000047 	andeq	r0, r0, r7, asr #32
    cb80:	0007002a 	andeq	r0, r7, sl, lsr #32
    cb84:	00000000 	andeq	r0, r0, r0
    cb88:	00000048 	andeq	r0, r0, r8, asr #32
    cb8c:	0007002a 	andeq	r0, r7, sl, lsr #32
    cb90:	00000004 	andeq	r0, r0, r4
    cb94:	00000049 	andeq	r0, r0, r9, asr #32
    cb98:	003f002c 	eorseq	r0, pc, ip, lsr #32
    cb9c:	00000000 	andeq	r0, r0, r0
    cba0:	0000004a 	andeq	r0, r0, sl, asr #32
    cba4:	0001002c 	andeq	r0, r1, ip, lsr #32
    cba8:	00000006 	andeq	r0, r0, r6
    cbac:	0000004b 	andeq	r0, r0, fp, asr #32
    cbb0:	0001002c 	andeq	r0, r1, ip, lsr #32
    cbb4:	00000007 	andeq	r0, r0, r7
    cbb8:	0000004c 	andeq	r0, r0, ip, asr #32
    cbbc:	0001002e 	andeq	r0, r1, lr, lsr #32
    cbc0:	00000000 	andeq	r0, r0, r0
    cbc4:	0000004d 	andeq	r0, r0, sp, asr #32
    cbc8:	0001002e 	andeq	r0, r1, lr, lsr #32
    cbcc:	00000001 	andeq	r0, r0, r1
    cbd0:	0000004e 	andeq	r0, r0, lr, asr #32
    cbd4:	0001002e 	andeq	r0, r1, lr, lsr #32
    cbd8:	00000002 	andeq	r0, r0, r2
    cbdc:	0000004f 	andeq	r0, r0, pc, asr #32
    cbe0:	0001002e 	andeq	r0, r1, lr, lsr #32
    cbe4:	00000004 	andeq	r0, r0, r4
    cbe8:	00000050 	andeq	r0, r0, r0, asr r0
    cbec:	0001002e 	andeq	r0, r1, lr, lsr #32
    cbf0:	00000006 	andeq	r0, r0, r6
    cbf4:	00000051 	andeq	r0, r0, r1, asr r0
    cbf8:	0001002e 	andeq	r0, r1, lr, lsr #32
    cbfc:	00000007 	andeq	r0, r0, r7
    cc00:	00000052 	andeq	r0, r0, r2, asr r0
    cc04:	00010030 	andeq	r0, r1, r0, lsr r0
    cc08:	00000000 	andeq	r0, r0, r0
    cc0c:	00000053 	andeq	r0, r0, r3, asr r0
    cc10:	000f0030 	andeq	r0, pc, r0, lsr r0	; <UNPREDICTABLE>
    cc14:	00000004 	andeq	r0, r0, r4
    cc18:	00000054 	andeq	r0, r0, r4, asr r0
    cc1c:	001f0032 	andseq	r0, pc, r2, lsr r0	; <UNPREDICTABLE>
    cc20:	00000000 	andeq	r0, r0, r0
    cc24:	00000055 	andeq	r0, r0, r5, asr r0
    cc28:	000f0034 	andeq	r0, pc, r4, lsr r0	; <UNPREDICTABLE>
    cc2c:	00000000 	andeq	r0, r0, r0
    cc30:	00000056 	andeq	r0, r0, r6, asr r0
    cc34:	001f0036 	andseq	r0, pc, r6, lsr r0	; <UNPREDICTABLE>
    cc38:	00000000 	andeq	r0, r0, r0
    cc3c:	00000057 	andeq	r0, r0, r7, asr r0
    cc40:	00010036 	andeq	r0, r1, r6, lsr r0
    cc44:	00000005 	andeq	r0, r0, r5
    cc48:	00000058 	andeq	r0, r0, r8, asr r0
    cc4c:	00010036 	andeq	r0, r1, r6, lsr r0
    cc50:	00000006 	andeq	r0, r0, r6
    cc54:	00000059 	andeq	r0, r0, r9, asr r0
    cc58:	00010036 	andeq	r0, r1, r6, lsr r0
    cc5c:	00000007 	andeq	r0, r0, r7
    cc60:	0000005a 	andeq	r0, r0, sl, asr r0
    cc64:	03ff0038 	mvnseq	r0, #56	; 0x38
    cc68:	00000000 	andeq	r0, r0, r0
    cc6c:	0000005b 	andeq	r0, r0, fp, asr r0
    cc70:	00ff003a 	rscseq	r0, pc, sl, lsr r0	; <UNPREDICTABLE>
    cc74:	00000000 	andeq	r0, r0, r0
    cc78:	0000005c 	andeq	r0, r0, ip, asr r0
    cc7c:	0001003c 	andeq	r0, r1, ip, lsr r0
    cc80:	00000000 	andeq	r0, r0, r0
    cc84:	0000005d 	andeq	r0, r0, sp, asr r0
    cc88:	0001003c 	andeq	r0, r1, ip, lsr r0
    cc8c:	00000001 	andeq	r0, r0, r1
    cc90:	0000005e 	andeq	r0, r0, lr, asr r0
    cc94:	0001003c 	andeq	r0, r1, ip, lsr r0
    cc98:	00000002 	andeq	r0, r0, r2
    cc9c:	0000005f 	andeq	r0, r0, pc, asr r0
    cca0:	0003003c 	andeq	r0, r3, ip, lsr r0
    cca4:	00000003 	andeq	r0, r0, r3
    cca8:	00000060 	andeq	r0, r0, r0, rrx
    ccac:	0001003c 	andeq	r0, r1, ip, lsr r0
    ccb0:	00000005 	andeq	r0, r0, r5
    ccb4:	00000061 	andeq	r0, r0, r1, rrx
    ccb8:	0001003c 	andeq	r0, r1, ip, lsr r0
    ccbc:	00000006 	andeq	r0, r0, r6
    ccc0:	00000062 	andeq	r0, r0, r2, rrx
    ccc4:	001f003e 	andseq	r0, pc, lr, lsr r0	; <UNPREDICTABLE>
    ccc8:	00000000 	andeq	r0, r0, r0
    cccc:	00000063 	andeq	r0, r0, r3, rrx
    ccd0:	00010040 	andeq	r0, r1, r0, asr #32
    ccd4:	00000000 	andeq	r0, r0, r0
    ccd8:	00000064 	andeq	r0, r0, r4, rrx
    ccdc:	00010040 	andeq	r0, r1, r0, asr #32
    cce0:	00000001 	andeq	r0, r0, r1
    cce4:	00000065 	andeq	r0, r0, r5, rrx
    cce8:	00010040 	andeq	r0, r1, r0, asr #32
    ccec:	00000002 	andeq	r0, r0, r2
    ccf0:	00000066 	andeq	r0, r0, r6, rrx
    ccf4:	00010040 	andeq	r0, r1, r0, asr #32
    ccf8:	00000004 	andeq	r0, r0, r4
    ccfc:	00000067 	andeq	r0, r0, r7, rrx
    cd00:	00010040 	andeq	r0, r1, r0, asr #32
    cd04:	00000005 	andeq	r0, r0, r5
    cd08:	00000068 	andeq	r0, r0, r8, rrx
    cd0c:	00070040 	andeq	r0, r7, r0, asr #32
    cd10:	0000000c 	andeq	r0, r0, ip
    cd14:	00000069 	andeq	r0, r0, r9, rrx
    cd18:	000f0042 	andeq	r0, pc, r2, asr #32
    cd1c:	00000000 	andeq	r0, r0, r0
    cd20:	0000006a 	andeq	r0, r0, sl, rrx
    cd24:	00030044 	andeq	r0, r3, r4, asr #32
    cd28:	00000000 	andeq	r0, r0, r0
    cd2c:	0000006b 	andeq	r0, r0, fp, rrx
    cd30:	00070044 	andeq	r0, r7, r4, asr #32
    cd34:	00000004 	andeq	r0, r0, r4
    cd38:	0000006c 	andeq	r0, r0, ip, rrx
    cd3c:	00070044 	andeq	r0, r7, r4, asr #32
    cd40:	00000008 	andeq	r0, r0, r8
    cd44:	0000006d 	andeq	r0, r0, sp, rrx
    cd48:	00010046 	andeq	r0, r1, r6, asr #32
    cd4c:	00000000 	andeq	r0, r0, r0
    cd50:	0000006e 	andeq	r0, r0, lr, rrx
    cd54:	00010046 	andeq	r0, r1, r6, asr #32
    cd58:	00000001 	andeq	r0, r0, r1
    cd5c:	0000006f 	andeq	r0, r0, pc, rrx
    cd60:	00010046 	andeq	r0, r1, r6, asr #32
    cd64:	00000002 	andeq	r0, r0, r2
    cd68:	00000070 	andeq	r0, r0, r0, ror r0
    cd6c:	00010046 	andeq	r0, r1, r6, asr #32
    cd70:	00000003 	andeq	r0, r0, r3
    cd74:	00000071 	andeq	r0, r0, r1, ror r0
    cd78:	00030046 	andeq	r0, r3, r6, asr #32
    cd7c:	00000004 	andeq	r0, r0, r4
    cd80:	00000072 	andeq	r0, r0, r2, ror r0
    cd84:	00010046 	andeq	r0, r1, r6, asr #32
    cd88:	00000006 	andeq	r0, r0, r6
    cd8c:	00000073 	andeq	r0, r0, r3, ror r0
    cd90:	00010046 	andeq	r0, r1, r6, asr #32
    cd94:	00000007 	andeq	r0, r0, r7
    cd98:	00000074 	andeq	r0, r0, r4, ror r0
    cd9c:	00010046 	andeq	r0, r1, r6, asr #32
    cda0:	00000008 	andeq	r0, r0, r8
    cda4:	00000075 	andeq	r0, r0, r5, ror r0
    cda8:	00010046 	andeq	r0, r1, r6, asr #32
    cdac:	00000009 	andeq	r0, r0, r9
    cdb0:	00000076 	andeq	r0, r0, r6, ror r0
    cdb4:	00010046 	andeq	r0, r1, r6, asr #32
    cdb8:	0000000a 	andeq	r0, r0, sl
    cdbc:	00000077 	andeq	r0, r0, r7, ror r0
    cdc0:	00010046 	andeq	r0, r1, r6, asr #32
    cdc4:	0000000b 	andeq	r0, r0, fp
    cdc8:	00000078 	andeq	r0, r0, r8, ror r0
    cdcc:	00010046 	andeq	r0, r1, r6, asr #32
    cdd0:	0000000c 	andeq	r0, r0, ip
    cdd4:	00000079 	andeq	r0, r0, r9, ror r0
    cdd8:	00010046 	andeq	r0, r1, r6, asr #32
    cddc:	0000000d 	andeq	r0, r0, sp
    cde0:	0000007a 	andeq	r0, r0, sl, ror r0
    cde4:	00010046 	andeq	r0, r1, r6, asr #32
    cde8:	0000000f 	andeq	r0, r0, pc
    cdec:	0000007b 	andeq	r0, r0, fp, ror r0
    cdf0:	00010048 	andeq	r0, r1, r8, asr #32
    cdf4:	00000000 	andeq	r0, r0, r0
    cdf8:	0000007c 	andeq	r0, r0, ip, ror r0
    cdfc:	00010048 	andeq	r0, r1, r8, asr #32
    ce00:	00000001 	andeq	r0, r0, r1
    ce04:	0000007d 	andeq	r0, r0, sp, ror r0
    ce08:	00010048 	andeq	r0, r1, r8, asr #32
    ce0c:	00000002 	andeq	r0, r0, r2
    ce10:	0000007e 	andeq	r0, r0, lr, ror r0
    ce14:	00010048 	andeq	r0, r1, r8, asr #32
    ce18:	00000003 	andeq	r0, r0, r3
    ce1c:	0000007f 	andeq	r0, r0, pc, ror r0
    ce20:	00010048 	andeq	r0, r1, r8, asr #32
    ce24:	00000004 	andeq	r0, r0, r4
    ce28:	00000080 	andeq	r0, r0, r0, lsl #1
    ce2c:	00010048 	andeq	r0, r1, r8, asr #32
    ce30:	00000005 	andeq	r0, r0, r5
    ce34:	00000081 	andeq	r0, r0, r1, lsl #1
    ce38:	00010048 	andeq	r0, r1, r8, asr #32
    ce3c:	00000006 	andeq	r0, r0, r6
    ce40:	00000082 	andeq	r0, r0, r2, lsl #1
    ce44:	00010048 	andeq	r0, r1, r8, asr #32
    ce48:	00000007 	andeq	r0, r0, r7
    ce4c:	00000083 	andeq	r0, r0, r3, lsl #1
    ce50:	00010048 	andeq	r0, r1, r8, asr #32
    ce54:	00000008 	andeq	r0, r0, r8
    ce58:	00000084 	andeq	r0, r0, r4, lsl #1
    ce5c:	00010048 	andeq	r0, r1, r8, asr #32
    ce60:	00000009 	andeq	r0, r0, r9
    ce64:	00000085 	andeq	r0, r0, r5, lsl #1
    ce68:	00030048 	andeq	r0, r3, r8, asr #32
    ce6c:	0000000a 	andeq	r0, r0, sl
    ce70:	00000086 	andeq	r0, r0, r6, lsl #1
    ce74:	0001004a 	andeq	r0, r1, sl, asr #32
    ce78:	00000004 	andeq	r0, r0, r4
    ce7c:	00000087 	andeq	r0, r0, r7, lsl #1
    ce80:	0001004a 	andeq	r0, r1, sl, asr #32
    ce84:	00000005 	andeq	r0, r0, r5
    ce88:	00000088 	andeq	r0, r0, r8, lsl #1
    ce8c:	0001004a 	andeq	r0, r1, sl, asr #32
    ce90:	0000000e 	andeq	r0, r0, lr
    ce94:	00000089 	andeq	r0, r0, r9, lsl #1
    ce98:	0001004a 	andeq	r0, r1, sl, asr #32
    ce9c:	0000000f 	andeq	r0, r0, pc
    cea0:	0000008a 	andeq	r0, r0, sl, lsl #1
    cea4:	0001004c 	andeq	r0, r1, ip, asr #32
    cea8:	00000000 	andeq	r0, r0, r0
    ceac:	0000008b 	andeq	r0, r0, fp, lsl #1
    ceb0:	0001004c 	andeq	r0, r1, ip, asr #32
    ceb4:	00000001 	andeq	r0, r0, r1
    ceb8:	0000008c 	andeq	r0, r0, ip, lsl #1
    cebc:	007f004c 	rsbseq	r0, pc, ip, asr #32
    cec0:	00000008 	andeq	r0, r0, r8
    cec4:	0000008d 	andeq	r0, r0, sp, lsl #1
    cec8:	0001004c 	andeq	r0, r1, ip, asr #32
    cecc:	0000000f 	andeq	r0, r0, pc
    ced0:	0000008e 	andeq	r0, r0, lr, lsl #1
    ced4:	0001004e 	andeq	r0, r1, lr, asr #32
    ced8:	00000004 	andeq	r0, r0, r4
    cedc:	0000008f 	andeq	r0, r0, pc, lsl #1
    cee0:	0001004e 	andeq	r0, r1, lr, asr #32
    cee4:	00000005 	andeq	r0, r0, r5
    cee8:	00000090 	muleq	r0, r0, r0
    ceec:	0001004e 	andeq	r0, r1, lr, asr #32
    cef0:	00000006 	andeq	r0, r0, r6
    cef4:	00000091 	muleq	r0, r1, r0
    cef8:	0001004e 	andeq	r0, r1, lr, asr #32
    cefc:	00000007 	andeq	r0, r0, r7
    cf00:	00000092 	muleq	r0, r2, r0
    cf04:	00010050 	andeq	r0, r1, r0, asr r0
    cf08:	00000000 	andeq	r0, r0, r0
    cf0c:	00000093 	muleq	r0, r3, r0
    cf10:	00010050 	andeq	r0, r1, r0, asr r0
    cf14:	00000001 	andeq	r0, r0, r1
    cf18:	00000094 	muleq	r0, r4, r0
    cf1c:	00010052 	andeq	r0, r1, r2, asr r0
    cf20:	00000000 	andeq	r0, r0, r0
    cf24:	00000095 	muleq	r0, r5, r0
    cf28:	00010052 	andeq	r0, r1, r2, asr r0
    cf2c:	00000002 	andeq	r0, r0, r2
    cf30:	00000096 	muleq	r0, r6, r0
    cf34:	00010052 	andeq	r0, r1, r2, asr r0
    cf38:	00000003 	andeq	r0, r0, r3
    cf3c:	00000097 	muleq	r0, r7, r0
    cf40:	00010052 	andeq	r0, r1, r2, asr r0
    cf44:	00000008 	andeq	r0, r0, r8
    cf48:	00000098 	muleq	r0, r8, r0
    cf4c:	00010052 	andeq	r0, r1, r2, asr r0
    cf50:	00000009 	andeq	r0, r0, r9
    cf54:	00000099 	muleq	r0, r9, r0
    cf58:	00030052 	andeq	r0, r3, r2, asr r0
    cf5c:	0000000c 	andeq	r0, r0, ip
    cf60:	0000009a 	muleq	r0, sl, r0
    cf64:	001f0054 	andseq	r0, pc, r4, asr r0	; <UNPREDICTABLE>
    cf68:	00000000 	andeq	r0, r0, r0
    cf6c:	0000009b 	muleq	r0, fp, r0
    cf70:	00010054 	andeq	r0, r1, r4, asr r0
    cf74:	00000005 	andeq	r0, r0, r5
    cf78:	0000009c 	muleq	r0, ip, r0
    cf7c:	00010054 	andeq	r0, r1, r4, asr r0
    cf80:	00000006 	andeq	r0, r0, r6
    cf84:	0000009d 	muleq	r0, sp, r0
    cf88:	00010054 	andeq	r0, r1, r4, asr r0
    cf8c:	00000007 	andeq	r0, r0, r7
    cf90:	0000009e 	muleq	r0, lr, r0
    cf94:	001f0054 	andseq	r0, pc, r4, asr r0	; <UNPREDICTABLE>
    cf98:	00000008 	andeq	r0, r0, r8
    cf9c:	0000009f 	muleq	r0, pc, r0	; <UNPREDICTABLE>
    cfa0:	00010054 	andeq	r0, r1, r4, asr r0
    cfa4:	0000000d 	andeq	r0, r0, sp
    cfa8:	000000a0 	andeq	r0, r0, r0, lsr #1
    cfac:	00010054 	andeq	r0, r1, r4, asr r0
    cfb0:	0000000e 	andeq	r0, r0, lr
    cfb4:	000000a1 	andeq	r0, r0, r1, lsr #1
    cfb8:	00010054 	andeq	r0, r1, r4, asr r0
    cfbc:	0000000f 	andeq	r0, r0, pc
    cfc0:	000000a2 	andeq	r0, r0, r2, lsr #1
    cfc4:	00010056 	andeq	r0, r1, r6, asr r0
    cfc8:	00000000 	andeq	r0, r0, r0
    cfcc:	000000a3 	andeq	r0, r0, r3, lsr #1
    cfd0:	00010056 	andeq	r0, r1, r6, asr r0
    cfd4:	00000001 	andeq	r0, r0, r1
    cfd8:	000000a4 	andeq	r0, r0, r4, lsr #1
    cfdc:	00030056 	andeq	r0, r3, r6, asr r0
    cfe0:	00000002 	andeq	r0, r0, r2
    cfe4:	000000a5 	andeq	r0, r0, r5, lsr #1
    cfe8:	00030056 	andeq	r0, r3, r6, asr r0
    cfec:	00000004 	andeq	r0, r0, r4
    cff0:	000000a6 	andeq	r0, r0, r6, lsr #1
    cff4:	00010056 	andeq	r0, r1, r6, asr r0
    cff8:	00000006 	andeq	r0, r0, r6
    cffc:	000000a7 	andeq	r0, r0, r7, lsr #1
    d000:	00010056 	andeq	r0, r1, r6, asr r0
    d004:	00000007 	andeq	r0, r0, r7
    d008:	000000a8 	andeq	r0, r0, r8, lsr #1
    d00c:	00010056 	andeq	r0, r1, r6, asr r0
    d010:	00000008 	andeq	r0, r0, r8
    d014:	000000a9 	andeq	r0, r0, r9, lsr #1
    d018:	00010056 	andeq	r0, r1, r6, asr r0
    d01c:	00000009 	andeq	r0, r0, r9
    d020:	000000aa 	andeq	r0, r0, sl, lsr #1
    d024:	00010056 	andeq	r0, r1, r6, asr r0
    d028:	0000000a 	andeq	r0, r0, sl
    d02c:	000000ab 	andeq	r0, r0, fp, lsr #1
    d030:	0007005e 	andeq	r0, r7, lr, asr r0
    d034:	00000000 	andeq	r0, r0, r0
    d038:	000000ac 	andeq	r0, r0, ip, lsr #1
    d03c:	0003005e 	andeq	r0, r3, lr, asr r0
    d040:	00000004 	andeq	r0, r0, r4
    d044:	000000ad 	andeq	r0, r0, sp, lsr #1
    d048:	0003005e 	andeq	r0, r3, lr, asr r0
    d04c:	00000008 	andeq	r0, r0, r8
    d050:	000000ae 	andeq	r0, r0, lr, lsr #1
    d054:	0003005e 	andeq	r0, r3, lr, asr r0
    d058:	0000000a 	andeq	r0, r0, sl
    d05c:	000000af 	andeq	r0, r0, pc, lsr #1
    d060:	0001005e 	andeq	r0, r1, lr, asr r0
    d064:	0000000e 	andeq	r0, r0, lr
    d068:	000000b0 	strheq	r0, [r0], -r0	; <UNPREDICTABLE>
    d06c:	0001005e 	andeq	r0, r1, lr, asr r0
    d070:	0000000f 	andeq	r0, r0, pc
    d074:	000000b1 	strheq	r0, [r0], -r1
    d078:	000f0060 	andeq	r0, pc, r0, rrx
    d07c:	00000000 	andeq	r0, r0, r0
    d080:	000000b2 	strheq	r0, [r0], -r2
    d084:	000f0060 	andeq	r0, pc, r0, rrx
    d088:	00000004 	andeq	r0, r0, r4
    d08c:	000000b3 	strheq	r0, [r0], -r3
    d090:	000f0060 	andeq	r0, pc, r0, rrx
    d094:	00000008 	andeq	r0, r0, r8
    d098:	000000b4 	strheq	r0, [r0], -r4
    d09c:	00070060 	andeq	r0, r7, r0, rrx
    d0a0:	0000000c 	andeq	r0, r0, ip
    d0a4:	000000b5 	strheq	r0, [r0], -r5
    d0a8:	00030062 	andeq	r0, r3, r2, rrx
    d0ac:	00000000 	andeq	r0, r0, r0
    d0b0:	000000b6 	strheq	r0, [r0], -r6
    d0b4:	00030062 	andeq	r0, r3, r2, rrx
    d0b8:	00000002 	andeq	r0, r0, r2
    d0bc:	000000b7 	strheq	r0, [r0], -r7
    d0c0:	000f0062 	andeq	r0, pc, r2, rrx
    d0c4:	00000004 	andeq	r0, r0, r4
    d0c8:	000000b8 	strheq	r0, [r0], -r8
    d0cc:	00010062 	andeq	r0, r1, r2, rrx
    d0d0:	00000008 	andeq	r0, r0, r8
    d0d4:	000000b9 	strheq	r0, [r0], -r9
    d0d8:	00010062 	andeq	r0, r1, r2, rrx
    d0dc:	00000009 	andeq	r0, r0, r9
    d0e0:	000000ba 	strheq	r0, [r0], -sl
    d0e4:	00010062 	andeq	r0, r1, r2, rrx
    d0e8:	0000000a 	andeq	r0, r0, sl
    d0ec:	000000bb 	strheq	r0, [r0], -fp
    d0f0:	00010062 	andeq	r0, r1, r2, rrx
    d0f4:	0000000b 	andeq	r0, r0, fp
    d0f8:	000000bc 	strheq	r0, [r0], -ip
    d0fc:	00010062 	andeq	r0, r1, r2, rrx
    d100:	0000000c 	andeq	r0, r0, ip
    d104:	000000bd 	strheq	r0, [r0], -sp
    d108:	00010062 	andeq	r0, r1, r2, rrx
    d10c:	0000000d 	andeq	r0, r0, sp
    d110:	000000be 	strheq	r0, [r0], -lr
    d114:	00010062 	andeq	r0, r1, r2, rrx
    d118:	0000000e 	andeq	r0, r0, lr
    d11c:	000000bf 	strheq	r0, [r0], -pc	; <UNPREDICTABLE>
    d120:	00ff0064 	rscseq	r0, pc, r4, rrx
    d124:	00000000 	andeq	r0, r0, r0
    d128:	000000c0 	andeq	r0, r0, r0, asr #1
    d12c:	000f0064 	andeq	r0, pc, r4, rrx
    d130:	00000008 	andeq	r0, r0, r8
    d134:	000000c1 	andeq	r0, r0, r1, asr #1
    d138:	00010064 	andeq	r0, r1, r4, rrx
    d13c:	0000000c 	andeq	r0, r0, ip
    d140:	000000c2 	andeq	r0, r0, r2, asr #1
    d144:	00010064 	andeq	r0, r1, r4, rrx
    d148:	0000000d 	andeq	r0, r0, sp
    d14c:	000000c3 	andeq	r0, r0, r3, asr #1
    d150:	00010064 	andeq	r0, r1, r4, rrx
    d154:	0000000e 	andeq	r0, r0, lr
    d158:	000000c4 	andeq	r0, r0, r4, asr #1
    d15c:	00010064 	andeq	r0, r1, r4, rrx
    d160:	0000000f 	andeq	r0, r0, pc
    d164:	000000c5 	andeq	r0, r0, r5, asr #1
    d168:	00070066 	andeq	r0, r7, r6, rrx
    d16c:	00000000 	andeq	r0, r0, r0
    d170:	000000c6 	andeq	r0, r0, r6, asr #1
    d174:	00070066 	andeq	r0, r7, r6, rrx
    d178:	00000004 	andeq	r0, r0, r4
    d17c:	000000c7 	andeq	r0, r0, r7, asr #1
    d180:	00010066 	andeq	r0, r1, r6, rrx
    d184:	00000008 	andeq	r0, r0, r8
    d188:	000000c8 	andeq	r0, r0, r8, asr #1
    d18c:	00010066 	andeq	r0, r1, r6, rrx
    d190:	00000009 	andeq	r0, r0, r9
    d194:	000000c9 	andeq	r0, r0, r9, asr #1
    d198:	00010066 	andeq	r0, r1, r6, rrx
    d19c:	0000000a 	andeq	r0, r0, sl
    d1a0:	000000ca 	andeq	r0, r0, sl, asr #1
    d1a4:	00070068 	andeq	r0, r7, r8, rrx
    d1a8:	00000000 	andeq	r0, r0, r0
    d1ac:	000000cb 	andeq	r0, r0, fp, asr #1
    d1b0:	00070068 	andeq	r0, r7, r8, rrx
    d1b4:	00000004 	andeq	r0, r0, r4
    d1b8:	000000cc 	andeq	r0, r0, ip, asr #1
    d1bc:	0001006a 	andeq	r0, r1, sl, rrx
    d1c0:	00000000 	andeq	r0, r0, r0
    d1c4:	000000cd 	andeq	r0, r0, sp, asr #1
    d1c8:	0001006a 	andeq	r0, r1, sl, rrx
    d1cc:	00000001 	andeq	r0, r0, r1
    d1d0:	000000ce 	andeq	r0, r0, lr, asr #1
    d1d4:	0001006a 	andeq	r0, r1, sl, rrx
    d1d8:	00000003 	andeq	r0, r0, r3
    d1dc:	000000cf 	andeq	r0, r0, pc, asr #1
    d1e0:	0001006a 	andeq	r0, r1, sl, rrx
    d1e4:	00000005 	andeq	r0, r0, r5
    d1e8:	000000d0 	ldrdeq	r0, [r0], -r0	; <UNPREDICTABLE>
    d1ec:	0001006a 	andeq	r0, r1, sl, rrx
    d1f0:	00000007 	andeq	r0, r0, r7
    d1f4:	000000d1 	ldrdeq	r0, [r0], -r1
    d1f8:	0001006a 	andeq	r0, r1, sl, rrx
    d1fc:	00000009 	andeq	r0, r0, r9
    d200:	000000d2 	ldrdeq	r0, [r0], -r2
    d204:	0001006a 	andeq	r0, r1, sl, rrx
    d208:	0000000b 	andeq	r0, r0, fp
    d20c:	000000d3 	ldrdeq	r0, [r0], -r3
    d210:	0001006a 	andeq	r0, r1, sl, rrx
    d214:	0000000d 	andeq	r0, r0, sp
    d218:	000000d4 	ldrdeq	r0, [r0], -r4
    d21c:	0001006a 	andeq	r0, r1, sl, rrx
    d220:	0000000f 	andeq	r0, r0, pc
    d224:	000000d5 	ldrdeq	r0, [r0], -r5
    d228:	ffff0100 			; <UNDEFINED> instruction: 0xffff0100
    d22c:	00000000 	andeq	r0, r0, r0
    d230:	000000d6 	ldrdeq	r0, [r0], -r6
    d234:	00010102 	andeq	r0, r1, r2, lsl #2
    d238:	00000000 	andeq	r0, r0, r0
    d23c:	000000d7 	ldrdeq	r0, [r0], -r7
    d240:	00010102 	andeq	r0, r1, r2, lsl #2
    d244:	00000001 	andeq	r0, r0, r1
    d248:	000000d8 	ldrdeq	r0, [r0], -r8
    d24c:	00010102 	andeq	r0, r1, r2, lsl #2
    d250:	00000002 	andeq	r0, r0, r2
    d254:	000000d9 	ldrdeq	r0, [r0], -r9
    d258:	00010102 	andeq	r0, r1, r2, lsl #2
    d25c:	00000003 	andeq	r0, r0, r3
    d260:	000000da 	ldrdeq	r0, [r0], -sl
    d264:	00010102 	andeq	r0, r1, r2, lsl #2
    d268:	00000004 	andeq	r0, r0, r4
    d26c:	000000db 	ldrdeq	r0, [r0], -fp
    d270:	00010102 	andeq	r0, r1, r2, lsl #2
    d274:	00000005 	andeq	r0, r0, r5
    d278:	000000dc 	ldrdeq	r0, [r0], -ip
    d27c:	00010102 	andeq	r0, r1, r2, lsl #2
    d280:	00000006 	andeq	r0, r0, r6
    d284:	000000dd 	ldrdeq	r0, [r0], -sp
    d288:	00010102 	andeq	r0, r1, r2, lsl #2
    d28c:	00000007 	andeq	r0, r0, r7
    d290:	000000de 	ldrdeq	r0, [r0], -lr
    d294:	00010102 	andeq	r0, r1, r2, lsl #2
    d298:	00000008 	andeq	r0, r0, r8
    d29c:	000000df 	ldrdeq	r0, [r0], -pc	; <UNPREDICTABLE>
    d2a0:	00010102 	andeq	r0, r1, r2, lsl #2
    d2a4:	00000009 	andeq	r0, r0, r9
    d2a8:	000000e0 	andeq	r0, r0, r0, ror #1
    d2ac:	00010102 	andeq	r0, r1, r2, lsl #2
    d2b0:	0000000a 	andeq	r0, r0, sl
    d2b4:	000000e1 	andeq	r0, r0, r1, ror #1
    d2b8:	00010102 	andeq	r0, r1, r2, lsl #2
    d2bc:	0000000b 	andeq	r0, r0, fp
    d2c0:	000000e2 	andeq	r0, r0, r2, ror #1
    d2c4:	00010102 	andeq	r0, r1, r2, lsl #2
    d2c8:	0000000c 	andeq	r0, r0, ip
    d2cc:	000000e3 	andeq	r0, r0, r3, ror #1
    d2d0:	00010102 	andeq	r0, r1, r2, lsl #2
    d2d4:	0000000d 	andeq	r0, r0, sp
    d2d8:	000000e4 	andeq	r0, r0, r4, ror #1
    d2dc:	00010102 	andeq	r0, r1, r2, lsl #2
    d2e0:	0000000e 	andeq	r0, r0, lr
    d2e4:	000000e5 	andeq	r0, r0, r5, ror #1
    d2e8:	00010102 	andeq	r0, r1, r2, lsl #2
    d2ec:	0000000f 	andeq	r0, r0, pc
    d2f0:	000000e6 	andeq	r0, r0, r6, ror #1
    d2f4:	ffff0104 			; <UNDEFINED> instruction: 0xffff0104
    d2f8:	00000000 	andeq	r0, r0, r0
    d2fc:	000000e7 	andeq	r0, r0, r7, ror #1
    d300:	ffff0106 			; <UNDEFINED> instruction: 0xffff0106
    d304:	00000000 	andeq	r0, r0, r0
    d308:	000000e8 	andeq	r0, r0, r8, ror #1
    d30c:	00010108 	andeq	r0, r1, r8, lsl #2
    d310:	00000000 	andeq	r0, r0, r0
    d314:	000000e9 	andeq	r0, r0, r9, ror #1
    d318:	00010108 	andeq	r0, r1, r8, lsl #2
    d31c:	00000001 	andeq	r0, r0, r1
    d320:	000000ea 	andeq	r0, r0, sl, ror #1
    d324:	00010108 	andeq	r0, r1, r8, lsl #2
    d328:	00000002 	andeq	r0, r0, r2
    d32c:	000000eb 	andeq	r0, r0, fp, ror #1
    d330:	00010108 	andeq	r0, r1, r8, lsl #2
    d334:	00000003 	andeq	r0, r0, r3
    d338:	000000ec 	andeq	r0, r0, ip, ror #1
    d33c:	00010108 	andeq	r0, r1, r8, lsl #2
    d340:	00000004 	andeq	r0, r0, r4
    d344:	000000ed 	andeq	r0, r0, sp, ror #1
    d348:	00010108 	andeq	r0, r1, r8, lsl #2
    d34c:	00000005 	andeq	r0, r0, r5
    d350:	000000ee 	andeq	r0, r0, lr, ror #1
    d354:	00010108 	andeq	r0, r1, r8, lsl #2
    d358:	00000006 	andeq	r0, r0, r6
    d35c:	000000ef 	andeq	r0, r0, pc, ror #1
    d360:	00010108 	andeq	r0, r1, r8, lsl #2
    d364:	00000007 	andeq	r0, r0, r7
    d368:	000000f0 	strdeq	r0, [r0], -r0	; <UNPREDICTABLE>
    d36c:	00010108 	andeq	r0, r1, r8, lsl #2
    d370:	00000008 	andeq	r0, r0, r8
    d374:	000000f1 	strdeq	r0, [r0], -r1
    d378:	00010108 	andeq	r0, r1, r8, lsl #2
    d37c:	00000009 	andeq	r0, r0, r9
    d380:	000000f2 	strdeq	r0, [r0], -r2
    d384:	00010108 	andeq	r0, r1, r8, lsl #2
    d388:	0000000a 	andeq	r0, r0, sl
    d38c:	000000f3 	strdeq	r0, [r0], -r3
    d390:	00010108 	andeq	r0, r1, r8, lsl #2
    d394:	0000000b 	andeq	r0, r0, fp
    d398:	000000f4 	strdeq	r0, [r0], -r4
    d39c:	00010108 	andeq	r0, r1, r8, lsl #2
    d3a0:	0000000c 	andeq	r0, r0, ip
    d3a4:	000000f5 	strdeq	r0, [r0], -r5
    d3a8:	00010108 	andeq	r0, r1, r8, lsl #2
    d3ac:	0000000d 	andeq	r0, r0, sp
    d3b0:	000000f6 	strdeq	r0, [r0], -r6
    d3b4:	00010108 	andeq	r0, r1, r8, lsl #2
    d3b8:	0000000e 	andeq	r0, r0, lr
    d3bc:	000000f7 	strdeq	r0, [r0], -r7
    d3c0:	00010108 	andeq	r0, r1, r8, lsl #2
    d3c4:	0000000f 	andeq	r0, r0, pc
    d3c8:	000000f8 	strdeq	r0, [r0], -r8
    d3cc:	ffff010a 			; <UNDEFINED> instruction: 0xffff010a
    d3d0:	00000000 	andeq	r0, r0, r0
    d3d4:	000000f9 	strdeq	r0, [r0], -r9
    d3d8:	ffff010c 			; <UNDEFINED> instruction: 0xffff010c
    d3dc:	00000000 	andeq	r0, r0, r0
    d3e0:	000000fa 	strdeq	r0, [r0], -sl
    d3e4:	0001010e 	andeq	r0, r1, lr, lsl #2
    d3e8:	00000000 	andeq	r0, r0, r0
    d3ec:	000000fb 	strdeq	r0, [r0], -fp
    d3f0:	0001010e 	andeq	r0, r1, lr, lsl #2
    d3f4:	00000001 	andeq	r0, r0, r1
    d3f8:	000000fc 	strdeq	r0, [r0], -ip
    d3fc:	0001010e 	andeq	r0, r1, lr, lsl #2
    d400:	00000002 	andeq	r0, r0, r2
    d404:	000000fd 	strdeq	r0, [r0], -sp
    d408:	0001010e 	andeq	r0, r1, lr, lsl #2
    d40c:	00000003 	andeq	r0, r0, r3
    d410:	000000fe 	strdeq	r0, [r0], -lr
    d414:	0001010e 	andeq	r0, r1, lr, lsl #2
    d418:	00000004 	andeq	r0, r0, r4
    d41c:	000000ff 	strdeq	r0, [r0], -pc	; <UNPREDICTABLE>
    d420:	0001010e 	andeq	r0, r1, lr, lsl #2
    d424:	00000005 	andeq	r0, r0, r5
    d428:	00000100 	andeq	r0, r0, r0, lsl #2
    d42c:	0001010e 	andeq	r0, r1, lr, lsl #2
    d430:	00000006 	andeq	r0, r0, r6
    d434:	00000101 	andeq	r0, r0, r1, lsl #2
    d438:	0001010e 	andeq	r0, r1, lr, lsl #2
    d43c:	00000007 	andeq	r0, r0, r7
    d440:	00000102 	andeq	r0, r0, r2, lsl #2
    d444:	ffff0110 			; <UNDEFINED> instruction: 0xffff0110
    d448:	00000000 	andeq	r0, r0, r0
    d44c:	00000103 	andeq	r0, r0, r3, lsl #2
    d450:	ffff0112 			; <UNDEFINED> instruction: 0xffff0112
    d454:	00000000 	andeq	r0, r0, r0
    d458:	00000104 	andeq	r0, r0, r4, lsl #2
    d45c:	00010114 	andeq	r0, r1, r4, lsl r1
    d460:	00000000 	andeq	r0, r0, r0
    d464:	00000105 	andeq	r0, r0, r5, lsl #2
    d468:	00010114 	andeq	r0, r1, r4, lsl r1
    d46c:	00000001 	andeq	r0, r0, r1
    d470:	00000106 	andeq	r0, r0, r6, lsl #2
    d474:	00010114 	andeq	r0, r1, r4, lsl r1
    d478:	00000002 	andeq	r0, r0, r2
    d47c:	00000107 	andeq	r0, r0, r7, lsl #2
    d480:	00010114 	andeq	r0, r1, r4, lsl r1
    d484:	00000004 	andeq	r0, r0, r4
    d488:	00000108 	andeq	r0, r0, r8, lsl #2
    d48c:	00010114 	andeq	r0, r1, r4, lsl r1
    d490:	00000005 	andeq	r0, r0, r5
    d494:	00000109 	andeq	r0, r0, r9, lsl #2
    d498:	00010114 	andeq	r0, r1, r4, lsl r1
    d49c:	00000006 	andeq	r0, r0, r6
    d4a0:	0000010a 	andeq	r0, r0, sl, lsl #2
    d4a4:	00010114 	andeq	r0, r1, r4, lsl r1
    d4a8:	00000007 	andeq	r0, r0, r7
    d4ac:	0000010b 	andeq	r0, r0, fp, lsl #2
    d4b0:	00010114 	andeq	r0, r1, r4, lsl r1
    d4b4:	00000008 	andeq	r0, r0, r8
    d4b8:	0000010c 	andeq	r0, r0, ip, lsl #2
    d4bc:	007f0114 	rsbseq	r0, pc, r4, lsl r1	; <UNPREDICTABLE>
    d4c0:	00000009 	andeq	r0, r0, r9
    d4c4:	0000010d 	andeq	r0, r0, sp, lsl #2
    d4c8:	ffff0116 			; <UNDEFINED> instruction: 0xffff0116
    d4cc:	00000000 	andeq	r0, r0, r0
    d4d0:	0000010e 	andeq	r0, r0, lr, lsl #2
    d4d4:	ffff0118 			; <UNDEFINED> instruction: 0xffff0118
    d4d8:	00000000 	andeq	r0, r0, r0
    d4dc:	0000010f 	andeq	r0, r0, pc, lsl #2
    d4e0:	0001011a 	andeq	r0, r1, sl, lsl r1
    d4e4:	00000000 	andeq	r0, r0, r0
    d4e8:	00000110 	andeq	r0, r0, r0, lsl r1
    d4ec:	0001011a 	andeq	r0, r1, sl, lsl r1
    d4f0:	00000001 	andeq	r0, r0, r1
    d4f4:	00000111 	andeq	r0, r0, r1, lsl r1
    d4f8:	0001011a 	andeq	r0, r1, sl, lsl r1
    d4fc:	00000002 	andeq	r0, r0, r2
    d500:	00000112 	andeq	r0, r0, r2, lsl r1
    d504:	0001011a 	andeq	r0, r1, sl, lsl r1
    d508:	00000003 	andeq	r0, r0, r3
    d50c:	00000113 	andeq	r0, r0, r3, lsl r1
    d510:	0001011a 	andeq	r0, r1, sl, lsl r1
    d514:	00000004 	andeq	r0, r0, r4
    d518:	00000114 	andeq	r0, r0, r4, lsl r1
    d51c:	0001011a 	andeq	r0, r1, sl, lsl r1
    d520:	00000005 	andeq	r0, r0, r5
    d524:	00000115 	andeq	r0, r0, r5, lsl r1
    d528:	0001011a 	andeq	r0, r1, sl, lsl r1
    d52c:	00000006 	andeq	r0, r0, r6
    d530:	00000116 	andeq	r0, r0, r6, lsl r1
    d534:	0001011a 	andeq	r0, r1, sl, lsl r1
    d538:	00000007 	andeq	r0, r0, r7
    d53c:	00000117 	andeq	r0, r0, r7, lsl r1
    d540:	0003011a 	andeq	r0, r3, sl, lsl r1
    d544:	00000008 	andeq	r0, r0, r8
    d548:	00000118 	andeq	r0, r0, r8, lsl r1
    d54c:	ffff011c 			; <UNDEFINED> instruction: 0xffff011c
    d550:	00000000 	andeq	r0, r0, r0
    d554:	00000119 	andeq	r0, r0, r9, lsl r1
    d558:	ffff011e 			; <UNDEFINED> instruction: 0xffff011e
    d55c:	00000000 	andeq	r0, r0, r0
    d560:	0000011a 	andeq	r0, r0, sl, lsl r1
    d564:	00010120 	andeq	r0, r1, r0, lsr #2
    d568:	00000000 	andeq	r0, r0, r0
    d56c:	0000011b 	andeq	r0, r0, fp, lsl r1
    d570:	00010120 	andeq	r0, r1, r0, lsr #2
    d574:	00000002 	andeq	r0, r0, r2
    d578:	0000011c 	andeq	r0, r0, ip, lsl r1
    d57c:	00010120 	andeq	r0, r1, r0, lsr #2
    d580:	00000003 	andeq	r0, r0, r3
    d584:	0000011d 	andeq	r0, r0, sp, lsl r1
    d588:	00010120 	andeq	r0, r1, r0, lsr #2
    d58c:	00000004 	andeq	r0, r0, r4
    d590:	0000011e 	andeq	r0, r0, lr, lsl r1
    d594:	00010120 	andeq	r0, r1, r0, lsr #2
    d598:	00000005 	andeq	r0, r0, r5
    d59c:	0000011f 	andeq	r0, r0, pc, lsl r1
    d5a0:	00010120 	andeq	r0, r1, r0, lsr #2
    d5a4:	00000006 	andeq	r0, r0, r6
    d5a8:	00000120 	andeq	r0, r0, r0, lsr #2
    d5ac:	00010120 	andeq	r0, r1, r0, lsr #2
    d5b0:	00000007 	andeq	r0, r0, r7
    d5b4:	00000121 	andeq	r0, r0, r1, lsr #2
    d5b8:	00010120 	andeq	r0, r1, r0, lsr #2
    d5bc:	00000008 	andeq	r0, r0, r8
    d5c0:	00000122 	andeq	r0, r0, r2, lsr #2
    d5c4:	00010120 	andeq	r0, r1, r0, lsr #2
    d5c8:	00000009 	andeq	r0, r0, r9
    d5cc:	00000123 	andeq	r0, r0, r3, lsr #2
    d5d0:	00010120 	andeq	r0, r1, r0, lsr #2
    d5d4:	0000000f 	andeq	r0, r0, pc
    d5d8:	00000124 	andeq	r0, r0, r4, lsr #2
    d5dc:	ffff0122 			; <UNDEFINED> instruction: 0xffff0122
    d5e0:	00000000 	andeq	r0, r0, r0
    d5e4:	00000125 	andeq	r0, r0, r5, lsr #2
    d5e8:	ffff0124 			; <UNDEFINED> instruction: 0xffff0124
    d5ec:	00000000 	andeq	r0, r0, r0
    d5f0:	00000126 	andeq	r0, r0, r6, lsr #2
    d5f4:	00030126 	andeq	r0, r3, r6, lsr #2
    d5f8:	00000000 	andeq	r0, r0, r0
    d5fc:	00000127 	andeq	r0, r0, r7, lsr #2
    d600:	00030126 	andeq	r0, r3, r6, lsr #2
    d604:	00000002 	andeq	r0, r0, r2
    d608:	00000128 	andeq	r0, r0, r8, lsr #2
    d60c:	00030126 	andeq	r0, r3, r6, lsr #2
    d610:	00000004 	andeq	r0, r0, r4
    d614:	00000129 	andeq	r0, r0, r9, lsr #2
    d618:	00030126 	andeq	r0, r3, r6, lsr #2
    d61c:	00000006 	andeq	r0, r0, r6
    d620:	0000012a 	andeq	r0, r0, sl, lsr #2
    d624:	00030126 	andeq	r0, r3, r6, lsr #2
    d628:	00000008 	andeq	r0, r0, r8
    d62c:	0000012b 	andeq	r0, r0, fp, lsr #2
    d630:	00010126 	andeq	r0, r1, r6, lsr #2
    d634:	0000000a 	andeq	r0, r0, sl
    d638:	0000012c 	andeq	r0, r0, ip, lsr #2
    d63c:	00010126 	andeq	r0, r1, r6, lsr #2
    d640:	0000000b 	andeq	r0, r0, fp
    d644:	0000012d 	andeq	r0, r0, sp, lsr #2
    d648:	00010126 	andeq	r0, r1, r6, lsr #2
    d64c:	0000000c 	andeq	r0, r0, ip
    d650:	0000012e 	andeq	r0, r0, lr, lsr #2
    d654:	00010126 	andeq	r0, r1, r6, lsr #2
    d658:	0000000d 	andeq	r0, r0, sp
    d65c:	0000012f 	andeq	r0, r0, pc, lsr #2
    d660:	00010126 	andeq	r0, r1, r6, lsr #2
    d664:	0000000e 	andeq	r0, r0, lr
    d668:	00000130 	andeq	r0, r0, r0, lsr r1
    d66c:	00010126 	andeq	r0, r1, r6, lsr #2
    d670:	0000000f 	andeq	r0, r0, pc
    d674:	00000131 	andeq	r0, r0, r1, lsr r1
    d678:	ffff0128 			; <UNDEFINED> instruction: 0xffff0128
    d67c:	00000000 	andeq	r0, r0, r0
    d680:	00000132 	andeq	r0, r0, r2, lsr r1
    d684:	ffff012a 			; <UNDEFINED> instruction: 0xffff012a
    d688:	00000000 	andeq	r0, r0, r0
    d68c:	00000133 	andeq	r0, r0, r3, lsr r1
    d690:	0001012c 	andeq	r0, r1, ip, lsr #2
    d694:	00000000 	andeq	r0, r0, r0
    d698:	00000134 	andeq	r0, r0, r4, lsr r1
    d69c:	0001012c 	andeq	r0, r1, ip, lsr #2
    d6a0:	00000001 	andeq	r0, r0, r1
    d6a4:	00000135 	andeq	r0, r0, r5, lsr r1
    d6a8:	0001012c 	andeq	r0, r1, ip, lsr #2
    d6ac:	00000002 	andeq	r0, r0, r2
    d6b0:	00000136 	andeq	r0, r0, r6, lsr r1
    d6b4:	0001012c 	andeq	r0, r1, ip, lsr #2
    d6b8:	00000003 	andeq	r0, r0, r3
    d6bc:	00000137 	andeq	r0, r0, r7, lsr r1
    d6c0:	0001012c 	andeq	r0, r1, ip, lsr #2
    d6c4:	00000004 	andeq	r0, r0, r4
    d6c8:	00000138 	andeq	r0, r0, r8, lsr r1
    d6cc:	0001012e 	andeq	r0, r1, lr, lsr #2
    d6d0:	00000000 	andeq	r0, r0, r0
    d6d4:	00000139 	andeq	r0, r0, r9, lsr r1
    d6d8:	0001012e 	andeq	r0, r1, lr, lsr #2
    d6dc:	00000001 	andeq	r0, r0, r1
    d6e0:	0000013a 	andeq	r0, r0, sl, lsr r1
    d6e4:	0001012e 	andeq	r0, r1, lr, lsr #2
    d6e8:	00000002 	andeq	r0, r0, r2
    d6ec:	0000013b 	andeq	r0, r0, fp, lsr r1
    d6f0:	0001012e 	andeq	r0, r1, lr, lsr #2
    d6f4:	00000003 	andeq	r0, r0, r3
    d6f8:	0000013c 	andeq	r0, r0, ip, lsr r1
    d6fc:	0001012e 	andeq	r0, r1, lr, lsr #2
    d700:	00000004 	andeq	r0, r0, r4
    d704:	0000013d 	andeq	r0, r0, sp, lsr r1
    d708:	0001012e 	andeq	r0, r1, lr, lsr #2
    d70c:	00000005 	andeq	r0, r0, r5
    d710:	0000013e 	andeq	r0, r0, lr, lsr r1
    d714:	0001012e 	andeq	r0, r1, lr, lsr #2
    d718:	00000006 	andeq	r0, r0, r6
    d71c:	0000013f 	andeq	r0, r0, pc, lsr r1
    d720:	0001012e 	andeq	r0, r1, lr, lsr #2
    d724:	00000007 	andeq	r0, r0, r7
    d728:	00000140 	andeq	r0, r0, r0, asr #2
    d72c:	0001012e 	andeq	r0, r1, lr, lsr #2
    d730:	00000008 	andeq	r0, r0, r8
    d734:	00000141 	andeq	r0, r0, r1, asr #2
    d738:	0001012e 	andeq	r0, r1, lr, lsr #2
    d73c:	00000009 	andeq	r0, r0, r9
    d740:	00000142 	andeq	r0, r0, r2, asr #2
    d744:	0001012e 	andeq	r0, r1, lr, lsr #2
    d748:	0000000a 	andeq	r0, r0, sl
    d74c:	00000143 	andeq	r0, r0, r3, asr #2
    d750:	0001012e 	andeq	r0, r1, lr, lsr #2
    d754:	0000000b 	andeq	r0, r0, fp
    d758:	00000144 	andeq	r0, r0, r4, asr #2
    d75c:	0001012e 	andeq	r0, r1, lr, lsr #2
    d760:	0000000c 	andeq	r0, r0, ip
    d764:	00000145 	andeq	r0, r0, r5, asr #2
    d768:	0001012e 	andeq	r0, r1, lr, lsr #2
    d76c:	0000000d 	andeq	r0, r0, sp
    d770:	00000146 	andeq	r0, r0, r6, asr #2
    d774:	00010130 	andeq	r0, r1, r0, lsr r1
    d778:	00000000 	andeq	r0, r0, r0
    d77c:	00000147 	andeq	r0, r0, r7, asr #2
    d780:	00010130 	andeq	r0, r1, r0, lsr r1
    d784:	00000001 	andeq	r0, r0, r1
    d788:	00000148 	andeq	r0, r0, r8, asr #2
    d78c:	00010130 	andeq	r0, r1, r0, lsr r1
    d790:	00000002 	andeq	r0, r0, r2
    d794:	00000149 	andeq	r0, r0, r9, asr #2
    d798:	00010130 	andeq	r0, r1, r0, lsr r1
    d79c:	00000003 	andeq	r0, r0, r3
    d7a0:	0000014a 	andeq	r0, r0, sl, asr #2
    d7a4:	00ff0130 	rscseq	r0, pc, r0, lsr r1	; <UNPREDICTABLE>
    d7a8:	00000008 	andeq	r0, r0, r8
    d7ac:	0000014b 	andeq	r0, r0, fp, asr #2
    d7b0:	000f0132 	andeq	r0, pc, r2, lsr r1	; <UNPREDICTABLE>
    d7b4:	00000000 	andeq	r0, r0, r0
    d7b8:	0000014c 	andeq	r0, r0, ip, asr #2
    d7bc:	00ff0134 	rscseq	r0, pc, r4, lsr r1	; <UNPREDICTABLE>
    d7c0:	00000000 	andeq	r0, r0, r0
    d7c4:	0000014d 	andeq	r0, r0, sp, asr #2
    d7c8:	000f0134 	andeq	r0, pc, r4, lsr r1	; <UNPREDICTABLE>
    d7cc:	00000008 	andeq	r0, r0, r8
    d7d0:	0000014e 	andeq	r0, r0, lr, asr #2
    d7d4:	00010136 	andeq	r0, r1, r6, lsr r1
    d7d8:	00000001 	andeq	r0, r0, r1
    d7dc:	0000014f 	andeq	r0, r0, pc, asr #2
    d7e0:	00010136 	andeq	r0, r1, r6, lsr r1
    d7e4:	00000002 	andeq	r0, r0, r2
    d7e8:	00000150 	andeq	r0, r0, r0, asr r1
    d7ec:	00010136 	andeq	r0, r1, r6, lsr r1
    d7f0:	00000005 	andeq	r0, r0, r5
    d7f4:	00000151 	andeq	r0, r0, r1, asr r1
    d7f8:	00010136 	andeq	r0, r1, r6, lsr r1
    d7fc:	00000008 	andeq	r0, r0, r8
    d800:	00000152 	andeq	r0, r0, r2, asr r1
    d804:	00010136 	andeq	r0, r1, r6, lsr r1
    d808:	00000009 	andeq	r0, r0, r9
    d80c:	00000153 	andeq	r0, r0, r3, asr r1
    d810:	00010136 	andeq	r0, r1, r6, lsr r1
    d814:	0000000a 	andeq	r0, r0, sl
    d818:	00000154 	andeq	r0, r0, r4, asr r1
    d81c:	00010136 	andeq	r0, r1, r6, lsr r1
    d820:	0000000b 	andeq	r0, r0, fp
    d824:	00000155 	andeq	r0, r0, r5, asr r1
    d828:	00010136 	andeq	r0, r1, r6, lsr r1
    d82c:	0000000c 	andeq	r0, r0, ip
    d830:	00000156 	andeq	r0, r0, r6, asr r1
    d834:	00010136 	andeq	r0, r1, r6, lsr r1
    d838:	0000000d 	andeq	r0, r0, sp
    d83c:	00000157 	andeq	r0, r0, r7, asr r1
    d840:	00010138 	andeq	r0, r1, r8, lsr r1
    d844:	00000000 	andeq	r0, r0, r0
    d848:	00000158 	andeq	r0, r0, r8, asr r1
    d84c:	00010138 	andeq	r0, r1, r8, lsr r1
    d850:	00000001 	andeq	r0, r0, r1
    d854:	00000159 	andeq	r0, r0, r9, asr r1
    d858:	00010138 	andeq	r0, r1, r8, lsr r1
    d85c:	00000002 	andeq	r0, r0, r2
    d860:	0000015a 	andeq	r0, r0, sl, asr r1
    d864:	00010138 	andeq	r0, r1, r8, lsr r1
    d868:	00000003 	andeq	r0, r0, r3
    d86c:	0000015b 	andeq	r0, r0, fp, asr r1
    d870:	00010138 	andeq	r0, r1, r8, lsr r1
    d874:	00000004 	andeq	r0, r0, r4
    d878:	0000015c 	andeq	r0, r0, ip, asr r1
    d87c:	00010138 	andeq	r0, r1, r8, lsr r1
    d880:	00000005 	andeq	r0, r0, r5
    d884:	0000015d 	andeq	r0, r0, sp, asr r1
    d888:	00010138 	andeq	r0, r1, r8, lsr r1
    d88c:	00000006 	andeq	r0, r0, r6
    d890:	0000015e 	andeq	r0, r0, lr, asr r1
    d894:	00010138 	andeq	r0, r1, r8, lsr r1
    d898:	00000007 	andeq	r0, r0, r7
    d89c:	0000015f 	andeq	r0, r0, pc, asr r1
    d8a0:	00010138 	andeq	r0, r1, r8, lsr r1
    d8a4:	00000008 	andeq	r0, r0, r8
    d8a8:	00000160 	andeq	r0, r0, r0, ror #2
    d8ac:	00010138 	andeq	r0, r1, r8, lsr r1
    d8b0:	00000009 	andeq	r0, r0, r9
    d8b4:	00000161 	andeq	r0, r0, r1, ror #2
    d8b8:	00010138 	andeq	r0, r1, r8, lsr r1
    d8bc:	0000000a 	andeq	r0, r0, sl
    d8c0:	00000162 	andeq	r0, r0, r2, ror #2
    d8c4:	00010138 	andeq	r0, r1, r8, lsr r1
    d8c8:	0000000b 	andeq	r0, r0, fp
    d8cc:	00000163 	andeq	r0, r0, r3, ror #2
    d8d0:	00010138 	andeq	r0, r1, r8, lsr r1
    d8d4:	0000000c 	andeq	r0, r0, ip
    d8d8:	00000164 	andeq	r0, r0, r4, ror #2
    d8dc:	00010138 	andeq	r0, r1, r8, lsr r1
    d8e0:	0000000d 	andeq	r0, r0, sp
    d8e4:	00000165 	andeq	r0, r0, r5, ror #2
    d8e8:	00010138 	andeq	r0, r1, r8, lsr r1
    d8ec:	0000000e 	andeq	r0, r0, lr
    d8f0:	00000166 	andeq	r0, r0, r6, ror #2
    d8f4:	00010138 	andeq	r0, r1, r8, lsr r1
    d8f8:	0000000f 	andeq	r0, r0, pc
    d8fc:	00000167 	andeq	r0, r0, r7, ror #2
    d900:	0001013a 	andeq	r0, r1, sl, lsr r1
    d904:	00000000 	andeq	r0, r0, r0
    d908:	00000168 	andeq	r0, r0, r8, ror #2
    d90c:	0001013a 	andeq	r0, r1, sl, lsr r1
    d910:	00000001 	andeq	r0, r0, r1
    d914:	00000169 	andeq	r0, r0, r9, ror #2
    d918:	0001013a 	andeq	r0, r1, sl, lsr r1
    d91c:	00000002 	andeq	r0, r0, r2
    d920:	0000016a 	andeq	r0, r0, sl, ror #2
    d924:	0001013a 	andeq	r0, r1, sl, lsr r1
    d928:	00000003 	andeq	r0, r0, r3
    d92c:	0000016b 	andeq	r0, r0, fp, ror #2
    d930:	0001013a 	andeq	r0, r1, sl, lsr r1
    d934:	00000004 	andeq	r0, r0, r4
    d938:	0000016c 	andeq	r0, r0, ip, ror #2
    d93c:	0001013a 	andeq	r0, r1, sl, lsr r1
    d940:	00000005 	andeq	r0, r0, r5
    d944:	0000016d 	andeq	r0, r0, sp, ror #2
    d948:	0001013a 	andeq	r0, r1, sl, lsr r1
    d94c:	00000006 	andeq	r0, r0, r6
    d950:	0000016e 	andeq	r0, r0, lr, ror #2
    d954:	0001013a 	andeq	r0, r1, sl, lsr r1
    d958:	00000007 	andeq	r0, r0, r7
    d95c:	0000016f 	andeq	r0, r0, pc, ror #2
    d960:	0001013a 	andeq	r0, r1, sl, lsr r1
    d964:	00000008 	andeq	r0, r0, r8
    d968:	00000170 	andeq	r0, r0, r0, ror r1
    d96c:	0001013a 	andeq	r0, r1, sl, lsr r1
    d970:	00000009 	andeq	r0, r0, r9
    d974:	00000171 	andeq	r0, r0, r1, ror r1
    d978:	0001013a 	andeq	r0, r1, sl, lsr r1
    d97c:	0000000a 	andeq	r0, r0, sl
    d980:	00000172 	andeq	r0, r0, r2, ror r1
    d984:	0001013c 	andeq	r0, r1, ip, lsr r1
    d988:	00000000 	andeq	r0, r0, r0
    d98c:	00000173 	andeq	r0, r0, r3, ror r1
    d990:	0001013c 	andeq	r0, r1, ip, lsr r1
    d994:	00000001 	andeq	r0, r0, r1
    d998:	00000174 	andeq	r0, r0, r4, ror r1
    d99c:	0001013c 	andeq	r0, r1, ip, lsr r1
    d9a0:	00000002 	andeq	r0, r0, r2
    d9a4:	00000175 	andeq	r0, r0, r5, ror r1
    d9a8:	0001013c 	andeq	r0, r1, ip, lsr r1
    d9ac:	00000004 	andeq	r0, r0, r4
    d9b0:	00000176 	andeq	r0, r0, r6, ror r1
    d9b4:	0001013c 	andeq	r0, r1, ip, lsr r1
    d9b8:	00000005 	andeq	r0, r0, r5
    d9bc:	00000177 	andeq	r0, r0, r7, ror r1
    d9c0:	0001013c 	andeq	r0, r1, ip, lsr r1
    d9c4:	00000006 	andeq	r0, r0, r6
    d9c8:	00000178 	andeq	r0, r0, r8, ror r1
    d9cc:	0001013c 	andeq	r0, r1, ip, lsr r1
    d9d0:	00000007 	andeq	r0, r0, r7
    d9d4:	00000179 	andeq	r0, r0, r9, ror r1
    d9d8:	0001013c 	andeq	r0, r1, ip, lsr r1
    d9dc:	00000008 	andeq	r0, r0, r8
    d9e0:	0000017a 	andeq	r0, r0, sl, ror r1
    d9e4:	0001013c 	andeq	r0, r1, ip, lsr r1
    d9e8:	00000009 	andeq	r0, r0, r9
    d9ec:	0000017b 	andeq	r0, r0, fp, ror r1
    d9f0:	0001013c 	andeq	r0, r1, ip, lsr r1
    d9f4:	0000000a 	andeq	r0, r0, sl
    d9f8:	0000017c 	andeq	r0, r0, ip, ror r1
    d9fc:	0001013c 	andeq	r0, r1, ip, lsr r1
    da00:	0000000b 	andeq	r0, r0, fp
    da04:	0000017d 	andeq	r0, r0, sp, ror r1
    da08:	0001013c 	andeq	r0, r1, ip, lsr r1
    da0c:	0000000c 	andeq	r0, r0, ip
    da10:	0000017e 	andeq	r0, r0, lr, ror r1
    da14:	0001013c 	andeq	r0, r1, ip, lsr r1
    da18:	0000000d 	andeq	r0, r0, sp
    da1c:	0000017f 	andeq	r0, r0, pc, ror r1
    da20:	0001013c 	andeq	r0, r1, ip, lsr r1
    da24:	0000000e 	andeq	r0, r0, lr
    da28:	00000180 	andeq	r0, r0, r0, lsl #3
    da2c:	0001013c 	andeq	r0, r1, ip, lsr r1
    da30:	0000000f 	andeq	r0, r0, pc
    da34:	00000181 	andeq	r0, r0, r1, lsl #3
    da38:	0001013e 	andeq	r0, r1, lr, lsr r1
    da3c:	00000000 	andeq	r0, r0, r0
    da40:	00000182 	andeq	r0, r0, r2, lsl #3
    da44:	0001013e 	andeq	r0, r1, lr, lsr r1
    da48:	00000001 	andeq	r0, r0, r1
    da4c:	00000183 	andeq	r0, r0, r3, lsl #3
    da50:	0001013e 	andeq	r0, r1, lr, lsr r1
    da54:	00000002 	andeq	r0, r0, r2
    da58:	00000184 	andeq	r0, r0, r4, lsl #3
    da5c:	0001013e 	andeq	r0, r1, lr, lsr r1
    da60:	00000003 	andeq	r0, r0, r3
    da64:	00000185 	andeq	r0, r0, r5, lsl #3
    da68:	0001013e 	andeq	r0, r1, lr, lsr r1
    da6c:	00000004 	andeq	r0, r0, r4
    da70:	00000186 	andeq	r0, r0, r6, lsl #3
    da74:	0001013e 	andeq	r0, r1, lr, lsr r1
    da78:	00000005 	andeq	r0, r0, r5
    da7c:	00000187 	andeq	r0, r0, r7, lsl #3
    da80:	0001013e 	andeq	r0, r1, lr, lsr r1
    da84:	00000006 	andeq	r0, r0, r6
    da88:	00000188 	andeq	r0, r0, r8, lsl #3
    da8c:	0001013e 	andeq	r0, r1, lr, lsr r1
    da90:	00000007 	andeq	r0, r0, r7
    da94:	00000189 	andeq	r0, r0, r9, lsl #3
    da98:	0001013e 	andeq	r0, r1, lr, lsr r1
    da9c:	00000008 	andeq	r0, r0, r8
    daa0:	0000018a 	andeq	r0, r0, sl, lsl #3
    daa4:	0001013e 	andeq	r0, r1, lr, lsr r1
    daa8:	00000009 	andeq	r0, r0, r9
    daac:	0000018b 	andeq	r0, r0, fp, lsl #3
    dab0:	0001013e 	andeq	r0, r1, lr, lsr r1
    dab4:	0000000a 	andeq	r0, r0, sl
    dab8:	0000018c 	andeq	r0, r0, ip, lsl #3
    dabc:	0001013e 	andeq	r0, r1, lr, lsr r1
    dac0:	0000000b 	andeq	r0, r0, fp
    dac4:	0000018d 	andeq	r0, r0, sp, lsl #3
    dac8:	0001013e 	andeq	r0, r1, lr, lsr r1
    dacc:	0000000c 	andeq	r0, r0, ip
    dad0:	0000018e 	andeq	r0, r0, lr, lsl #3
    dad4:	00010140 	andeq	r0, r1, r0, asr #2
    dad8:	00000000 	andeq	r0, r0, r0
    dadc:	0000018f 	andeq	r0, r0, pc, lsl #3
    dae0:	00010140 	andeq	r0, r1, r0, asr #2
    dae4:	00000001 	andeq	r0, r0, r1
    dae8:	00000190 	muleq	r0, r0, r1
    daec:	00010140 	andeq	r0, r1, r0, asr #2
    daf0:	00000002 	andeq	r0, r0, r2
    daf4:	00000191 	muleq	r0, r1, r1
    daf8:	00010140 	andeq	r0, r1, r0, asr #2
    dafc:	00000003 	andeq	r0, r0, r3
    db00:	00000192 	muleq	r0, r2, r1
    db04:	00010140 	andeq	r0, r1, r0, asr #2
    db08:	00000004 	andeq	r0, r0, r4
    db0c:	00000193 	muleq	r0, r3, r1
    db10:	00010140 	andeq	r0, r1, r0, asr #2
    db14:	00000005 	andeq	r0, r0, r5
    db18:	00000194 	muleq	r0, r4, r1
    db1c:	00010140 	andeq	r0, r1, r0, asr #2
    db20:	00000006 	andeq	r0, r0, r6
    db24:	00000195 	muleq	r0, r5, r1
    db28:	00010140 	andeq	r0, r1, r0, asr #2
    db2c:	00000007 	andeq	r0, r0, r7
    db30:	00000196 	muleq	r0, r6, r1
    db34:	00010142 	andeq	r0, r1, r2, asr #2
    db38:	00000000 	andeq	r0, r0, r0
    db3c:	00000197 	muleq	r0, r7, r1
    db40:	00010142 	andeq	r0, r1, r2, asr #2
    db44:	00000001 	andeq	r0, r0, r1
    db48:	00000198 	muleq	r0, r8, r1
    db4c:	00010142 	andeq	r0, r1, r2, asr #2
    db50:	00000002 	andeq	r0, r0, r2
    db54:	00000199 	muleq	r0, r9, r1
    db58:	00010142 	andeq	r0, r1, r2, asr #2
    db5c:	00000003 	andeq	r0, r0, r3
    db60:	0000019a 	muleq	r0, sl, r1
    db64:	00010142 	andeq	r0, r1, r2, asr #2
    db68:	00000004 	andeq	r0, r0, r4
    db6c:	0000019b 	muleq	r0, fp, r1
    db70:	00010142 	andeq	r0, r1, r2, asr #2
    db74:	00000005 	andeq	r0, r0, r5
    db78:	0000019c 	muleq	r0, ip, r1
    db7c:	00010142 	andeq	r0, r1, r2, asr #2
    db80:	00000006 	andeq	r0, r0, r6
    db84:	0000019d 	muleq	r0, sp, r1
    db88:	00010142 	andeq	r0, r1, r2, asr #2
    db8c:	00000007 	andeq	r0, r0, r7
    db90:	0000019e 	muleq	r0, lr, r1
    db94:	000f0142 	andeq	r0, pc, r2, asr #2
    db98:	00000008 	andeq	r0, r0, r8
    db9c:	0000019f 	muleq	r0, pc, r1	; <UNPREDICTABLE>
    dba0:	00010144 	andeq	r0, r1, r4, asr #2
    dba4:	00000000 	andeq	r0, r0, r0
    dba8:	000001a0 	andeq	r0, r0, r0, lsr #3
    dbac:	00010144 	andeq	r0, r1, r4, asr #2
    dbb0:	00000001 	andeq	r0, r0, r1
    dbb4:	000001a1 	andeq	r0, r0, r1, lsr #3
    dbb8:	00010144 	andeq	r0, r1, r4, asr #2
    dbbc:	00000002 	andeq	r0, r0, r2
    dbc0:	000001a2 	andeq	r0, r0, r2, lsr #3
    dbc4:	00010144 	andeq	r0, r1, r4, asr #2
    dbc8:	00000003 	andeq	r0, r0, r3
    dbcc:	000001a3 	andeq	r0, r0, r3, lsr #3
    dbd0:	00030144 	andeq	r0, r3, r4, asr #2
    dbd4:	00000004 	andeq	r0, r0, r4
    dbd8:	000001a4 	andeq	r0, r0, r4, lsr #3
    dbdc:	00010146 	andeq	r0, r1, r6, asr #2
    dbe0:	00000000 	andeq	r0, r0, r0
    dbe4:	000001a5 	andeq	r0, r0, r5, lsr #3
    dbe8:	00010146 	andeq	r0, r1, r6, asr #2
    dbec:	00000001 	andeq	r0, r0, r1
    dbf0:	000001a6 	andeq	r0, r0, r6, lsr #3
    dbf4:	00010146 	andeq	r0, r1, r6, asr #2
    dbf8:	00000002 	andeq	r0, r0, r2
    dbfc:	000001a7 	andeq	r0, r0, r7, lsr #3
    dc00:	00010146 	andeq	r0, r1, r6, asr #2
    dc04:	00000003 	andeq	r0, r0, r3
    dc08:	000001a8 	andeq	r0, r0, r8, lsr #3
    dc0c:	00030146 	andeq	r0, r3, r6, asr #2
    dc10:	00000004 	andeq	r0, r0, r4
    dc14:	000001a9 	andeq	r0, r0, r9, lsr #3
    dc18:	00010148 	andeq	r0, r1, r8, asr #2
    dc1c:	00000000 	andeq	r0, r0, r0
    dc20:	000001aa 	andeq	r0, r0, sl, lsr #3
    dc24:	00010148 	andeq	r0, r1, r8, asr #2
    dc28:	00000001 	andeq	r0, r0, r1
    dc2c:	000001ab 	andeq	r0, r0, fp, lsr #3
    dc30:	00010148 	andeq	r0, r1, r8, asr #2
    dc34:	00000002 	andeq	r0, r0, r2
    dc38:	000001ac 	andeq	r0, r0, ip, lsr #3
    dc3c:	00010148 	andeq	r0, r1, r8, asr #2
    dc40:	00000003 	andeq	r0, r0, r3
    dc44:	000001ad 	andeq	r0, r0, sp, lsr #3
    dc48:	0001014a 	andeq	r0, r1, sl, asr #2
    dc4c:	00000000 	andeq	r0, r0, r0
    dc50:	000001ae 	andeq	r0, r0, lr, lsr #3
    dc54:	0001014a 	andeq	r0, r1, sl, asr #2
    dc58:	00000001 	andeq	r0, r0, r1
    dc5c:	000001af 	andeq	r0, r0, pc, lsr #3
    dc60:	0001014a 	andeq	r0, r1, sl, asr #2
    dc64:	00000002 	andeq	r0, r0, r2
    dc68:	000001b0 			; <UNDEFINED> instruction: 0x000001b0
    dc6c:	0001014a 	andeq	r0, r1, sl, asr #2
    dc70:	00000003 	andeq	r0, r0, r3
    dc74:	000001b1 			; <UNDEFINED> instruction: 0x000001b1
    dc78:	0001014c 	andeq	r0, r1, ip, asr #2
    dc7c:	00000000 	andeq	r0, r0, r0
    dc80:	000001b2 			; <UNDEFINED> instruction: 0x000001b2
    dc84:	0001014c 	andeq	r0, r1, ip, asr #2
    dc88:	00000001 	andeq	r0, r0, r1
    dc8c:	000001b3 			; <UNDEFINED> instruction: 0x000001b3
    dc90:	0001014c 	andeq	r0, r1, ip, asr #2
    dc94:	00000002 	andeq	r0, r0, r2
    dc98:	000001b4 			; <UNDEFINED> instruction: 0x000001b4
    dc9c:	0001014e 	andeq	r0, r1, lr, asr #2
    dca0:	00000000 	andeq	r0, r0, r0
    dca4:	000001b5 			; <UNDEFINED> instruction: 0x000001b5
    dca8:	0001014e 	andeq	r0, r1, lr, asr #2
    dcac:	00000001 	andeq	r0, r0, r1
    dcb0:	000001b6 			; <UNDEFINED> instruction: 0x000001b6
    dcb4:	0001014e 	andeq	r0, r1, lr, asr #2
    dcb8:	00000002 	andeq	r0, r0, r2
    dcbc:	000001b7 			; <UNDEFINED> instruction: 0x000001b7
    dcc0:	0001014e 	andeq	r0, r1, lr, asr #2
    dcc4:	00000003 	andeq	r0, r0, r3
    dcc8:	000001b8 			; <UNDEFINED> instruction: 0x000001b8
    dccc:	00010150 	andeq	r0, r1, r0, asr r1
    dcd0:	00000000 	andeq	r0, r0, r0
    dcd4:	000001b9 			; <UNDEFINED> instruction: 0x000001b9
    dcd8:	00010150 	andeq	r0, r1, r0, asr r1
    dcdc:	00000001 	andeq	r0, r0, r1
    dce0:	000001ba 			; <UNDEFINED> instruction: 0x000001ba
    dce4:	00010150 	andeq	r0, r1, r0, asr r1
    dce8:	00000002 	andeq	r0, r0, r2
    dcec:	000001bb 			; <UNDEFINED> instruction: 0x000001bb
    dcf0:	00010150 	andeq	r0, r1, r0, asr r1
    dcf4:	00000003 	andeq	r0, r0, r3
    dcf8:	000001bc 			; <UNDEFINED> instruction: 0x000001bc
    dcfc:	000f0152 	andeq	r0, pc, r2, asr r1	; <UNPREDICTABLE>
    dd00:	00000000 	andeq	r0, r0, r0
    dd04:	000001bd 			; <UNDEFINED> instruction: 0x000001bd
    dd08:	000f0152 	andeq	r0, pc, r2, asr r1	; <UNPREDICTABLE>
    dd0c:	00000004 	andeq	r0, r0, r4
    dd10:	000001be 			; <UNDEFINED> instruction: 0x000001be
    dd14:	000f0152 	andeq	r0, pc, r2, asr r1	; <UNPREDICTABLE>
    dd18:	00000008 	andeq	r0, r0, r8
    dd1c:	000001bf 			; <UNDEFINED> instruction: 0x000001bf
    dd20:	000f0154 	andeq	r0, pc, r4, asr r1	; <UNPREDICTABLE>
    dd24:	00000000 	andeq	r0, r0, r0
    dd28:	000001c0 	andeq	r0, r0, r0, asr #3
    dd2c:	000f0154 	andeq	r0, pc, r4, asr r1	; <UNPREDICTABLE>
    dd30:	00000004 	andeq	r0, r0, r4
    dd34:	000001c1 	andeq	r0, r0, r1, asr #3
    dd38:	000f0154 	andeq	r0, pc, r4, asr r1	; <UNPREDICTABLE>
    dd3c:	00000008 	andeq	r0, r0, r8
    dd40:	000001c2 	andeq	r0, r0, r2, asr #3
    dd44:	000f0154 	andeq	r0, pc, r4, asr r1	; <UNPREDICTABLE>
    dd48:	0000000c 	andeq	r0, r0, ip
    dd4c:	000001c3 	andeq	r0, r0, r3, asr #3
    dd50:	000f0156 	andeq	r0, pc, r6, asr r1	; <UNPREDICTABLE>
    dd54:	00000000 	andeq	r0, r0, r0
    dd58:	000001c4 	andeq	r0, r0, r4, asr #3
    dd5c:	000f0156 	andeq	r0, pc, r6, asr r1	; <UNPREDICTABLE>
    dd60:	00000004 	andeq	r0, r0, r4
    dd64:	000001c5 	andeq	r0, r0, r5, asr #3
    dd68:	000f0156 	andeq	r0, pc, r6, asr r1	; <UNPREDICTABLE>
    dd6c:	00000008 	andeq	r0, r0, r8
    dd70:	000001c6 	andeq	r0, r0, r6, asr #3
    dd74:	000f0158 	andeq	r0, pc, r8, asr r1	; <UNPREDICTABLE>
    dd78:	00000000 	andeq	r0, r0, r0
    dd7c:	000001c7 	andeq	r0, r0, r7, asr #3
    dd80:	000f0158 	andeq	r0, pc, r8, asr r1	; <UNPREDICTABLE>
    dd84:	00000004 	andeq	r0, r0, r4
    dd88:	000001c8 	andeq	r0, r0, r8, asr #3
    dd8c:	000f0158 	andeq	r0, pc, r8, asr r1	; <UNPREDICTABLE>
    dd90:	00000008 	andeq	r0, r0, r8
    dd94:	000001c9 	andeq	r0, r0, r9, asr #3
    dd98:	000f0158 	andeq	r0, pc, r8, asr r1	; <UNPREDICTABLE>
    dd9c:	0000000c 	andeq	r0, r0, ip
    dda0:	000001ca 	andeq	r0, r0, sl, asr #3
    dda4:	000f015a 	andeq	r0, pc, sl, asr r1	; <UNPREDICTABLE>
    dda8:	00000000 	andeq	r0, r0, r0
    ddac:	000001cb 	andeq	r0, r0, fp, asr #3
    ddb0:	000f015a 	andeq	r0, pc, sl, asr r1	; <UNPREDICTABLE>
    ddb4:	00000004 	andeq	r0, r0, r4
    ddb8:	000001cc 	andeq	r0, r0, ip, asr #3
    ddbc:	000f015a 	andeq	r0, pc, sl, asr r1	; <UNPREDICTABLE>
    ddc0:	00000008 	andeq	r0, r0, r8
    ddc4:	000001cd 	andeq	r0, r0, sp, asr #3
    ddc8:	000f015a 	andeq	r0, pc, sl, asr r1	; <UNPREDICTABLE>
    ddcc:	0000000c 	andeq	r0, r0, ip
    ddd0:	000001ce 	andeq	r0, r0, lr, asr #3
    ddd4:	000f015c 	andeq	r0, pc, ip, asr r1	; <UNPREDICTABLE>
    ddd8:	00000000 	andeq	r0, r0, r0
    dddc:	000001cf 	andeq	r0, r0, pc, asr #3
    dde0:	000f015c 	andeq	r0, pc, ip, asr r1	; <UNPREDICTABLE>
    dde4:	00000004 	andeq	r0, r0, r4
    dde8:	000001d0 	ldrdeq	r0, [r0], -r0	; <UNPREDICTABLE>
    ddec:	000f015e 	andeq	r0, pc, lr, asr r1	; <UNPREDICTABLE>
    ddf0:	00000000 	andeq	r0, r0, r0
    ddf4:	000001d1 	ldrdeq	r0, [r0], -r1
    ddf8:	000f015e 	andeq	r0, pc, lr, asr r1	; <UNPREDICTABLE>
    ddfc:	00000004 	andeq	r0, r0, r4
    de00:	000001d2 	ldrdeq	r0, [r0], -r2
    de04:	00010160 	andeq	r0, r1, r0, ror #2
    de08:	00000000 	andeq	r0, r0, r0
    de0c:	000001d3 	ldrdeq	r0, [r0], -r3
    de10:	00010160 	andeq	r0, r1, r0, ror #2
    de14:	00000001 	andeq	r0, r0, r1
    de18:	000001d4 	ldrdeq	r0, [r0], -r4
    de1c:	00010160 	andeq	r0, r1, r0, ror #2
    de20:	00000002 	andeq	r0, r0, r2
    de24:	000001d5 	ldrdeq	r0, [r0], -r5
    de28:	00010160 	andeq	r0, r1, r0, ror #2
    de2c:	00000003 	andeq	r0, r0, r3
    de30:	000001d6 	ldrdeq	r0, [r0], -r6
    de34:	00010160 	andeq	r0, r1, r0, ror #2
    de38:	00000004 	andeq	r0, r0, r4
    de3c:	000001d7 	ldrdeq	r0, [r0], -r7
    de40:	00010160 	andeq	r0, r1, r0, ror #2
    de44:	00000005 	andeq	r0, r0, r5
    de48:	000001d8 	ldrdeq	r0, [r0], -r8
    de4c:	00010160 	andeq	r0, r1, r0, ror #2
    de50:	00000006 	andeq	r0, r0, r6
    de54:	000001d9 	ldrdeq	r0, [r0], -r9
    de58:	00010160 	andeq	r0, r1, r0, ror #2
    de5c:	00000007 	andeq	r0, r0, r7
    de60:	000001da 	ldrdeq	r0, [r0], -sl
    de64:	00010160 	andeq	r0, r1, r0, ror #2
    de68:	00000008 	andeq	r0, r0, r8
    de6c:	000001db 	ldrdeq	r0, [r0], -fp
    de70:	00010160 	andeq	r0, r1, r0, ror #2
    de74:	00000009 	andeq	r0, r0, r9
    de78:	000001dc 	ldrdeq	r0, [r0], -ip
    de7c:	00010160 	andeq	r0, r1, r0, ror #2
    de80:	0000000a 	andeq	r0, r0, sl
    de84:	000001dd 	ldrdeq	r0, [r0], -sp
    de88:	00010160 	andeq	r0, r1, r0, ror #2
    de8c:	0000000b 	andeq	r0, r0, fp
    de90:	000001de 	ldrdeq	r0, [r0], -lr
    de94:	ffff0162 			; <UNDEFINED> instruction: 0xffff0162
    de98:	00000000 	andeq	r0, r0, r0
    de9c:	000001df 	ldrdeq	r0, [r0], -pc	; <UNPREDICTABLE>
    dea0:	ffff0164 			; <UNDEFINED> instruction: 0xffff0164
    dea4:	00000000 	andeq	r0, r0, r0
    dea8:	000001e0 	andeq	r0, r0, r0, ror #3
    deac:	00010166 	andeq	r0, r1, r6, ror #2
    deb0:	00000000 	andeq	r0, r0, r0
    deb4:	000001e1 	andeq	r0, r0, r1, ror #3
    deb8:	00010166 	andeq	r0, r1, r6, ror #2
    debc:	00000001 	andeq	r0, r0, r1
    dec0:	000001e2 	andeq	r0, r0, r2, ror #3
    dec4:	00010166 	andeq	r0, r1, r6, ror #2
    dec8:	00000002 	andeq	r0, r0, r2
    decc:	000001e3 	andeq	r0, r0, r3, ror #3
    ded0:	00010166 	andeq	r0, r1, r6, ror #2
    ded4:	00000003 	andeq	r0, r0, r3
    ded8:	000001e4 	andeq	r0, r0, r4, ror #3
    dedc:	00010166 	andeq	r0, r1, r6, ror #2
    dee0:	00000004 	andeq	r0, r0, r4
    dee4:	000001e5 	andeq	r0, r0, r5, ror #3
    dee8:	00010166 	andeq	r0, r1, r6, ror #2
    deec:	00000005 	andeq	r0, r0, r5
    def0:	000001e6 	andeq	r0, r0, r6, ror #3
    def4:	00010166 	andeq	r0, r1, r6, ror #2
    def8:	00000006 	andeq	r0, r0, r6
    defc:	000001e7 	andeq	r0, r0, r7, ror #3
    df00:	00010166 	andeq	r0, r1, r6, ror #2
    df04:	00000007 	andeq	r0, r0, r7
    df08:	000001e8 	andeq	r0, r0, r8, ror #3
    df0c:	ffff0168 			; <UNDEFINED> instruction: 0xffff0168
    df10:	00000000 	andeq	r0, r0, r0
    df14:	000001e9 	andeq	r0, r0, r9, ror #3
    df18:	ffff016a 			; <UNDEFINED> instruction: 0xffff016a
    df1c:	00000000 	andeq	r0, r0, r0
    df20:	000001ea 	andeq	r0, r0, sl, ror #3
    df24:	0001016c 	andeq	r0, r1, ip, ror #2
    df28:	00000000 	andeq	r0, r0, r0
    df2c:	000001eb 	andeq	r0, r0, fp, ror #3
    df30:	0001016c 	andeq	r0, r1, ip, ror #2
    df34:	00000001 	andeq	r0, r0, r1
    df38:	000001ec 	andeq	r0, r0, ip, ror #3
    df3c:	0001016c 	andeq	r0, r1, ip, ror #2
    df40:	00000002 	andeq	r0, r0, r2
    df44:	000001ed 	andeq	r0, r0, sp, ror #3
    df48:	0001016c 	andeq	r0, r1, ip, ror #2
    df4c:	00000003 	andeq	r0, r0, r3
    df50:	000001ee 	andeq	r0, r0, lr, ror #3
    df54:	0001016c 	andeq	r0, r1, ip, ror #2
    df58:	00000004 	andeq	r0, r0, r4
    df5c:	000001ef 	andeq	r0, r0, pc, ror #3
    df60:	0001016c 	andeq	r0, r1, ip, ror #2
    df64:	00000007 	andeq	r0, r0, r7
    df68:	000001f0 	strdeq	r0, [r0], -r0	; <UNPREDICTABLE>
    df6c:	ffff016e 			; <UNDEFINED> instruction: 0xffff016e
    df70:	00000000 	andeq	r0, r0, r0
    df74:	000001f1 	strdeq	r0, [r0], -r1
    df78:	ffff0170 			; <UNDEFINED> instruction: 0xffff0170
    df7c:	00000000 	andeq	r0, r0, r0
    df80:	000001f2 	strdeq	r0, [r0], -r2
    df84:	00010172 	andeq	r0, r1, r2, ror r1
    df88:	00000000 	andeq	r0, r0, r0
    df8c:	000001f3 	strdeq	r0, [r0], -r3
    df90:	00010172 	andeq	r0, r1, r2, ror r1
    df94:	00000001 	andeq	r0, r0, r1
    df98:	000001f4 	strdeq	r0, [r0], -r4
    df9c:	00010172 	andeq	r0, r1, r2, ror r1
    dfa0:	00000002 	andeq	r0, r0, r2
    dfa4:	000001f5 	strdeq	r0, [r0], -r5
    dfa8:	00010172 	andeq	r0, r1, r2, ror r1
    dfac:	00000003 	andeq	r0, r0, r3
    dfb0:	000001f6 	strdeq	r0, [r0], -r6
    dfb4:	00010172 	andeq	r0, r1, r2, ror r1
    dfb8:	00000004 	andeq	r0, r0, r4
    dfbc:	000001f7 	strdeq	r0, [r0], -r7
    dfc0:	00010172 	andeq	r0, r1, r2, ror r1
    dfc4:	00000005 	andeq	r0, r0, r5
    dfc8:	000001f8 	strdeq	r0, [r0], -r8
    dfcc:	00010172 	andeq	r0, r1, r2, ror r1
    dfd0:	00000006 	andeq	r0, r0, r6
    dfd4:	000001f9 	strdeq	r0, [r0], -r9
    dfd8:	00010172 	andeq	r0, r1, r2, ror r1
    dfdc:	00000007 	andeq	r0, r0, r7
    dfe0:	000001fa 	strdeq	r0, [r0], -sl
    dfe4:	00010172 	andeq	r0, r1, r2, ror r1
    dfe8:	00000008 	andeq	r0, r0, r8
    dfec:	000001fb 	strdeq	r0, [r0], -fp
    dff0:	00010172 	andeq	r0, r1, r2, ror r1
    dff4:	00000009 	andeq	r0, r0, r9
    dff8:	000001fc 	strdeq	r0, [r0], -ip
    dffc:	00010172 	andeq	r0, r1, r2, ror r1
    e000:	0000000a 	andeq	r0, r0, sl
    e004:	000001fd 	strdeq	r0, [r0], -sp
    e008:	00010172 	andeq	r0, r1, r2, ror r1
    e00c:	0000000b 	andeq	r0, r0, fp
    e010:	000001fe 	strdeq	r0, [r0], -lr
    e014:	00010174 	andeq	r0, r1, r4, ror r1
    e018:	00000000 	andeq	r0, r0, r0
    e01c:	000001ff 	strdeq	r0, [r0], -pc	; <UNPREDICTABLE>
    e020:	00010174 	andeq	r0, r1, r4, ror r1
    e024:	00000001 	andeq	r0, r0, r1
    e028:	00000200 	andeq	r0, r0, r0, lsl #4
    e02c:	00010174 	andeq	r0, r1, r4, ror r1
    e030:	00000002 	andeq	r0, r0, r2
    e034:	00000201 	andeq	r0, r0, r1, lsl #4
    e038:	00010174 	andeq	r0, r1, r4, ror r1
    e03c:	00000003 	andeq	r0, r0, r3
    e040:	00000202 	andeq	r0, r0, r2, lsl #4
    e044:	00010174 	andeq	r0, r1, r4, ror r1
    e048:	00000004 	andeq	r0, r0, r4
    e04c:	00000203 	andeq	r0, r0, r3, lsl #4
    e050:	00010174 	andeq	r0, r1, r4, ror r1
    e054:	00000005 	andeq	r0, r0, r5
    e058:	00000204 	andeq	r0, r0, r4, lsl #4
    e05c:	00010174 	andeq	r0, r1, r4, ror r1
    e060:	00000006 	andeq	r0, r0, r6
    e064:	00000205 	andeq	r0, r0, r5, lsl #4
    e068:	00010174 	andeq	r0, r1, r4, ror r1
    e06c:	00000007 	andeq	r0, r0, r7
    e070:	00000206 	andeq	r0, r0, r6, lsl #4
    e074:	00030176 	andeq	r0, r3, r6, ror r1
    e078:	00000000 	andeq	r0, r0, r0
    e07c:	00000207 	andeq	r0, r0, r7, lsl #4
    e080:	00030178 	andeq	r0, r3, r8, ror r1
    e084:	00000000 	andeq	r0, r0, r0
    e088:	00000208 	andeq	r0, r0, r8, lsl #4
    e08c:	0003017a 	andeq	r0, r3, sl, ror r1
    e090:	00000000 	andeq	r0, r0, r0
    e094:	00000209 	andeq	r0, r0, r9, lsl #4
    e098:	0003017c 	andeq	r0, r3, ip, ror r1
    e09c:	00000000 	andeq	r0, r0, r0
    e0a0:	0000020a 	andeq	r0, r0, sl, lsl #4
    e0a4:	0003017c 	andeq	r0, r3, ip, ror r1
    e0a8:	00000002 	andeq	r0, r0, r2
    e0ac:	0000020b 	andeq	r0, r0, fp, lsl #4
    e0b0:	0001017c 	andeq	r0, r1, ip, ror r1
    e0b4:	00000004 	andeq	r0, r0, r4
    e0b8:	0000020c 	andeq	r0, r0, ip, lsl #4
    e0bc:	0003017e 	andeq	r0, r3, lr, ror r1
    e0c0:	00000000 	andeq	r0, r0, r0
    e0c4:	0000020d 	andeq	r0, r0, sp, lsl #4
    e0c8:	0003017e 	andeq	r0, r3, lr, ror r1
    e0cc:	00000002 	andeq	r0, r0, r2
    e0d0:	0000020e 	andeq	r0, r0, lr, lsl #4
    e0d4:	0001017e 	andeq	r0, r1, lr, ror r1
    e0d8:	00000004 	andeq	r0, r0, r4
    e0dc:	0000020f 	andeq	r0, r0, pc, lsl #4
    e0e0:	00030180 	andeq	r0, r3, r0, lsl #3
    e0e4:	00000000 	andeq	r0, r0, r0
    e0e8:	00000210 	andeq	r0, r0, r0, lsl r2
    e0ec:	00030180 	andeq	r0, r3, r0, lsl #3
    e0f0:	00000002 	andeq	r0, r0, r2
    e0f4:	00000211 	andeq	r0, r0, r1, lsl r2
    e0f8:	00010180 	andeq	r0, r1, r0, lsl #3
    e0fc:	00000004 	andeq	r0, r0, r4
    e100:	00000212 	andeq	r0, r0, r2, lsl r2
    e104:	00070182 	andeq	r0, r7, r2, lsl #3
    e108:	00000000 	andeq	r0, r0, r0
    e10c:	00000213 	andeq	r0, r0, r3, lsl r2
    e110:	00010182 	andeq	r0, r1, r2, lsl #3
    e114:	00000003 	andeq	r0, r0, r3
    e118:	00000214 	andeq	r0, r0, r4, lsl r2
    e11c:	00010182 	andeq	r0, r1, r2, lsl #3
    e120:	0000000f 	andeq	r0, r0, pc
    e124:	00000215 	andeq	r0, r0, r5, lsl r2
    e128:	ffff0184 			; <UNDEFINED> instruction: 0xffff0184
    e12c:	00000000 	andeq	r0, r0, r0
    e130:	00000216 	andeq	r0, r0, r6, lsl r2
    e134:	ffff0186 			; <UNDEFINED> instruction: 0xffff0186
    e138:	00000000 	andeq	r0, r0, r0
    e13c:	00000217 	andeq	r0, r0, r7, lsl r2
    e140:	00010188 	andeq	r0, r1, r8, lsl #3
    e144:	00000000 	andeq	r0, r0, r0
    e148:	00000218 	andeq	r0, r0, r8, lsl r2
    e14c:	0001018a 	andeq	r0, r1, sl, lsl #3
    e150:	00000000 	andeq	r0, r0, r0
    e154:	00000219 	andeq	r0, r0, r9, lsl r2
    e158:	ffff018c 			; <UNDEFINED> instruction: 0xffff018c
    e15c:	00000000 	andeq	r0, r0, r0
    e160:	0000021a 	andeq	r0, r0, sl, lsl r2
    e164:	ffff018e 			; <UNDEFINED> instruction: 0xffff018e
    e168:	00000000 	andeq	r0, r0, r0
    e16c:	0000021b 	andeq	r0, r0, fp, lsl r2
    e170:	00010190 	muleq	r1, r0, r1
    e174:	00000000 	andeq	r0, r0, r0
    e178:	0000021c 	andeq	r0, r0, ip, lsl r2
    e17c:	00010192 	muleq	r1, r2, r1
    e180:	00000000 	andeq	r0, r0, r0
    e184:	0000021d 	andeq	r0, r0, sp, lsl r2
    e188:	00ff0194 	smlalseq	r0, pc, r4, r1	; <UNPREDICTABLE>
    e18c:	00000000 	andeq	r0, r0, r0
    e190:	0000021e 	andeq	r0, r0, lr, lsl r2
    e194:	000f0196 	muleq	pc, r6, r1	; <UNPREDICTABLE>
    e198:	00000000 	andeq	r0, r0, r0
    e19c:	0000021f 	andeq	r0, r0, pc, lsl r2
    e1a0:	00030198 	muleq	r3, r8, r1
    e1a4:	00000000 	andeq	r0, r0, r0
    e1a8:	00000220 	andeq	r0, r0, r0, lsr #4
    e1ac:	0003019a 	muleq	r3, sl, r1
    e1b0:	00000000 	andeq	r0, r0, r0
    e1b4:	00000221 	andeq	r0, r0, r1, lsr #4
    e1b8:	0001019c 	muleq	r1, ip, r1
    e1bc:	00000000 	andeq	r0, r0, r0
    e1c0:	00000222 	andeq	r0, r0, r2, lsr #4
    e1c4:	0001019e 	muleq	r1, lr, r1
    e1c8:	00000000 	andeq	r0, r0, r0
    e1cc:	00000223 	andeq	r0, r0, r3, lsr #4
    e1d0:	000101a0 	andeq	r0, r1, r0, lsr #3
    e1d4:	00000000 	andeq	r0, r0, r0
    e1d8:	00000224 	andeq	r0, r0, r4, lsr #4
    e1dc:	000101a2 	andeq	r0, r1, r2, lsr #3
    e1e0:	00000000 	andeq	r0, r0, r0
    e1e4:	00000225 	andeq	r0, r0, r5, lsr #4
    e1e8:	000f01a4 	andeq	r0, pc, r4, lsr #3
    e1ec:	00000000 	andeq	r0, r0, r0
    e1f0:	00000226 	andeq	r0, r0, r6, lsr #4
    e1f4:	000101a6 	andeq	r0, r1, r6, lsr #3
    e1f8:	00000000 	andeq	r0, r0, r0
    e1fc:	00000227 	andeq	r0, r0, r7, lsr #4
    e200:	00ff0200 	rscseq	r0, pc, r0, lsl #4
    e204:	00000008 	andeq	r0, r0, r8
    e208:	00000228 	andeq	r0, r0, r8, lsr #4
    e20c:	000f0202 	andeq	r0, pc, r2, lsl #4
    e210:	00000000 	andeq	r0, r0, r0
    e214:	00000229 	andeq	r0, r0, r9, lsr #4
    e218:	000f0202 	andeq	r0, pc, r2, lsl #4
    e21c:	00000004 	andeq	r0, r0, r4
    e220:	0000022a 	andeq	r0, r0, sl, lsr #4
    e224:	01ff0204 	mvnseq	r0, r4, lsl #4
    e228:	00000000 	andeq	r0, r0, r0
    e22c:	0000022b 	andeq	r0, r0, fp, lsr #4
    e230:	000f0204 	andeq	r0, pc, r4, lsl #4
    e234:	0000000c 	andeq	r0, r0, ip
    e238:	0000022c 	andeq	r0, r0, ip, lsr #4
    e23c:	01ff0206 	mvnseq	r0, r6, lsl #4
    e240:	00000000 	andeq	r0, r0, r0
    e244:	0000022d 	andeq	r0, r0, sp, lsr #4
    e248:	000f0206 	andeq	r0, pc, r6, lsl #4
    e24c:	0000000c 	andeq	r0, r0, ip
    e250:	0000022e 	andeq	r0, r0, lr, lsr #4
    e254:	01ff0208 	mvnseq	r0, r8, lsl #4
    e258:	00000000 	andeq	r0, r0, r0
    e25c:	0000022f 	andeq	r0, r0, pc, lsr #4
    e260:	000f0208 	andeq	r0, pc, r8, lsl #4
    e264:	0000000c 	andeq	r0, r0, ip
    e268:	00000230 	andeq	r0, r0, r0, lsr r2
    e26c:	ffff020a 			; <UNDEFINED> instruction: 0xffff020a
    e270:	00000000 	andeq	r0, r0, r0
    e274:	00000231 	andeq	r0, r0, r1, lsr r2
    e278:	0007020c 	andeq	r0, r7, ip, lsl #4
    e27c:	00000000 	andeq	r0, r0, r0
    e280:	00000232 	andeq	r0, r0, r2, lsr r2
    e284:	0007020c 	andeq	r0, r7, ip, lsl #4
    e288:	00000003 	andeq	r0, r0, r3
    e28c:	00000233 	andeq	r0, r0, r3, lsr r2
    e290:	0007020c 	andeq	r0, r7, ip, lsl #4
    e294:	00000006 	andeq	r0, r0, r6
    e298:	00000234 	andeq	r0, r0, r4, lsr r2
    e29c:	003f020c 	eorseq	r0, pc, ip, lsl #4
    e2a0:	00000009 	andeq	r0, r0, r9
    e2a4:	00000235 	andeq	r0, r0, r5, lsr r2
    e2a8:	0003020e 	andeq	r0, r3, lr, lsl #4
    e2ac:	00000000 	andeq	r0, r0, r0
    e2b0:	00000236 	andeq	r0, r0, r6, lsr r2
    e2b4:	0003020e 	andeq	r0, r3, lr, lsl #4
    e2b8:	00000004 	andeq	r0, r0, r4
    e2bc:	00000237 	andeq	r0, r0, r7, lsr r2
    e2c0:	0003020e 	andeq	r0, r3, lr, lsl #4
    e2c4:	00000006 	andeq	r0, r0, r6
    e2c8:	00000238 	andeq	r0, r0, r8, lsr r2
    e2cc:	0003020e 	andeq	r0, r3, lr, lsl #4
    e2d0:	00000008 	andeq	r0, r0, r8
    e2d4:	00000239 	andeq	r0, r0, r9, lsr r2
    e2d8:	0003020e 	andeq	r0, r3, lr, lsl #4
    e2dc:	0000000e 	andeq	r0, r0, lr
    e2e0:	0000023a 	andeq	r0, r0, sl, lsr r2
    e2e4:	00070210 	andeq	r0, r7, r0, lsl r2
    e2e8:	00000000 	andeq	r0, r0, r0
    e2ec:	0000023b 	andeq	r0, r0, fp, lsr r2
    e2f0:	00010210 	andeq	r0, r1, r0, lsl r2
    e2f4:	00000003 	andeq	r0, r0, r3
    e2f8:	0000023c 	andeq	r0, r0, ip, lsr r2
    e2fc:	00010210 	andeq	r0, r1, r0, lsl r2
    e300:	00000008 	andeq	r0, r0, r8
    e304:	0000023d 	andeq	r0, r0, sp, lsr r2
    e308:	00010210 	andeq	r0, r1, r0, lsl r2
    e30c:	00000009 	andeq	r0, r0, r9
    e310:	0000023e 	andeq	r0, r0, lr, lsr r2
    e314:	00030212 	andeq	r0, r3, r2, lsl r2
    e318:	00000000 	andeq	r0, r0, r0
    e31c:	0000023f 	andeq	r0, r0, pc, lsr r2
    e320:	00030212 	andeq	r0, r3, r2, lsl r2
    e324:	00000004 	andeq	r0, r0, r4
    e328:	00000240 	andeq	r0, r0, r0, asr #4
    e32c:	00ff0214 	rscseq	r0, pc, r4, lsl r2	; <UNPREDICTABLE>
    e330:	00000000 	andeq	r0, r0, r0
    e334:	00000241 	andeq	r0, r0, r1, asr #4
    e338:	00010216 	andeq	r0, r1, r6, lsl r2
    e33c:	00000000 	andeq	r0, r0, r0
    e340:	00000242 	andeq	r0, r0, r2, asr #4
    e344:	00010216 	andeq	r0, r1, r6, lsl r2
    e348:	00000001 	andeq	r0, r0, r1
    e34c:	00000243 	andeq	r0, r0, r3, asr #4
    e350:	00010216 	andeq	r0, r1, r6, lsl r2
    e354:	00000002 	andeq	r0, r0, r2
    e358:	00000244 	andeq	r0, r0, r4, asr #4
    e35c:	00010216 	andeq	r0, r1, r6, lsl r2
    e360:	00000003 	andeq	r0, r0, r3
    e364:	00000245 	andeq	r0, r0, r5, asr #4
    e368:	0001021a 	andeq	r0, r1, sl, lsl r2
    e36c:	00000000 	andeq	r0, r0, r0
    e370:	00000246 	andeq	r0, r0, r6, asr #4
    e374:	0001021a 	andeq	r0, r1, sl, lsl r2
    e378:	0000000c 	andeq	r0, r0, ip
    e37c:	00000247 	andeq	r0, r0, r7, asr #4
    e380:	0001021a 	andeq	r0, r1, sl, lsl r2
    e384:	0000000d 	andeq	r0, r0, sp
    e388:	00000248 	andeq	r0, r0, r8, asr #4
    e38c:	0001021a 	andeq	r0, r1, sl, lsl r2
    e390:	0000000f 	andeq	r0, r0, pc
    e394:	00000249 	andeq	r0, r0, r9, asr #4
    e398:	007f021c 	rsbseq	r0, pc, ip, lsl r2	; <UNPREDICTABLE>
    e39c:	00000000 	andeq	r0, r0, r0
    e3a0:	0000024a 	andeq	r0, r0, sl, asr #4
    e3a4:	0001021c 	andeq	r0, r1, ip, lsl r2
    e3a8:	00000007 	andeq	r0, r0, r7
    e3ac:	0000024b 	andeq	r0, r0, fp, asr #4
    e3b0:	007f021c 	rsbseq	r0, pc, ip, lsl r2	; <UNPREDICTABLE>
    e3b4:	00000008 	andeq	r0, r0, r8
    e3b8:	0000024c 	andeq	r0, r0, ip, asr #4
    e3bc:	0001021c 	andeq	r0, r1, ip, lsl r2
    e3c0:	0000000f 	andeq	r0, r0, pc
    e3c4:	0000024d 	andeq	r0, r0, sp, asr #4
    e3c8:	007f021e 	rsbseq	r0, pc, lr, lsl r2	; <UNPREDICTABLE>
    e3cc:	00000000 	andeq	r0, r0, r0
    e3d0:	0000024e 	andeq	r0, r0, lr, asr #4
    e3d4:	007f0220 	rsbseq	r0, pc, r0, lsr #4
    e3d8:	00000000 	andeq	r0, r0, r0
    e3dc:	0000024f 	andeq	r0, r0, pc, asr #4
    e3e0:	007f0222 	rsbseq	r0, pc, r2, lsr #4
    e3e4:	00000000 	andeq	r0, r0, r0
    e3e8:	00000250 	andeq	r0, r0, r0, asr r2
    e3ec:	007f0224 	rsbseq	r0, pc, r4, lsr #4
    e3f0:	00000000 	andeq	r0, r0, r0
    e3f4:	00000251 	andeq	r0, r0, r1, asr r2
    e3f8:	00030226 	andeq	r0, r3, r6, lsr #4
    e3fc:	00000000 	andeq	r0, r0, r0
    e400:	00000252 	andeq	r0, r0, r2, asr r2
    e404:	00030226 	andeq	r0, r3, r6, lsr #4
    e408:	00000004 	andeq	r0, r0, r4
    e40c:	00000253 	andeq	r0, r0, r3, asr r2
    e410:	00030226 	andeq	r0, r3, r6, lsr #4
    e414:	00000008 	andeq	r0, r0, r8
    e418:	00000254 	andeq	r0, r0, r4, asr r2
    e41c:	00030226 	andeq	r0, r3, r6, lsr #4
    e420:	0000000c 	andeq	r0, r0, ip
    e424:	00000255 	andeq	r0, r0, r5, asr r2
    e428:	00030228 	andeq	r0, r3, r8, lsr #4
    e42c:	00000000 	andeq	r0, r0, r0
    e430:	00000256 	andeq	r0, r0, r6, asr r2
    e434:	00030228 	andeq	r0, r3, r8, lsr #4
    e438:	00000004 	andeq	r0, r0, r4
    e43c:	00000257 	andeq	r0, r0, r7, asr r2
    e440:	00030228 	andeq	r0, r3, r8, lsr #4
    e444:	00000008 	andeq	r0, r0, r8
    e448:	00000258 	andeq	r0, r0, r8, asr r2
    e44c:	00030228 	andeq	r0, r3, r8, lsr #4
    e450:	0000000c 	andeq	r0, r0, ip
    e454:	00000259 	andeq	r0, r0, r9, asr r2
    e458:	0003022a 	andeq	r0, r3, sl, lsr #4
    e45c:	00000000 	andeq	r0, r0, r0
    e460:	0000025a 	andeq	r0, r0, sl, asr r2
    e464:	0003022a 	andeq	r0, r3, sl, lsr #4
    e468:	00000004 	andeq	r0, r0, r4
    e46c:	0000025b 	andeq	r0, r0, fp, asr r2
    e470:	0003022a 	andeq	r0, r3, sl, lsr #4
    e474:	00000008 	andeq	r0, r0, r8
    e478:	0000025c 	andeq	r0, r0, ip, asr r2
    e47c:	0003022a 	andeq	r0, r3, sl, lsr #4
    e480:	0000000c 	andeq	r0, r0, ip
    e484:	0000025d 	andeq	r0, r0, sp, asr r2
    e488:	00030230 	andeq	r0, r3, r0, lsr r2
    e48c:	00000000 	andeq	r0, r0, r0
    e490:	0000025e 	andeq	r0, r0, lr, asr r2
    e494:	00030230 	andeq	r0, r3, r0, lsr r2
    e498:	00000004 	andeq	r0, r0, r4
    e49c:	0000025f 	andeq	r0, r0, pc, asr r2
    e4a0:	00010230 	andeq	r0, r1, r0, lsr r2
    e4a4:	00000006 	andeq	r0, r0, r6
    e4a8:	00000260 	andeq	r0, r0, r0, ror #4
    e4ac:	00010230 	andeq	r0, r1, r0, lsr r2
    e4b0:	00000007 	andeq	r0, r0, r7
    e4b4:	00000261 	andeq	r0, r0, r1, ror #4
    e4b8:	00010230 	andeq	r0, r1, r0, lsr r2
    e4bc:	00000008 	andeq	r0, r0, r8
    e4c0:	00000262 	andeq	r0, r0, r2, ror #4
    e4c4:	00010230 	andeq	r0, r1, r0, lsr r2
    e4c8:	0000000a 	andeq	r0, r0, sl
    e4cc:	00000263 	andeq	r0, r0, r3, ror #4
    e4d0:	00010230 	andeq	r0, r1, r0, lsr r2
    e4d4:	0000000b 	andeq	r0, r0, fp
    e4d8:	00000264 	andeq	r0, r0, r4, ror #4
    e4dc:	00010230 	andeq	r0, r1, r0, lsr r2
    e4e0:	0000000e 	andeq	r0, r0, lr
    e4e4:	00000265 	andeq	r0, r0, r5, ror #4
    e4e8:	00010230 	andeq	r0, r1, r0, lsr r2
    e4ec:	0000000f 	andeq	r0, r0, pc
    e4f0:	00000266 	andeq	r0, r0, r6, ror #4
    e4f4:	00070232 	andeq	r0, r7, r2, lsr r2
    e4f8:	00000000 	andeq	r0, r0, r0
    e4fc:	00000267 	andeq	r0, r0, r7, ror #4
    e500:	00070232 	andeq	r0, r7, r2, lsr r2
    e504:	00000003 	andeq	r0, r0, r3
    e508:	00000268 	andeq	r0, r0, r8, ror #4
    e50c:	00070232 	andeq	r0, r7, r2, lsr r2
    e510:	00000006 	andeq	r0, r0, r6
    e514:	00000269 	andeq	r0, r0, r9, ror #4
    e518:	003f0232 	eorseq	r0, pc, r2, lsr r2	; <UNPREDICTABLE>
    e51c:	00000009 	andeq	r0, r0, r9
    e520:	0000026a 	andeq	r0, r0, sl, ror #4
    e524:	00030234 	andeq	r0, r3, r4, lsr r2
    e528:	00000000 	andeq	r0, r0, r0
    e52c:	0000026b 	andeq	r0, r0, fp, ror #4
    e530:	00030234 	andeq	r0, r3, r4, lsr r2
    e534:	00000004 	andeq	r0, r0, r4
    e538:	0000026c 	andeq	r0, r0, ip, ror #4
    e53c:	00030234 	andeq	r0, r3, r4, lsr r2
    e540:	00000006 	andeq	r0, r0, r6
    e544:	0000026d 	andeq	r0, r0, sp, ror #4
    e548:	00030234 	andeq	r0, r3, r4, lsr r2
    e54c:	00000008 	andeq	r0, r0, r8
    e550:	0000026e 	andeq	r0, r0, lr, ror #4
    e554:	00030234 	andeq	r0, r3, r4, lsr r2
    e558:	0000000e 	andeq	r0, r0, lr
    e55c:	0000026f 	andeq	r0, r0, pc, ror #4
    e560:	00070236 	andeq	r0, r7, r6, lsr r2
    e564:	00000000 	andeq	r0, r0, r0
    e568:	00000270 	andeq	r0, r0, r0, ror r2
    e56c:	00010236 	andeq	r0, r1, r6, lsr r2
    e570:	00000003 	andeq	r0, r0, r3
    e574:	00000271 	andeq	r0, r0, r1, ror r2
    e578:	00010236 	andeq	r0, r1, r6, lsr r2
    e57c:	00000008 	andeq	r0, r0, r8
    e580:	00000272 	andeq	r0, r0, r2, ror r2
    e584:	00010236 	andeq	r0, r1, r6, lsr r2
    e588:	00000009 	andeq	r0, r0, r9
    e58c:	00000273 	andeq	r0, r0, r3, ror r2
    e590:	00030238 	andeq	r0, r3, r8, lsr r2
    e594:	00000000 	andeq	r0, r0, r0
    e598:	00000274 	andeq	r0, r0, r4, ror r2
    e59c:	00030238 	andeq	r0, r3, r8, lsr r2
    e5a0:	00000004 	andeq	r0, r0, r4
    e5a4:	00000275 	andeq	r0, r0, r5, ror r2
    e5a8:	00ff023a 	rscseq	r0, pc, sl, lsr r2	; <UNPREDICTABLE>
    e5ac:	00000000 	andeq	r0, r0, r0
    e5b0:	00000276 	andeq	r0, r0, r6, ror r2
    e5b4:	0001023c 	andeq	r0, r1, ip, lsr r2
    e5b8:	00000000 	andeq	r0, r0, r0
    e5bc:	00000277 	andeq	r0, r0, r7, ror r2
    e5c0:	0001023c 	andeq	r0, r1, ip, lsr r2
    e5c4:	00000001 	andeq	r0, r0, r1
    e5c8:	00000278 	andeq	r0, r0, r8, ror r2
    e5cc:	0001023c 	andeq	r0, r1, ip, lsr r2
    e5d0:	00000002 	andeq	r0, r0, r2
    e5d4:	00000279 	andeq	r0, r0, r9, ror r2
    e5d8:	0001023c 	andeq	r0, r1, ip, lsr r2
    e5dc:	00000003 	andeq	r0, r0, r3
    e5e0:	0000027a 	andeq	r0, r0, sl, ror r2
    e5e4:	00010240 	andeq	r0, r1, r0, asr #4
    e5e8:	00000000 	andeq	r0, r0, r0
    e5ec:	0000027b 	andeq	r0, r0, fp, ror r2
    e5f0:	00010240 	andeq	r0, r1, r0, asr #4
    e5f4:	0000000c 	andeq	r0, r0, ip
    e5f8:	0000027c 	andeq	r0, r0, ip, ror r2
    e5fc:	00010240 	andeq	r0, r1, r0, asr #4
    e600:	0000000d 	andeq	r0, r0, sp
    e604:	0000027d 	andeq	r0, r0, sp, ror r2
    e608:	00010240 	andeq	r0, r1, r0, asr #4
    e60c:	0000000f 	andeq	r0, r0, pc
    e610:	0000027e 	andeq	r0, r0, lr, ror r2
    e614:	007f0242 	rsbseq	r0, pc, r2, asr #4
    e618:	00000000 	andeq	r0, r0, r0
    e61c:	0000027f 	andeq	r0, r0, pc, ror r2
    e620:	00010242 	andeq	r0, r1, r2, asr #4
    e624:	00000007 	andeq	r0, r0, r7
    e628:	00000280 	andeq	r0, r0, r0, lsl #5
    e62c:	007f0242 	rsbseq	r0, pc, r2, asr #4
    e630:	00000008 	andeq	r0, r0, r8
    e634:	00000281 	andeq	r0, r0, r1, lsl #5
    e638:	00010242 	andeq	r0, r1, r2, asr #4
    e63c:	0000000f 	andeq	r0, r0, pc
    e640:	00000282 	andeq	r0, r0, r2, lsl #5
    e644:	007f0244 	rsbseq	r0, pc, r4, asr #4
    e648:	00000000 	andeq	r0, r0, r0
    e64c:	00000283 	andeq	r0, r0, r3, lsl #5
    e650:	007f0246 	rsbseq	r0, pc, r6, asr #4
    e654:	00000000 	andeq	r0, r0, r0
    e658:	00000284 	andeq	r0, r0, r4, lsl #5
    e65c:	007f0248 	rsbseq	r0, pc, r8, asr #4
    e660:	00000000 	andeq	r0, r0, r0
    e664:	00000285 	andeq	r0, r0, r5, lsl #5
    e668:	007f024a 	rsbseq	r0, pc, sl, asr #4
    e66c:	00000000 	andeq	r0, r0, r0
    e670:	00000286 	andeq	r0, r0, r6, lsl #5
    e674:	0003024c 	andeq	r0, r3, ip, asr #4
    e678:	00000000 	andeq	r0, r0, r0
    e67c:	00000287 	andeq	r0, r0, r7, lsl #5
    e680:	0003024c 	andeq	r0, r3, ip, asr #4
    e684:	00000004 	andeq	r0, r0, r4
    e688:	00000288 	andeq	r0, r0, r8, lsl #5
    e68c:	0003024c 	andeq	r0, r3, ip, asr #4
    e690:	00000008 	andeq	r0, r0, r8
    e694:	00000289 	andeq	r0, r0, r9, lsl #5
    e698:	0003024c 	andeq	r0, r3, ip, asr #4
    e69c:	0000000c 	andeq	r0, r0, ip
    e6a0:	0000028a 	andeq	r0, r0, sl, lsl #5
    e6a4:	0003024e 	andeq	r0, r3, lr, asr #4
    e6a8:	00000000 	andeq	r0, r0, r0
    e6ac:	0000028b 	andeq	r0, r0, fp, lsl #5
    e6b0:	0003024e 	andeq	r0, r3, lr, asr #4
    e6b4:	00000004 	andeq	r0, r0, r4
    e6b8:	0000028c 	andeq	r0, r0, ip, lsl #5
    e6bc:	0003024e 	andeq	r0, r3, lr, asr #4
    e6c0:	00000008 	andeq	r0, r0, r8
    e6c4:	0000028d 	andeq	r0, r0, sp, lsl #5
    e6c8:	0003024e 	andeq	r0, r3, lr, asr #4
    e6cc:	0000000c 	andeq	r0, r0, ip
    e6d0:	0000028e 	andeq	r0, r0, lr, lsl #5
    e6d4:	00030250 	andeq	r0, r3, r0, asr r2
    e6d8:	00000000 	andeq	r0, r0, r0
    e6dc:	0000028f 	andeq	r0, r0, pc, lsl #5
    e6e0:	00030250 	andeq	r0, r3, r0, asr r2
    e6e4:	00000004 	andeq	r0, r0, r4
    e6e8:	00000290 	muleq	r0, r0, r2
    e6ec:	00030250 	andeq	r0, r3, r0, asr r2
    e6f0:	00000008 	andeq	r0, r0, r8
    e6f4:	00000291 	muleq	r0, r1, r2
    e6f8:	00030250 	andeq	r0, r3, r0, asr r2
    e6fc:	0000000c 	andeq	r0, r0, ip
    e700:	00000292 	muleq	r0, r2, r2
    e704:	00030256 	andeq	r0, r3, r6, asr r2
    e708:	00000000 	andeq	r0, r0, r0
    e70c:	00000293 	muleq	r0, r3, r2
    e710:	00030256 	andeq	r0, r3, r6, asr r2
    e714:	00000004 	andeq	r0, r0, r4
    e718:	00000294 	muleq	r0, r4, r2
    e71c:	00010256 	andeq	r0, r1, r6, asr r2
    e720:	00000006 	andeq	r0, r0, r6
    e724:	00000295 	muleq	r0, r5, r2
    e728:	00010256 	andeq	r0, r1, r6, asr r2
    e72c:	00000007 	andeq	r0, r0, r7
    e730:	00000296 	muleq	r0, r6, r2
    e734:	00010256 	andeq	r0, r1, r6, asr r2
    e738:	00000008 	andeq	r0, r0, r8
    e73c:	00000297 	muleq	r0, r7, r2
    e740:	00010256 	andeq	r0, r1, r6, asr r2
    e744:	0000000a 	andeq	r0, r0, sl
    e748:	00000298 	muleq	r0, r8, r2
    e74c:	00010256 	andeq	r0, r1, r6, asr r2
    e750:	0000000b 	andeq	r0, r0, fp
    e754:	00000299 	muleq	r0, r9, r2
    e758:	00010256 	andeq	r0, r1, r6, asr r2
    e75c:	0000000e 	andeq	r0, r0, lr
    e760:	0000029a 	muleq	r0, sl, r2
    e764:	00010256 	andeq	r0, r1, r6, asr r2
    e768:	0000000f 	andeq	r0, r0, pc
    e76c:	0000029b 	muleq	r0, fp, r2
    e770:	00070300 	andeq	r0, r7, r0, lsl #6
    e774:	00000000 	andeq	r0, r0, r0
    e778:	0000029c 	muleq	r0, ip, r2
    e77c:	00070300 	andeq	r0, r7, r0, lsl #6
    e780:	00000003 	andeq	r0, r0, r3
    e784:	0000029d 	muleq	r0, sp, r2
    e788:	00030302 	andeq	r0, r3, r2, lsl #6
    e78c:	00000000 	andeq	r0, r0, r0
    e790:	0000029e 	muleq	r0, lr, r2
    e794:	00030302 	andeq	r0, r3, r2, lsl #6
    e798:	00000004 	andeq	r0, r0, r4
    e79c:	0000029f 	muleq	r0, pc, r2	; <UNPREDICTABLE>
    e7a0:	00030302 	andeq	r0, r3, r2, lsl #6
    e7a4:	00000006 	andeq	r0, r0, r6
    e7a8:	000002a0 	andeq	r0, r0, r0, lsr #5
    e7ac:	00030302 	andeq	r0, r3, r2, lsl #6
    e7b0:	00000008 	andeq	r0, r0, r8
    e7b4:	000002a1 	andeq	r0, r0, r1, lsr #5
    e7b8:	00030302 	andeq	r0, r3, r2, lsl #6
    e7bc:	0000000a 	andeq	r0, r0, sl
    e7c0:	000002a2 	andeq	r0, r0, r2, lsr #5
    e7c4:	00030302 	andeq	r0, r3, r2, lsl #6
    e7c8:	0000000c 	andeq	r0, r0, ip
    e7cc:	000002a3 	andeq	r0, r0, r3, lsr #5
    e7d0:	00030302 	andeq	r0, r3, r2, lsl #6
    e7d4:	0000000e 	andeq	r0, r0, lr
    e7d8:	000002a4 	andeq	r0, r0, r4, lsr #5
    e7dc:	00010304 	andeq	r0, r1, r4, lsl #6
    e7e0:	00000008 	andeq	r0, r0, r8
    e7e4:	000002a5 	andeq	r0, r0, r5, lsr #5
    e7e8:	00010304 	andeq	r0, r1, r4, lsl #6
    e7ec:	00000009 	andeq	r0, r0, r9
    e7f0:	000002a6 	andeq	r0, r0, r6, lsr #5
    e7f4:	00030304 	andeq	r0, r3, r4, lsl #6
    e7f8:	0000000c 	andeq	r0, r0, ip
    e7fc:	000002a7 	andeq	r0, r0, r7, lsr #5
    e800:	00030304 	andeq	r0, r3, r4, lsl #6
    e804:	0000000e 	andeq	r0, r0, lr
    e808:	000002a8 	andeq	r0, r0, r8, lsr #5
    e80c:	00030306 	andeq	r0, r3, r6, lsl #6
    e810:	00000000 	andeq	r0, r0, r0
    e814:	000002a9 	andeq	r0, r0, r9, lsr #5
    e818:	00010306 	andeq	r0, r1, r6, lsl #6
    e81c:	00000006 	andeq	r0, r0, r6
    e820:	000002aa 	andeq	r0, r0, sl, lsr #5
    e824:	ffff0308 			; <UNDEFINED> instruction: 0xffff0308
    e828:	00000000 	andeq	r0, r0, r0
    e82c:	000002ab 	andeq	r0, r0, fp, lsr #5
    e830:	0001030a 	andeq	r0, r1, sl, lsl #6
    e834:	00000000 	andeq	r0, r0, r0
    e838:	000002ac 	andeq	r0, r0, ip, lsr #5
    e83c:	0001030a 	andeq	r0, r1, sl, lsl #6
    e840:	00000001 	andeq	r0, r0, r1
    e844:	000002ad 	andeq	r0, r0, sp, lsr #5
    e848:	0001030a 	andeq	r0, r1, sl, lsl #6
    e84c:	00000002 	andeq	r0, r0, r2
    e850:	000002ae 	andeq	r0, r0, lr, lsr #5
    e854:	0001030a 	andeq	r0, r1, sl, lsl #6
    e858:	00000003 	andeq	r0, r0, r3
    e85c:	000002af 	andeq	r0, r0, pc, lsr #5
    e860:	0001030e 	andeq	r0, r1, lr, lsl #6
    e864:	00000000 	andeq	r0, r0, r0
    e868:	000002b0 			; <UNDEFINED> instruction: 0x000002b0
    e86c:	0001030e 	andeq	r0, r1, lr, lsl #6
    e870:	0000000c 	andeq	r0, r0, ip
    e874:	000002b1 			; <UNDEFINED> instruction: 0x000002b1
    e878:	0001030e 	andeq	r0, r1, lr, lsl #6
    e87c:	0000000d 	andeq	r0, r0, sp
    e880:	000002b2 			; <UNDEFINED> instruction: 0x000002b2
    e884:	0001030e 	andeq	r0, r1, lr, lsl #6
    e888:	0000000f 	andeq	r0, r0, pc
    e88c:	000002b3 			; <UNDEFINED> instruction: 0x000002b3
    e890:	007f0310 	rsbseq	r0, pc, r0, lsl r3	; <UNPREDICTABLE>
    e894:	00000000 	andeq	r0, r0, r0
    e898:	000002b4 			; <UNDEFINED> instruction: 0x000002b4
    e89c:	00010310 	andeq	r0, r1, r0, lsl r3
    e8a0:	00000007 	andeq	r0, r0, r7
    e8a4:	000002b5 			; <UNDEFINED> instruction: 0x000002b5
    e8a8:	007f0310 	rsbseq	r0, pc, r0, lsl r3	; <UNPREDICTABLE>
    e8ac:	00000008 	andeq	r0, r0, r8
    e8b0:	000002b6 			; <UNDEFINED> instruction: 0x000002b6
    e8b4:	00010310 	andeq	r0, r1, r0, lsl r3
    e8b8:	0000000f 	andeq	r0, r0, pc
    e8bc:	000002b7 			; <UNDEFINED> instruction: 0x000002b7
    e8c0:	003f0312 	eorseq	r0, pc, r2, lsl r3	; <UNPREDICTABLE>
    e8c4:	00000000 	andeq	r0, r0, r0
    e8c8:	000002b8 			; <UNDEFINED> instruction: 0x000002b8
    e8cc:	003f0314 	eorseq	r0, pc, r4, lsl r3	; <UNPREDICTABLE>
    e8d0:	00000000 	andeq	r0, r0, r0
    e8d4:	000002b9 			; <UNDEFINED> instruction: 0x000002b9
    e8d8:	003f0316 	eorseq	r0, pc, r6, lsl r3	; <UNPREDICTABLE>
    e8dc:	00000000 	andeq	r0, r0, r0
    e8e0:	000002ba 			; <UNDEFINED> instruction: 0x000002ba
    e8e4:	003f0318 	eorseq	r0, pc, r8, lsl r3	; <UNPREDICTABLE>
    e8e8:	00000000 	andeq	r0, r0, r0
    e8ec:	000002bb 			; <UNDEFINED> instruction: 0x000002bb
    e8f0:	0007031c 	andeq	r0, r7, ip, lsl r3
    e8f4:	00000000 	andeq	r0, r0, r0
    e8f8:	000002bc 			; <UNDEFINED> instruction: 0x000002bc
    e8fc:	0007031c 	andeq	r0, r7, ip, lsl r3
    e900:	00000004 	andeq	r0, r0, r4
    e904:	000002bd 			; <UNDEFINED> instruction: 0x000002bd
    e908:	0007031c 	andeq	r0, r7, ip, lsl r3
    e90c:	00000008 	andeq	r0, r0, r8
    e910:	000002be 			; <UNDEFINED> instruction: 0x000002be
    e914:	0007031c 	andeq	r0, r7, ip, lsl r3
    e918:	0000000c 	andeq	r0, r0, ip
    e91c:	000002bf 			; <UNDEFINED> instruction: 0x000002bf
    e920:	00030320 	andeq	r0, r3, r0, lsr #6
    e924:	00000000 	andeq	r0, r0, r0
    e928:	000002c0 	andeq	r0, r0, r0, asr #5
    e92c:	00030320 	andeq	r0, r3, r0, lsr #6
    e930:	00000004 	andeq	r0, r0, r4
    e934:	000002c1 	andeq	r0, r0, r1, asr #5
    e938:	00030320 	andeq	r0, r3, r0, lsr #6
    e93c:	00000008 	andeq	r0, r0, r8
    e940:	000002c2 	andeq	r0, r0, r2, asr #5
    e944:	00030320 	andeq	r0, r3, r0, lsr #6
    e948:	0000000c 	andeq	r0, r0, ip
    e94c:	000002c3 	andeq	r0, r0, r3, asr #5
    e950:	00030322 	andeq	r0, r3, r2, lsr #6
    e954:	00000000 	andeq	r0, r0, r0
    e958:	000002c4 	andeq	r0, r0, r4, asr #5
    e95c:	00030322 	andeq	r0, r3, r2, lsr #6
    e960:	00000004 	andeq	r0, r0, r4
    e964:	000002c5 	andeq	r0, r0, r5, asr #5
    e968:	00030322 	andeq	r0, r3, r2, lsr #6
    e96c:	00000008 	andeq	r0, r0, r8
    e970:	000002c6 	andeq	r0, r0, r6, asr #5
    e974:	00030322 	andeq	r0, r3, r2, lsr #6
    e978:	0000000c 	andeq	r0, r0, ip
    e97c:	000002c7 	andeq	r0, r0, r7, asr #5
    e980:	00030324 	andeq	r0, r3, r4, lsr #6
    e984:	00000000 	andeq	r0, r0, r0
    e988:	000002c8 	andeq	r0, r0, r8, asr #5
    e98c:	00030324 	andeq	r0, r3, r4, lsr #6
    e990:	00000004 	andeq	r0, r0, r4
    e994:	000002c9 	andeq	r0, r0, r9, asr #5
    e998:	00010324 	andeq	r0, r1, r4, lsr #6
    e99c:	00000006 	andeq	r0, r0, r6
    e9a0:	000002ca 	andeq	r0, r0, sl, asr #5
    e9a4:	00010324 	andeq	r0, r1, r4, lsr #6
    e9a8:	00000007 	andeq	r0, r0, r7
    e9ac:	000002cb 	andeq	r0, r0, fp, asr #5
    e9b0:	00010326 	andeq	r0, r1, r6, lsr #6
    e9b4:	00000000 	andeq	r0, r0, r0
    e9b8:	000002cc 	andeq	r0, r0, ip, asr #5
    e9bc:	003f0326 	eorseq	r0, pc, r6, lsr #6
    e9c0:	00000008 	andeq	r0, r0, r8
    e9c4:	000002cd 	andeq	r0, r0, sp, asr #5
    e9c8:	003f0328 	eorseq	r0, pc, r8, lsr #6
    e9cc:	00000000 	andeq	r0, r0, r0
    e9d0:	000002ce 	andeq	r0, r0, lr, asr #5
    e9d4:	003f0328 	eorseq	r0, pc, r8, lsr #6
    e9d8:	00000008 	andeq	r0, r0, r8
    e9dc:	000002cf 	andeq	r0, r0, pc, asr #5
    e9e0:	0001032a 	andeq	r0, r1, sl, lsr #6
    e9e4:	00000000 	andeq	r0, r0, r0
    e9e8:	000002d0 	ldrdeq	r0, [r0], -r0	; <UNPREDICTABLE>
    e9ec:	0001032a 	andeq	r0, r1, sl, lsr #6
    e9f0:	00000001 	andeq	r0, r0, r1
    e9f4:	000002d1 	ldrdeq	r0, [r0], -r1
    e9f8:	0001032a 	andeq	r0, r1, sl, lsr #6
    e9fc:	00000002 	andeq	r0, r0, r2
    ea00:	000002d2 	ldrdeq	r0, [r0], -r2
    ea04:	0001032a 	andeq	r0, r1, sl, lsr #6
    ea08:	00000003 	andeq	r0, r0, r3
    ea0c:	000002d3 	ldrdeq	r0, [r0], -r3
    ea10:	0001032a 	andeq	r0, r1, sl, lsr #6
    ea14:	00000004 	andeq	r0, r0, r4
    ea18:	000002d4 	ldrdeq	r0, [r0], -r4
    ea1c:	0001032a 	andeq	r0, r1, sl, lsr #6
    ea20:	00000005 	andeq	r0, r0, r5
    ea24:	000002d5 	ldrdeq	r0, [r0], -r5
    ea28:	0001032a 	andeq	r0, r1, sl, lsr #6
    ea2c:	00000006 	andeq	r0, r0, r6
    ea30:	000002d6 	ldrdeq	r0, [r0], -r6
    ea34:	0001032a 	andeq	r0, r1, sl, lsr #6
    ea38:	00000007 	andeq	r0, r0, r7
    ea3c:	000002d7 	ldrdeq	r0, [r0], -r7
    ea40:	001f032c 	andseq	r0, pc, ip, lsr #6
    ea44:	00000008 	andeq	r0, r0, r8
    ea48:	000002d8 	ldrdeq	r0, [r0], -r8
    ea4c:	0001032e 	andeq	r0, r1, lr, lsr #6
    ea50:	00000000 	andeq	r0, r0, r0
    ea54:	000002d9 	ldrdeq	r0, [r0], -r9
    ea58:	0001032e 	andeq	r0, r1, lr, lsr #6
    ea5c:	00000001 	andeq	r0, r0, r1
    ea60:	000002da 	ldrdeq	r0, [r0], -sl
    ea64:	001f032e 	andseq	r0, pc, lr, lsr #6
    ea68:	00000003 	andeq	r0, r0, r3
    ea6c:	000002db 	ldrdeq	r0, [r0], -fp
    ea70:	001f032e 	andseq	r0, pc, lr, lsr #6
    ea74:	00000008 	andeq	r0, r0, r8
    ea78:	000002dc 	ldrdeq	r0, [r0], -ip
    ea7c:	00030330 	andeq	r0, r3, r0, lsr r3
    ea80:	00000002 	andeq	r0, r0, r2
    ea84:	000002dd 	ldrdeq	r0, [r0], -sp
    ea88:	000f0330 	andeq	r0, pc, r0, lsr r3	; <UNPREDICTABLE>
    ea8c:	00000004 	andeq	r0, r0, r4
    ea90:	000002de 	ldrdeq	r0, [r0], -lr
    ea94:	001f0330 	andseq	r0, pc, r0, lsr r3	; <UNPREDICTABLE>
    ea98:	00000008 	andeq	r0, r0, r8
    ea9c:	000002df 	ldrdeq	r0, [r0], -pc	; <UNPREDICTABLE>
    eaa0:	00070330 	andeq	r0, r7, r0, lsr r3
    eaa4:	0000000d 	andeq	r0, r0, sp
    eaa8:	000002e0 	andeq	r0, r0, r0, ror #5
    eaac:	ffff0332 			; <UNDEFINED> instruction: 0xffff0332
    eab0:	00000000 	andeq	r0, r0, r0
    eab4:	000002e1 	andeq	r0, r0, r1, ror #5
    eab8:	00010334 	andeq	r0, r1, r4, lsr r3
    eabc:	00000000 	andeq	r0, r0, r0
    eac0:	000002e2 	andeq	r0, r0, r2, ror #5
    eac4:	00030334 	andeq	r0, r3, r4, lsr r3
    eac8:	00000001 	andeq	r0, r0, r1
    eacc:	000002e3 	andeq	r0, r0, r3, ror #5
    ead0:	00070334 	andeq	r0, r7, r4, lsr r3
    ead4:	0000000c 	andeq	r0, r0, ip
    ead8:	000002e4 	andeq	r0, r0, r4, ror #5
    eadc:	000f0336 	andeq	r0, pc, r6, lsr r3	; <UNPREDICTABLE>
    eae0:	00000000 	andeq	r0, r0, r0
    eae4:	000002e5 	andeq	r0, r0, r5, ror #5
    eae8:	000f0336 	andeq	r0, pc, r6, lsr r3	; <UNPREDICTABLE>
    eaec:	00000008 	andeq	r0, r0, r8
    eaf0:	000002e6 	andeq	r0, r0, r6, ror #5
    eaf4:	000f0336 	andeq	r0, pc, r6, lsr r3	; <UNPREDICTABLE>
    eaf8:	0000000c 	andeq	r0, r0, ip
    eafc:	000002e7 	andeq	r0, r0, r7, ror #5
    eb00:	00030338 	andeq	r0, r3, r8, lsr r3
    eb04:	00000002 	andeq	r0, r0, r2
    eb08:	000002e8 	andeq	r0, r0, r8, ror #5
    eb0c:	000f0338 	andeq	r0, pc, r8, lsr r3	; <UNPREDICTABLE>
    eb10:	00000004 	andeq	r0, r0, r4
    eb14:	000002e9 	andeq	r0, r0, r9, ror #5
    eb18:	001f0338 	andseq	r0, pc, r8, lsr r3	; <UNPREDICTABLE>
    eb1c:	00000008 	andeq	r0, r0, r8
    eb20:	000002ea 	andeq	r0, r0, sl, ror #5
    eb24:	00070338 	andeq	r0, r7, r8, lsr r3
    eb28:	0000000d 	andeq	r0, r0, sp
    eb2c:	000002eb 	andeq	r0, r0, fp, ror #5
    eb30:	ffff033a 			; <UNDEFINED> instruction: 0xffff033a
    eb34:	00000000 	andeq	r0, r0, r0
    eb38:	000002ec 	andeq	r0, r0, ip, ror #5
    eb3c:	0001033c 	andeq	r0, r1, ip, lsr r3
    eb40:	00000000 	andeq	r0, r0, r0
    eb44:	000002ed 	andeq	r0, r0, sp, ror #5
    eb48:	0003033c 	andeq	r0, r3, ip, lsr r3
    eb4c:	00000001 	andeq	r0, r0, r1
    eb50:	000002ee 	andeq	r0, r0, lr, ror #5
    eb54:	0007033c 	andeq	r0, r7, ip, lsr r3
    eb58:	0000000c 	andeq	r0, r0, ip
    eb5c:	000002ef 	andeq	r0, r0, pc, ror #5
    eb60:	000f033e 	andeq	r0, pc, lr, lsr r3	; <UNPREDICTABLE>
    eb64:	00000000 	andeq	r0, r0, r0
    eb68:	000002f0 	strdeq	r0, [r0], -r0	; <UNPREDICTABLE>
    eb6c:	000f033e 	andeq	r0, pc, lr, lsr r3	; <UNPREDICTABLE>
    eb70:	00000008 	andeq	r0, r0, r8
    eb74:	000002f1 	strdeq	r0, [r0], -r1
    eb78:	000f033e 	andeq	r0, pc, lr, lsr r3	; <UNPREDICTABLE>
    eb7c:	0000000c 	andeq	r0, r0, ip
    eb80:	000002f2 	strdeq	r0, [r0], -r2
    eb84:	00030340 	andeq	r0, r3, r0, asr #6
    eb88:	00000002 	andeq	r0, r0, r2
    eb8c:	000002f3 	strdeq	r0, [r0], -r3
    eb90:	000f0340 	andeq	r0, pc, r0, asr #6
    eb94:	00000004 	andeq	r0, r0, r4
    eb98:	000002f4 	strdeq	r0, [r0], -r4
    eb9c:	001f0340 	andseq	r0, pc, r0, asr #6
    eba0:	00000008 	andeq	r0, r0, r8
    eba4:	000002f5 	strdeq	r0, [r0], -r5
    eba8:	00070340 	andeq	r0, r7, r0, asr #6
    ebac:	0000000d 	andeq	r0, r0, sp
    ebb0:	000002f6 	strdeq	r0, [r0], -r6
    ebb4:	ffff0342 			; <UNDEFINED> instruction: 0xffff0342
    ebb8:	00000000 	andeq	r0, r0, r0
    ebbc:	000002f7 	strdeq	r0, [r0], -r7
    ebc0:	00010344 	andeq	r0, r1, r4, asr #6
    ebc4:	00000000 	andeq	r0, r0, r0
    ebc8:	000002f8 	strdeq	r0, [r0], -r8
    ebcc:	00030344 	andeq	r0, r3, r4, asr #6
    ebd0:	00000001 	andeq	r0, r0, r1
    ebd4:	000002f9 	strdeq	r0, [r0], -r9
    ebd8:	00070344 	andeq	r0, r7, r4, asr #6
    ebdc:	0000000c 	andeq	r0, r0, ip
    ebe0:	000002fa 	strdeq	r0, [r0], -sl
    ebe4:	000f0346 	andeq	r0, pc, r6, asr #6
    ebe8:	00000000 	andeq	r0, r0, r0
    ebec:	000002fb 	strdeq	r0, [r0], -fp
    ebf0:	000f0346 	andeq	r0, pc, r6, asr #6
    ebf4:	00000008 	andeq	r0, r0, r8
    ebf8:	000002fc 	strdeq	r0, [r0], -ip
    ebfc:	000f0346 	andeq	r0, pc, r6, asr #6
    ec00:	0000000c 	andeq	r0, r0, ip
    ec04:	000002fd 	strdeq	r0, [r0], -sp
    ec08:	00030348 	andeq	r0, r3, r8, asr #6
    ec0c:	00000002 	andeq	r0, r0, r2
    ec10:	000002fe 	strdeq	r0, [r0], -lr
    ec14:	000f0348 	andeq	r0, pc, r8, asr #6
    ec18:	00000004 	andeq	r0, r0, r4
    ec1c:	000002ff 	strdeq	r0, [r0], -pc	; <UNPREDICTABLE>
    ec20:	001f0348 	andseq	r0, pc, r8, asr #6
    ec24:	00000008 	andeq	r0, r0, r8
    ec28:	00000300 	andeq	r0, r0, r0, lsl #6
    ec2c:	00070348 	andeq	r0, r7, r8, asr #6
    ec30:	0000000d 	andeq	r0, r0, sp
    ec34:	00000301 	andeq	r0, r0, r1, lsl #6
    ec38:	ffff034a 			; <UNDEFINED> instruction: 0xffff034a
    ec3c:	00000000 	andeq	r0, r0, r0
    ec40:	00000302 	andeq	r0, r0, r2, lsl #6
    ec44:	0001034c 	andeq	r0, r1, ip, asr #6
    ec48:	00000000 	andeq	r0, r0, r0
    ec4c:	00000303 	andeq	r0, r0, r3, lsl #6
    ec50:	0003034c 	andeq	r0, r3, ip, asr #6
    ec54:	00000001 	andeq	r0, r0, r1
    ec58:	00000304 	andeq	r0, r0, r4, lsl #6
    ec5c:	0007034c 	andeq	r0, r7, ip, asr #6
    ec60:	0000000c 	andeq	r0, r0, ip
    ec64:	00000305 	andeq	r0, r0, r5, lsl #6
    ec68:	000f034e 	andeq	r0, pc, lr, asr #6
    ec6c:	00000000 	andeq	r0, r0, r0
    ec70:	00000306 	andeq	r0, r0, r6, lsl #6
    ec74:	000f034e 	andeq	r0, pc, lr, asr #6
    ec78:	00000008 	andeq	r0, r0, r8
    ec7c:	00000307 	andeq	r0, r0, r7, lsl #6
    ec80:	000f034e 	andeq	r0, pc, lr, asr #6
    ec84:	0000000c 	andeq	r0, r0, ip
    ec88:	00000308 	andeq	r0, r0, r8, lsl #6
    ec8c:	00ff0350 	rscseq	r0, pc, r0, asr r3	; <UNPREDICTABLE>
    ec90:	00000000 	andeq	r0, r0, r0
    ec94:	00000309 	andeq	r0, r0, r9, lsl #6
    ec98:	00010350 	andeq	r0, r1, r0, asr r3
    ec9c:	00000008 	andeq	r0, r0, r8
    eca0:	0000030a 	andeq	r0, r0, sl, lsl #6
    eca4:	00010350 	andeq	r0, r1, r0, asr r3
    eca8:	00000009 	andeq	r0, r0, r9
    ecac:	0000030b 	andeq	r0, r0, fp, lsl #6
    ecb0:	00010350 	andeq	r0, r1, r0, asr r3
    ecb4:	0000000a 	andeq	r0, r0, sl
    ecb8:	0000030c 	andeq	r0, r0, ip, lsl #6
    ecbc:	00010350 	andeq	r0, r1, r0, asr r3
    ecc0:	0000000b 	andeq	r0, r0, fp
    ecc4:	0000030d 	andeq	r0, r0, sp, lsl #6
    ecc8:	00070350 	andeq	r0, r7, r0, asr r3
    eccc:	0000000c 	andeq	r0, r0, ip
    ecd0:	0000030e 	andeq	r0, r0, lr, lsl #6
    ecd4:	00010350 	andeq	r0, r1, r0, asr r3
    ecd8:	0000000f 	andeq	r0, r0, pc
    ecdc:	0000030f 	andeq	r0, r0, pc, lsl #6
    ece0:	00010352 	andeq	r0, r1, r2, asr r3
    ece4:	00000000 	andeq	r0, r0, r0
    ece8:	00000310 	andeq	r0, r0, r0, lsl r3
    ecec:	00010352 	andeq	r0, r1, r2, asr r3
    ecf0:	00000001 	andeq	r0, r0, r1
    ecf4:	00000311 	andeq	r0, r0, r1, lsl r3
    ecf8:	00010352 	andeq	r0, r1, r2, asr r3
    ecfc:	00000002 	andeq	r0, r0, r2
    ed00:	00000312 	andeq	r0, r0, r2, lsl r3
    ed04:	00010352 	andeq	r0, r1, r2, asr r3
    ed08:	00000003 	andeq	r0, r0, r3
    ed0c:	00000313 	andeq	r0, r0, r3, lsl r3
    ed10:	00010354 	andeq	r0, r1, r4, asr r3
    ed14:	00000000 	andeq	r0, r0, r0
    ed18:	00000314 	andeq	r0, r0, r4, lsl r3
    ed1c:	00010354 	andeq	r0, r1, r4, asr r3
    ed20:	00000001 	andeq	r0, r0, r1
    ed24:	00000315 	andeq	r0, r0, r5, lsl r3
    ed28:	00010354 	andeq	r0, r1, r4, asr r3
    ed2c:	00000002 	andeq	r0, r0, r2
    ed30:	00000316 	andeq	r0, r0, r6, lsl r3
    ed34:	00010354 	andeq	r0, r1, r4, asr r3
    ed38:	00000003 	andeq	r0, r0, r3
    ed3c:	00000317 	andeq	r0, r0, r7, lsl r3
    ed40:	00030354 	andeq	r0, r3, r4, asr r3
    ed44:	00000004 	andeq	r0, r0, r4
    ed48:	00000318 	andeq	r0, r0, r8, lsl r3
    ed4c:	00010356 	andeq	r0, r1, r6, asr r3
    ed50:	00000000 	andeq	r0, r0, r0
    ed54:	00000319 	andeq	r0, r0, r9, lsl r3
    ed58:	00010356 	andeq	r0, r1, r6, asr r3
    ed5c:	00000001 	andeq	r0, r0, r1
    ed60:	0000031a 	andeq	r0, r0, sl, lsl r3
    ed64:	00010356 	andeq	r0, r1, r6, asr r3
    ed68:	00000002 	andeq	r0, r0, r2
    ed6c:	0000031b 	andeq	r0, r0, fp, lsl r3
    ed70:	00010356 	andeq	r0, r1, r6, asr r3
    ed74:	00000003 	andeq	r0, r0, r3
    ed78:	0000031c 	andeq	r0, r0, ip, lsl r3
    ed7c:	00010356 	andeq	r0, r1, r6, asr r3
    ed80:	00000004 	andeq	r0, r0, r4
    ed84:	0000031d 	andeq	r0, r0, sp, lsl r3
    ed88:	00010356 	andeq	r0, r1, r6, asr r3
    ed8c:	00000005 	andeq	r0, r0, r5
    ed90:	0000031e 	andeq	r0, r0, lr, lsl r3
    ed94:	00010356 	andeq	r0, r1, r6, asr r3
    ed98:	00000006 	andeq	r0, r0, r6
    ed9c:	0000031f 	andeq	r0, r0, pc, lsl r3
    eda0:	00010356 	andeq	r0, r1, r6, asr r3
    eda4:	00000007 	andeq	r0, r0, r7
    eda8:	00000320 	andeq	r0, r0, r0, lsr #6
    edac:	ffff0400 			; <UNDEFINED> instruction: 0xffff0400
    edb0:	00000000 	andeq	r0, r0, r0
    edb4:	00000321 	andeq	r0, r0, r1, lsr #6
    edb8:	00010402 	andeq	r0, r1, r2, lsl #8
    edbc:	00000000 	andeq	r0, r0, r0
    edc0:	00000322 	andeq	r0, r0, r2, lsr #6
    edc4:	00010402 	andeq	r0, r1, r2, lsl #8
    edc8:	00000001 	andeq	r0, r0, r1
    edcc:	00000323 	andeq	r0, r0, r3, lsr #6
    edd0:	00010402 	andeq	r0, r1, r2, lsl #8
    edd4:	00000007 	andeq	r0, r0, r7
    edd8:	00000324 	andeq	r0, r0, r4, lsr #6
    eddc:	00030402 	andeq	r0, r3, r2, lsl #8
    ede0:	00000008 	andeq	r0, r0, r8
    ede4:	00000325 	andeq	r0, r0, r5, lsr #6
    ede8:	00010402 	andeq	r0, r1, r2, lsl #8
    edec:	0000000a 	andeq	r0, r0, sl
    edf0:	00000326 	andeq	r0, r0, r6, lsr #6
    edf4:	00010402 	andeq	r0, r1, r2, lsl #8
    edf8:	0000000b 	andeq	r0, r0, fp
    edfc:	00000327 	andeq	r0, r0, r7, lsr #6
    ee00:	00010402 	andeq	r0, r1, r2, lsl #8
    ee04:	0000000f 	andeq	r0, r0, pc
    ee08:	00000328 	andeq	r0, r0, r8, lsr #6
    ee0c:	00010404 	andeq	r0, r1, r4, lsl #8
    ee10:	00000000 	andeq	r0, r0, r0
    ee14:	00000329 	andeq	r0, r0, r9, lsr #6
    ee18:	00010404 	andeq	r0, r1, r4, lsl #8
    ee1c:	00000001 	andeq	r0, r0, r1
    ee20:	0000032a 	andeq	r0, r0, sl, lsr #6
    ee24:	00010404 	andeq	r0, r1, r4, lsl #8
    ee28:	00000007 	andeq	r0, r0, r7
    ee2c:	0000032b 	andeq	r0, r0, fp, lsr #6
    ee30:	00030404 	andeq	r0, r3, r4, lsl #8
    ee34:	00000008 	andeq	r0, r0, r8
    ee38:	0000032c 	andeq	r0, r0, ip, lsr #6
    ee3c:	00030404 	andeq	r0, r3, r4, lsl #8
    ee40:	0000000c 	andeq	r0, r0, ip
    ee44:	0000032d 	andeq	r0, r0, sp, lsr #6
    ee48:	00010404 	andeq	r0, r1, r4, lsl #8
    ee4c:	0000000e 	andeq	r0, r0, lr
    ee50:	0000032e 	andeq	r0, r0, lr, lsr #6
    ee54:	00010404 	andeq	r0, r1, r4, lsl #8
    ee58:	0000000f 	andeq	r0, r0, pc
    ee5c:	0000032f 	andeq	r0, r0, pc, lsr #6
    ee60:	ffff0406 			; <UNDEFINED> instruction: 0xffff0406
    ee64:	00000000 	andeq	r0, r0, r0
    ee68:	00000330 	andeq	r0, r0, r0, lsr r3
    ee6c:	00030408 	andeq	r0, r3, r8, lsl #8
    ee70:	0000000c 	andeq	r0, r0, ip
    ee74:	00000331 	andeq	r0, r0, r1, lsr r3
    ee78:	00010408 	andeq	r0, r1, r8, lsl #8
    ee7c:	0000000f 	andeq	r0, r0, pc
    ee80:	00000332 	andeq	r0, r0, r2, lsr r3
    ee84:	0001040a 	andeq	r0, r1, sl, lsl #8
    ee88:	00000000 	andeq	r0, r0, r0
    ee8c:	00000333 	andeq	r0, r0, r3, lsr r3
    ee90:	0001040a 	andeq	r0, r1, sl, lsl #8
    ee94:	00000003 	andeq	r0, r0, r3
    ee98:	00000334 	andeq	r0, r0, r4, lsr r3
    ee9c:	0001040a 	andeq	r0, r1, sl, lsl #8
    eea0:	00000005 	andeq	r0, r0, r5
    eea4:	00000335 	andeq	r0, r0, r5, lsr r3
    eea8:	0001040a 	andeq	r0, r1, sl, lsl #8
    eeac:	00000008 	andeq	r0, r0, r8
    eeb0:	00000336 	andeq	r0, r0, r6, lsr r3
    eeb4:	0001040a 	andeq	r0, r1, sl, lsl #8
    eeb8:	0000000b 	andeq	r0, r0, fp
    eebc:	00000337 	andeq	r0, r0, r7, lsr r3
    eec0:	0001040a 	andeq	r0, r1, sl, lsl #8
    eec4:	0000000d 	andeq	r0, r0, sp
    eec8:	00000338 	andeq	r0, r0, r8, lsr r3
    eecc:	ffff040c 			; <UNDEFINED> instruction: 0xffff040c
    eed0:	00000000 	andeq	r0, r0, r0
    eed4:	00000339 	andeq	r0, r0, r9, lsr r3
    eed8:	0001040e 	andeq	r0, r1, lr, lsl #8
    eedc:	00000004 	andeq	r0, r0, r4
    eee0:	0000033a 	andeq	r0, r0, sl, lsr r3
    eee4:	0001040e 	andeq	r0, r1, lr, lsl #8
    eee8:	00000006 	andeq	r0, r0, r6
    eeec:	0000033b 	andeq	r0, r0, fp, lsr r3
    eef0:	000f040e 	andeq	r0, pc, lr, lsl #8
    eef4:	00000008 	andeq	r0, r0, r8
    eef8:	0000033c 	andeq	r0, r0, ip, lsr r3
    eefc:	00010410 	andeq	r0, r1, r0, lsl r4
    ef00:	00000002 	andeq	r0, r0, r2
    ef04:	0000033d 	andeq	r0, r0, sp, lsr r3
    ef08:	00010410 	andeq	r0, r1, r0, lsl r4
    ef0c:	00000004 	andeq	r0, r0, r4
    ef10:	0000033e 	andeq	r0, r0, lr, lsr r3
    ef14:	00010410 	andeq	r0, r1, r0, lsl r4
    ef18:	00000006 	andeq	r0, r0, r6
    ef1c:	0000033f 	andeq	r0, r0, pc, lsr r3
    ef20:	000f0410 	andeq	r0, pc, r0, lsl r4	; <UNPREDICTABLE>
    ef24:	00000008 	andeq	r0, r0, r8
    ef28:	00000340 	andeq	r0, r0, r0, asr #6
    ef2c:	00030412 	andeq	r0, r3, r2, lsl r4
    ef30:	00000000 	andeq	r0, r0, r0
    ef34:	00000341 	andeq	r0, r0, r1, asr #6
    ef38:	00010412 	andeq	r0, r1, r2, lsl r4
    ef3c:	00000002 	andeq	r0, r0, r2
    ef40:	00000342 	andeq	r0, r0, r2, asr #6
    ef44:	00010412 	andeq	r0, r1, r2, lsl r4
    ef48:	00000003 	andeq	r0, r0, r3
    ef4c:	00000343 	andeq	r0, r0, r3, asr #6
    ef50:	00010412 	andeq	r0, r1, r2, lsl r4
    ef54:	00000004 	andeq	r0, r0, r4
    ef58:	00000344 	andeq	r0, r0, r4, asr #6
    ef5c:	00030412 	andeq	r0, r3, r2, lsl r4
    ef60:	00000005 	andeq	r0, r0, r5
    ef64:	00000345 	andeq	r0, r0, r5, asr #6
    ef68:	00010412 	andeq	r0, r1, r2, lsl r4
    ef6c:	00000007 	andeq	r0, r0, r7
    ef70:	00000346 	andeq	r0, r0, r6, asr #6
    ef74:	000f0412 	andeq	r0, pc, r2, lsl r4	; <UNPREDICTABLE>
    ef78:	00000008 	andeq	r0, r0, r8
    ef7c:	00000347 	andeq	r0, r0, r7, asr #6
    ef80:	000f0414 	andeq	r0, pc, r4, lsl r4	; <UNPREDICTABLE>
    ef84:	00000000 	andeq	r0, r0, r0
    ef88:	00000348 	andeq	r0, r0, r8, asr #6
    ef8c:	000f0414 	andeq	r0, pc, r4, lsl r4	; <UNPREDICTABLE>
    ef90:	0000000c 	andeq	r0, r0, ip
    ef94:	00000349 	andeq	r0, r0, r9, asr #6
    ef98:	00030416 	andeq	r0, r3, r6, lsl r4
    ef9c:	00000002 	andeq	r0, r0, r2
    efa0:	0000034a 	andeq	r0, r0, sl, asr #6
    efa4:	00010416 	andeq	r0, r1, r6, lsl r4
    efa8:	00000004 	andeq	r0, r0, r4
    efac:	0000034b 	andeq	r0, r0, fp, asr #6
    efb0:	00010416 	andeq	r0, r1, r6, lsl r4
    efb4:	00000005 	andeq	r0, r0, r5
    efb8:	0000034c 	andeq	r0, r0, ip, asr #6
    efbc:	00010416 	andeq	r0, r1, r6, lsl r4
    efc0:	00000006 	andeq	r0, r0, r6
    efc4:	0000034d 	andeq	r0, r0, sp, asr #6
    efc8:	00010416 	andeq	r0, r1, r6, lsl r4
    efcc:	00000007 	andeq	r0, r0, r7
    efd0:	0000034e 	andeq	r0, r0, lr, asr #6
    efd4:	000f0416 	andeq	r0, pc, r6, lsl r4	; <UNPREDICTABLE>
    efd8:	0000000b 	andeq	r0, r0, fp
    efdc:	0000034f 	andeq	r0, r0, pc, asr #6
    efe0:	00030418 	andeq	r0, r3, r8, lsl r4
    efe4:	00000008 	andeq	r0, r0, r8
    efe8:	00000350 	andeq	r0, r0, r0, asr r3
    efec:	00010418 	andeq	r0, r1, r8, lsl r4
    eff0:	0000000c 	andeq	r0, r0, ip
    eff4:	00000351 	andeq	r0, r0, r1, asr r3
    eff8:	00010418 	andeq	r0, r1, r8, lsl r4
    effc:	0000000e 	andeq	r0, r0, lr
    f000:	00000352 	andeq	r0, r0, r2, asr r3
    f004:	00010418 	andeq	r0, r1, r8, lsl r4
    f008:	0000000f 	andeq	r0, r0, pc
    f00c:	00000353 	andeq	r0, r0, r3, asr r3
    f010:	0001041a 	andeq	r0, r1, sl, lsl r4
    f014:	00000001 	andeq	r0, r0, r1
    f018:	00000354 	andeq	r0, r0, r4, asr r3
    f01c:	0001041a 	andeq	r0, r1, sl, lsl r4
    f020:	00000002 	andeq	r0, r0, r2
    f024:	00000355 	andeq	r0, r0, r5, asr r3
    f028:	0001041a 	andeq	r0, r1, sl, lsl r4
    f02c:	00000004 	andeq	r0, r0, r4
    f030:	00000356 	andeq	r0, r0, r6, asr r3
    f034:	0001041a 	andeq	r0, r1, sl, lsl r4
    f038:	00000006 	andeq	r0, r0, r6
    f03c:	00000357 	andeq	r0, r0, r7, asr r3
    f040:	000f041a 	andeq	r0, pc, sl, lsl r4	; <UNPREDICTABLE>
    f044:	00000008 	andeq	r0, r0, r8
    f048:	00000358 	andeq	r0, r0, r8, asr r3
    f04c:	0003041c 	andeq	r0, r3, ip, lsl r4
    f050:	00000008 	andeq	r0, r0, r8
    f054:	00000359 	andeq	r0, r0, r9, asr r3
    f058:	0001041c 	andeq	r0, r1, ip, lsl r4
    f05c:	0000000c 	andeq	r0, r0, ip
    f060:	0000035a 	andeq	r0, r0, sl, asr r3
    f064:	0001041c 	andeq	r0, r1, ip, lsl r4
    f068:	0000000e 	andeq	r0, r0, lr
    f06c:	0000035b 	andeq	r0, r0, fp, asr r3
    f070:	0001041c 	andeq	r0, r1, ip, lsl r4
    f074:	0000000f 	andeq	r0, r0, pc
    f078:	0000035c 	andeq	r0, r0, ip, asr r3
    f07c:	0001041e 	andeq	r0, r1, lr, lsl r4
    f080:	00000000 	andeq	r0, r0, r0
    f084:	0000035d 	andeq	r0, r0, sp, asr r3
    f088:	0001041e 	andeq	r0, r1, lr, lsl r4
    f08c:	00000001 	andeq	r0, r0, r1
    f090:	0000035e 	andeq	r0, r0, lr, asr r3
    f094:	0001041e 	andeq	r0, r1, lr, lsl r4
    f098:	00000007 	andeq	r0, r0, r7
    f09c:	0000035f 	andeq	r0, r0, pc, asr r3
    f0a0:	0001041e 	andeq	r0, r1, lr, lsl r4
    f0a4:	0000000f 	andeq	r0, r0, pc
    f0a8:	00000360 	andeq	r0, r0, r0, ror #6
    f0ac:	00010420 	andeq	r0, r1, r0, lsr #8
    f0b0:	00000000 	andeq	r0, r0, r0
    f0b4:	00000361 	andeq	r0, r0, r1, ror #6
    f0b8:	00010420 	andeq	r0, r1, r0, lsr #8
    f0bc:	00000001 	andeq	r0, r0, r1
    f0c0:	00000362 	andeq	r0, r0, r2, ror #6
    f0c4:	00010420 	andeq	r0, r1, r0, lsr #8
    f0c8:	00000007 	andeq	r0, r0, r7
    f0cc:	00000363 	andeq	r0, r0, r3, ror #6
    f0d0:	00010420 	andeq	r0, r1, r0, lsr #8
    f0d4:	0000000c 	andeq	r0, r0, ip
    f0d8:	00000364 	andeq	r0, r0, r4, ror #6
    f0dc:	00010420 	andeq	r0, r1, r0, lsr #8
    f0e0:	0000000e 	andeq	r0, r0, lr
    f0e4:	00000365 	andeq	r0, r0, r5, ror #6
    f0e8:	00010420 	andeq	r0, r1, r0, lsr #8
    f0ec:	0000000f 	andeq	r0, r0, pc
    f0f0:	00000366 	andeq	r0, r0, r6, ror #6
    f0f4:	00010500 	andeq	r0, r1, r0, lsl #10
    f0f8:	00000000 	andeq	r0, r0, r0
    f0fc:	00000367 	andeq	r0, r0, r7, ror #6
    f100:	00010500 	andeq	r0, r1, r0, lsl #10
    f104:	00000001 	andeq	r0, r0, r1
    f108:	00000368 	andeq	r0, r0, r8, ror #6
    f10c:	00010500 	andeq	r0, r1, r0, lsl #10
    f110:	00000007 	andeq	r0, r0, r7
    f114:	00000369 	andeq	r0, r0, r9, ror #6
    f118:	00030500 	andeq	r0, r3, r0, lsl #10
    f11c:	0000000c 	andeq	r0, r0, ip
    f120:	0000036a 	andeq	r0, r0, sl, ror #6
    f124:	00010500 	andeq	r0, r1, r0, lsl #10
    f128:	0000000e 	andeq	r0, r0, lr
    f12c:	0000036b 	andeq	r0, r0, fp, ror #6
    f130:	00010500 	andeq	r0, r1, r0, lsl #10
    f134:	0000000f 	andeq	r0, r0, pc
    f138:	0000036c 	andeq	r0, r0, ip, ror #6
    f13c:	00010502 	andeq	r0, r1, r2, lsl #10
    f140:	00000000 	andeq	r0, r0, r0
    f144:	0000036d 	andeq	r0, r0, sp, ror #6
    f148:	00010502 	andeq	r0, r1, r2, lsl #10
    f14c:	00000001 	andeq	r0, r0, r1
    f150:	0000036e 	andeq	r0, r0, lr, ror #6
    f154:	00010502 	andeq	r0, r1, r2, lsl #10
    f158:	00000007 	andeq	r0, r0, r7
    f15c:	0000036f 	andeq	r0, r0, pc, ror #6
    f160:	00030502 	andeq	r0, r3, r2, lsl #10
    f164:	0000000c 	andeq	r0, r0, ip
    f168:	00000370 	andeq	r0, r0, r0, ror r3
    f16c:	00010502 	andeq	r0, r1, r2, lsl #10
    f170:	0000000e 	andeq	r0, r0, lr
    f174:	00000371 	andeq	r0, r0, r1, ror r3
    f178:	00010502 	andeq	r0, r1, r2, lsl #10
    f17c:	0000000f 	andeq	r0, r0, pc
    f180:	00000372 	andeq	r0, r0, r2, ror r3
    f184:	00010504 	andeq	r0, r1, r4, lsl #10
    f188:	00000000 	andeq	r0, r0, r0
    f18c:	00000373 	andeq	r0, r0, r3, ror r3
    f190:	00010504 	andeq	r0, r1, r4, lsl #10
    f194:	00000001 	andeq	r0, r0, r1
    f198:	00000374 	andeq	r0, r0, r4, ror r3
    f19c:	00010504 	andeq	r0, r1, r4, lsl #10
    f1a0:	00000002 	andeq	r0, r0, r2
    f1a4:	00000375 	andeq	r0, r0, r5, ror r3
    f1a8:	00010504 	andeq	r0, r1, r4, lsl #10
    f1ac:	00000007 	andeq	r0, r0, r7
    f1b0:	00000376 	andeq	r0, r0, r6, ror r3
    f1b4:	00030504 	andeq	r0, r3, r4, lsl #10
    f1b8:	00000008 	andeq	r0, r0, r8
    f1bc:	00000377 	andeq	r0, r0, r7, ror r3
    f1c0:	00010504 	andeq	r0, r1, r4, lsl #10
    f1c4:	0000000c 	andeq	r0, r0, ip
    f1c8:	00000378 	andeq	r0, r0, r8, ror r3
    f1cc:	00010504 	andeq	r0, r1, r4, lsl #10
    f1d0:	0000000e 	andeq	r0, r0, lr
    f1d4:	00000379 	andeq	r0, r0, r9, ror r3
    f1d8:	00010504 	andeq	r0, r1, r4, lsl #10
    f1dc:	0000000f 	andeq	r0, r0, pc
    f1e0:	0000037a 	andeq	r0, r0, sl, ror r3
    f1e4:	00010506 	andeq	r0, r1, r6, lsl #10
    f1e8:	00000000 	andeq	r0, r0, r0
    f1ec:	0000037b 	andeq	r0, r0, fp, ror r3
    f1f0:	00010506 	andeq	r0, r1, r6, lsl #10
    f1f4:	00000001 	andeq	r0, r0, r1
    f1f8:	0000037c 	andeq	r0, r0, ip, ror r3
    f1fc:	00010506 	andeq	r0, r1, r6, lsl #10
    f200:	00000007 	andeq	r0, r0, r7
    f204:	0000037d 	andeq	r0, r0, sp, ror r3
    f208:	00030506 	andeq	r0, r3, r6, lsl #10
    f20c:	0000000c 	andeq	r0, r0, ip
    f210:	0000037e 	andeq	r0, r0, lr, ror r3
    f214:	00010506 	andeq	r0, r1, r6, lsl #10
    f218:	0000000e 	andeq	r0, r0, lr
    f21c:	0000037f 	andeq	r0, r0, pc, ror r3
    f220:	00010506 	andeq	r0, r1, r6, lsl #10
    f224:	0000000f 	andeq	r0, r0, pc
    f228:	00000380 	andeq	r0, r0, r0, lsl #7
    f22c:	00010508 	andeq	r0, r1, r8, lsl #10
    f230:	00000000 	andeq	r0, r0, r0
    f234:	00000381 	andeq	r0, r0, r1, lsl #7
    f238:	00010508 	andeq	r0, r1, r8, lsl #10
    f23c:	00000001 	andeq	r0, r0, r1
    f240:	00000382 	andeq	r0, r0, r2, lsl #7
    f244:	00010508 	andeq	r0, r1, r8, lsl #10
    f248:	00000007 	andeq	r0, r0, r7
    f24c:	00000383 	andeq	r0, r0, r3, lsl #7
    f250:	00030508 	andeq	r0, r3, r8, lsl #10
    f254:	0000000c 	andeq	r0, r0, ip
    f258:	00000384 	andeq	r0, r0, r4, lsl #7
    f25c:	00010508 	andeq	r0, r1, r8, lsl #10
    f260:	0000000e 	andeq	r0, r0, lr
    f264:	00000385 	andeq	r0, r0, r5, lsl #7
    f268:	00010508 	andeq	r0, r1, r8, lsl #10
    f26c:	0000000f 	andeq	r0, r0, pc
    f270:	00000386 	andeq	r0, r0, r6, lsl #7
    f274:	0001050a 	andeq	r0, r1, sl, lsl #10
    f278:	00000000 	andeq	r0, r0, r0
    f27c:	00000387 	andeq	r0, r0, r7, lsl #7
    f280:	0001050a 	andeq	r0, r1, sl, lsl #10
    f284:	00000001 	andeq	r0, r0, r1
    f288:	00000388 	andeq	r0, r0, r8, lsl #7
    f28c:	0001050a 	andeq	r0, r1, sl, lsl #10
    f290:	00000007 	andeq	r0, r0, r7
    f294:	00000389 	andeq	r0, r0, r9, lsl #7
    f298:	0003050a 	andeq	r0, r3, sl, lsl #10
    f29c:	0000000c 	andeq	r0, r0, ip
    f2a0:	0000038a 	andeq	r0, r0, sl, lsl #7
    f2a4:	0001050a 	andeq	r0, r1, sl, lsl #10
    f2a8:	0000000f 	andeq	r0, r0, pc
    f2ac:	0000038b 	andeq	r0, r0, fp, lsl #7
    f2b0:	0001050c 	andeq	r0, r1, ip, lsl #10
    f2b4:	00000000 	andeq	r0, r0, r0
    f2b8:	0000038c 	andeq	r0, r0, ip, lsl #7
    f2bc:	0001050c 	andeq	r0, r1, ip, lsl #10
    f2c0:	00000001 	andeq	r0, r0, r1
    f2c4:	0000038d 	andeq	r0, r0, sp, lsl #7
    f2c8:	0001050c 	andeq	r0, r1, ip, lsl #10
    f2cc:	00000007 	andeq	r0, r0, r7
    f2d0:	0000038e 	andeq	r0, r0, lr, lsl #7
    f2d4:	0003050c 	andeq	r0, r3, ip, lsl #10
    f2d8:	0000000c 	andeq	r0, r0, ip
    f2dc:	0000038f 	andeq	r0, r0, pc, lsl #7
    f2e0:	0001050c 	andeq	r0, r1, ip, lsl #10
    f2e4:	0000000f 	andeq	r0, r0, pc
    f2e8:	00000390 	muleq	r0, r0, r3
    f2ec:	0001050e 	andeq	r0, r1, lr, lsl #10
    f2f0:	00000000 	andeq	r0, r0, r0
    f2f4:	00000391 	muleq	r0, r1, r3
    f2f8:	0001050e 	andeq	r0, r1, lr, lsl #10
    f2fc:	00000001 	andeq	r0, r0, r1
    f300:	00000392 	muleq	r0, r2, r3
    f304:	0001050e 	andeq	r0, r1, lr, lsl #10
    f308:	00000007 	andeq	r0, r0, r7
    f30c:	00000393 	muleq	r0, r3, r3
    f310:	0003050e 	andeq	r0, r3, lr, lsl #10
    f314:	0000000c 	andeq	r0, r0, ip
    f318:	00000394 	muleq	r0, r4, r3
    f31c:	0001050e 	andeq	r0, r1, lr, lsl #10
    f320:	0000000f 	andeq	r0, r0, pc
    f324:	00000395 	muleq	r0, r5, r3
    f328:	00010510 	andeq	r0, r1, r0, lsl r5
    f32c:	00000000 	andeq	r0, r0, r0
    f330:	00000396 	muleq	r0, r6, r3
    f334:	00010510 	andeq	r0, r1, r0, lsl r5
    f338:	00000001 	andeq	r0, r0, r1
    f33c:	00000397 	muleq	r0, r7, r3
    f340:	00010510 	andeq	r0, r1, r0, lsl r5
    f344:	00000002 	andeq	r0, r0, r2
    f348:	00000398 	muleq	r0, r8, r3
    f34c:	00010510 	andeq	r0, r1, r0, lsl r5
    f350:	00000004 	andeq	r0, r0, r4
    f354:	00000399 	muleq	r0, r9, r3
    f358:	000f0510 	andeq	r0, pc, r0, lsl r5	; <UNPREDICTABLE>
    f35c:	00000008 	andeq	r0, r0, r8
    f360:	0000039a 	muleq	r0, sl, r3
    f364:	00010512 	andeq	r0, r1, r2, lsl r5
    f368:	00000000 	andeq	r0, r0, r0
    f36c:	0000039b 	muleq	r0, fp, r3
    f370:	00010512 	andeq	r0, r1, r2, lsl r5
    f374:	00000001 	andeq	r0, r0, r1
    f378:	0000039c 	muleq	r0, ip, r3
    f37c:	00010512 	andeq	r0, r1, r2, lsl r5
    f380:	00000007 	andeq	r0, r0, r7
    f384:	0000039d 	muleq	r0, sp, r3
    f388:	00030512 	andeq	r0, r3, r2, lsl r5
    f38c:	0000000c 	andeq	r0, r0, ip
    f390:	0000039e 	muleq	r0, lr, r3
    f394:	00010512 	andeq	r0, r1, r2, lsl r5
    f398:	0000000e 	andeq	r0, r0, lr
    f39c:	0000039f 	muleq	r0, pc, r3	; <UNPREDICTABLE>
    f3a0:	00010512 	andeq	r0, r1, r2, lsl r5
    f3a4:	0000000f 	andeq	r0, r0, pc
    f3a8:	000003a0 	andeq	r0, r0, r0, lsr #7
    f3ac:	00010514 	andeq	r0, r1, r4, lsl r5
    f3b0:	00000000 	andeq	r0, r0, r0
    f3b4:	000003a1 	andeq	r0, r0, r1, lsr #7
    f3b8:	00010514 	andeq	r0, r1, r4, lsl r5
    f3bc:	00000001 	andeq	r0, r0, r1
    f3c0:	000003a2 	andeq	r0, r0, r2, lsr #7
    f3c4:	3fff0514 	svccc	0x00ff0514
    f3c8:	00000002 	andeq	r0, r0, r2
    f3cc:	000003a3 	andeq	r0, r0, r3, lsr #7
    f3d0:	00010516 	andeq	r0, r1, r6, lsl r5
    f3d4:	00000000 	andeq	r0, r0, r0
    f3d8:	000003a4 	andeq	r0, r0, r4, lsr #7
    f3dc:	00010516 	andeq	r0, r1, r6, lsl r5
    f3e0:	00000001 	andeq	r0, r0, r1
    f3e4:	000003a5 	andeq	r0, r0, r5, lsr #7
    f3e8:	00010516 	andeq	r0, r1, r6, lsl r5
    f3ec:	00000007 	andeq	r0, r0, r7
    f3f0:	000003a6 	andeq	r0, r0, r6, lsr #7
    f3f4:	00030516 	andeq	r0, r3, r6, lsl r5
    f3f8:	0000000c 	andeq	r0, r0, ip
    f3fc:	000003a7 	andeq	r0, r0, r7, lsr #7
    f400:	00010516 	andeq	r0, r1, r6, lsl r5
    f404:	0000000f 	andeq	r0, r0, pc
    f408:	000003a8 	andeq	r0, r0, r8, lsr #7
    f40c:	00010518 	andeq	r0, r1, r8, lsl r5
    f410:	00000000 	andeq	r0, r0, r0
    f414:	000003a9 	andeq	r0, r0, r9, lsr #7
    f418:	00010518 	andeq	r0, r1, r8, lsl r5
    f41c:	00000001 	andeq	r0, r0, r1
    f420:	000003aa 	andeq	r0, r0, sl, lsr #7
    f424:	00010518 	andeq	r0, r1, r8, lsl r5
    f428:	00000002 	andeq	r0, r0, r2
    f42c:	000003ab 	andeq	r0, r0, fp, lsr #7
    f430:	00010518 	andeq	r0, r1, r8, lsl r5
    f434:	00000007 	andeq	r0, r0, r7
    f438:	000003ac 	andeq	r0, r0, ip, lsr #7
    f43c:	00030518 	andeq	r0, r3, r8, lsl r5
    f440:	0000000c 	andeq	r0, r0, ip
    f444:	000003ad 	andeq	r0, r0, sp, lsr #7
    f448:	00010518 	andeq	r0, r1, r8, lsl r5
    f44c:	0000000f 	andeq	r0, r0, pc
    f450:	000003ae 	andeq	r0, r0, lr, lsr #7
    f454:	0001051a 	andeq	r0, r1, sl, lsl r5
    f458:	00000000 	andeq	r0, r0, r0
    f45c:	000003af 	andeq	r0, r0, pc, lsr #7
    f460:	0001051a 	andeq	r0, r1, sl, lsl r5
    f464:	00000008 	andeq	r0, r0, r8
    f468:	000003b0 			; <UNDEFINED> instruction: 0x000003b0
    f46c:	0001051a 	andeq	r0, r1, sl, lsl r5
    f470:	0000000f 	andeq	r0, r0, pc
    f474:	000003b1 			; <UNDEFINED> instruction: 0x000003b1
    f478:	0001051c 	andeq	r0, r1, ip, lsl r5
    f47c:	00000003 	andeq	r0, r0, r3
    f480:	000003b2 			; <UNDEFINED> instruction: 0x000003b2
    f484:	0001051c 	andeq	r0, r1, ip, lsl r5
    f488:	00000006 	andeq	r0, r0, r6
    f48c:	000003b3 			; <UNDEFINED> instruction: 0x000003b3
    f490:	0001051c 	andeq	r0, r1, ip, lsl r5
    f494:	0000000a 	andeq	r0, r0, sl
    f498:	000003b4 			; <UNDEFINED> instruction: 0x000003b4
    f49c:	0001051c 	andeq	r0, r1, ip, lsl r5
    f4a0:	0000000b 	andeq	r0, r0, fp
    f4a4:	000003b5 			; <UNDEFINED> instruction: 0x000003b5
    f4a8:	0001051c 	andeq	r0, r1, ip, lsl r5
    f4ac:	0000000f 	andeq	r0, r0, pc
    f4b0:	000003b6 			; <UNDEFINED> instruction: 0x000003b6
    f4b4:	0001051e 	andeq	r0, r1, lr, lsl r5
    f4b8:	00000000 	andeq	r0, r0, r0
    f4bc:	000003b7 			; <UNDEFINED> instruction: 0x000003b7
    f4c0:	0001051e 	andeq	r0, r1, lr, lsl r5
    f4c4:	00000002 	andeq	r0, r0, r2
    f4c8:	000003b8 			; <UNDEFINED> instruction: 0x000003b8
    f4cc:	0001051e 	andeq	r0, r1, lr, lsl r5
    f4d0:	00000003 	andeq	r0, r0, r3
    f4d4:	000003b9 			; <UNDEFINED> instruction: 0x000003b9
    f4d8:	0001051e 	andeq	r0, r1, lr, lsl r5
    f4dc:	00000005 	andeq	r0, r0, r5
    f4e0:	000003ba 			; <UNDEFINED> instruction: 0x000003ba
    f4e4:	0001051e 	andeq	r0, r1, lr, lsl r5
    f4e8:	0000000b 	andeq	r0, r0, fp
    f4ec:	000003bb 			; <UNDEFINED> instruction: 0x000003bb
    f4f0:	0001051e 	andeq	r0, r1, lr, lsl r5
    f4f4:	0000000e 	andeq	r0, r0, lr
    f4f8:	000003bc 			; <UNDEFINED> instruction: 0x000003bc
    f4fc:	0001051e 	andeq	r0, r1, lr, lsl r5
    f500:	0000000f 	andeq	r0, r0, pc
    f504:	000003bd 			; <UNDEFINED> instruction: 0x000003bd
    f508:	00010520 	andeq	r0, r1, r0, lsr #10
    f50c:	00000003 	andeq	r0, r0, r3
    f510:	000003be 			; <UNDEFINED> instruction: 0x000003be
    f514:	00010520 	andeq	r0, r1, r0, lsr #10
    f518:	00000006 	andeq	r0, r0, r6
    f51c:	000003bf 			; <UNDEFINED> instruction: 0x000003bf
    f520:	00010520 	andeq	r0, r1, r0, lsr #10
    f524:	0000000a 	andeq	r0, r0, sl
    f528:	000003c0 	andeq	r0, r0, r0, asr #7
    f52c:	00010520 	andeq	r0, r1, r0, lsr #10
    f530:	0000000b 	andeq	r0, r0, fp
    f534:	000003c1 	andeq	r0, r0, r1, asr #7
    f538:	00010520 	andeq	r0, r1, r0, lsr #10
    f53c:	0000000f 	andeq	r0, r0, pc
    f540:	000003c2 	andeq	r0, r0, r2, asr #7
    f544:	00010522 	andeq	r0, r1, r2, lsr #10
    f548:	00000002 	andeq	r0, r0, r2
    f54c:	000003c3 	andeq	r0, r0, r3, asr #7
    f550:	00010522 	andeq	r0, r1, r2, lsr #10
    f554:	00000003 	andeq	r0, r0, r3
    f558:	000003c4 	andeq	r0, r0, r4, asr #7
    f55c:	00010522 	andeq	r0, r1, r2, lsr #10
    f560:	00000005 	andeq	r0, r0, r5
    f564:	000003c5 	andeq	r0, r0, r5, asr #7
    f568:	00010522 	andeq	r0, r1, r2, lsr #10
    f56c:	0000000b 	andeq	r0, r0, fp
    f570:	000003c6 	andeq	r0, r0, r6, asr #7
    f574:	00010522 	andeq	r0, r1, r2, lsr #10
    f578:	0000000e 	andeq	r0, r0, lr
    f57c:	000003c7 	andeq	r0, r0, r7, asr #7
    f580:	00010522 	andeq	r0, r1, r2, lsr #10
    f584:	0000000f 	andeq	r0, r0, pc
    f588:	000003c8 	andeq	r0, r0, r8, asr #7
    f58c:	00010524 	andeq	r0, r1, r4, lsr #10
    f590:	00000000 	andeq	r0, r0, r0
    f594:	000003c9 	andeq	r0, r0, r9, asr #7
    f598:	00010524 	andeq	r0, r1, r4, lsr #10
    f59c:	00000001 	andeq	r0, r0, r1
    f5a0:	000003ca 	andeq	r0, r0, sl, asr #7
    f5a4:	3fff0524 	svccc	0x00ff0524
    f5a8:	00000002 	andeq	r0, r0, r2
    f5ac:	000003cb 	andeq	r0, r0, fp, asr #7
    f5b0:	00010526 	andeq	r0, r1, r6, lsr #10
    f5b4:	00000004 	andeq	r0, r0, r4
    f5b8:	000003cc 	andeq	r0, r0, ip, asr #7
    f5bc:	00010526 	andeq	r0, r1, r6, lsr #10
    f5c0:	00000006 	andeq	r0, r0, r6
    f5c4:	000003cd 	andeq	r0, r0, sp, asr #7
    f5c8:	000f0526 	andeq	r0, pc, r6, lsr #10
    f5cc:	00000008 	andeq	r0, r0, r8
    f5d0:	000003ce 	andeq	r0, r0, lr, asr #7
    f5d4:	00010528 	andeq	r0, r1, r8, lsr #10
    f5d8:	00000004 	andeq	r0, r0, r4
    f5dc:	000003cf 	andeq	r0, r0, pc, asr #7
    f5e0:	00010528 	andeq	r0, r1, r8, lsr #10
    f5e4:	00000006 	andeq	r0, r0, r6
    f5e8:	000003d0 	ldrdeq	r0, [r0], -r0	; <UNPREDICTABLE>
    f5ec:	000f0528 	andeq	r0, pc, r8, lsr #10
    f5f0:	00000008 	andeq	r0, r0, r8
    f5f4:	000003d1 	ldrdeq	r0, [r0], -r1
    f5f8:	0001052a 	andeq	r0, r1, sl, lsr #10
    f5fc:	00000000 	andeq	r0, r0, r0
    f600:	000003d2 	ldrdeq	r0, [r0], -r2
    f604:	0001052a 	andeq	r0, r1, sl, lsr #10
    f608:	00000001 	andeq	r0, r0, r1
    f60c:	000003d3 	ldrdeq	r0, [r0], -r3
    f610:	0001052a 	andeq	r0, r1, sl, lsr #10
    f614:	00000002 	andeq	r0, r0, r2
    f618:	000003d4 	ldrdeq	r0, [r0], -r4
    f61c:	0001052a 	andeq	r0, r1, sl, lsr #10
    f620:	00000004 	andeq	r0, r0, r4
    f624:	000003d5 	ldrdeq	r0, [r0], -r5
    f628:	0001052a 	andeq	r0, r1, sl, lsr #10
    f62c:	00000006 	andeq	r0, r0, r6
    f630:	000003d6 	ldrdeq	r0, [r0], -r6
    f634:	0003052a 	andeq	r0, r3, sl, lsr #10
    f638:	00000007 	andeq	r0, r0, r7
    f63c:	000003d7 	ldrdeq	r0, [r0], -r7
    f640:	000f052a 	andeq	r0, pc, sl, lsr #10
    f644:	00000009 	andeq	r0, r0, r9
    f648:	000003d8 	ldrdeq	r0, [r0], -r8
    f64c:	0001052c 	andeq	r0, r1, ip, lsr #10
    f650:	00000000 	andeq	r0, r0, r0
    f654:	000003d9 	ldrdeq	r0, [r0], -r9
    f658:	0001052c 	andeq	r0, r1, ip, lsr #10
    f65c:	00000001 	andeq	r0, r0, r1
    f660:	000003da 	ldrdeq	r0, [r0], -sl
    f664:	0001052c 	andeq	r0, r1, ip, lsr #10
    f668:	00000002 	andeq	r0, r0, r2
    f66c:	000003db 	ldrdeq	r0, [r0], -fp
    f670:	0001052c 	andeq	r0, r1, ip, lsr #10
    f674:	00000004 	andeq	r0, r0, r4
    f678:	000003dc 	ldrdeq	r0, [r0], -ip
    f67c:	0001052c 	andeq	r0, r1, ip, lsr #10
    f680:	00000006 	andeq	r0, r0, r6
    f684:	000003dd 	ldrdeq	r0, [r0], -sp
    f688:	0001052c 	andeq	r0, r1, ip, lsr #10
    f68c:	00000007 	andeq	r0, r0, r7
    f690:	000003de 	ldrdeq	r0, [r0], -lr
    f694:	0003052c 	andeq	r0, r3, ip, lsr #10
    f698:	00000008 	andeq	r0, r0, r8
    f69c:	000003df 	ldrdeq	r0, [r0], -pc	; <UNPREDICTABLE>
    f6a0:	000f052c 	andeq	r0, pc, ip, lsr #10
    f6a4:	0000000a 	andeq	r0, r0, sl
    f6a8:	000003e0 	andeq	r0, r0, r0, ror #7
    f6ac:	0001052e 	andeq	r0, r1, lr, lsr #10
    f6b0:	00000000 	andeq	r0, r0, r0
    f6b4:	000003e1 	andeq	r0, r0, r1, ror #7
    f6b8:	0001052e 	andeq	r0, r1, lr, lsr #10
    f6bc:	00000001 	andeq	r0, r0, r1
    f6c0:	000003e2 	andeq	r0, r0, r2, ror #7
    f6c4:	0001052e 	andeq	r0, r1, lr, lsr #10
    f6c8:	00000002 	andeq	r0, r0, r2
    f6cc:	000003e3 	andeq	r0, r0, r3, ror #7
    f6d0:	0001052e 	andeq	r0, r1, lr, lsr #10
    f6d4:	00000003 	andeq	r0, r0, r3
    f6d8:	000003e4 	andeq	r0, r0, r4, ror #7
    f6dc:	0001052e 	andeq	r0, r1, lr, lsr #10
    f6e0:	00000004 	andeq	r0, r0, r4
    f6e4:	000003e5 	andeq	r0, r0, r5, ror #7
    f6e8:	0001052e 	andeq	r0, r1, lr, lsr #10
    f6ec:	00000006 	andeq	r0, r0, r6
    f6f0:	000003e6 	andeq	r0, r0, r6, ror #7
    f6f4:	0001052e 	andeq	r0, r1, lr, lsr #10
    f6f8:	00000007 	andeq	r0, r0, r7
    f6fc:	000003e7 	andeq	r0, r0, r7, ror #7
    f700:	0003052e 	andeq	r0, r3, lr, lsr #10
    f704:	00000008 	andeq	r0, r0, r8
    f708:	000003e8 	andeq	r0, r0, r8, ror #7
    f70c:	000f052e 	andeq	r0, pc, lr, lsr #10
    f710:	0000000a 	andeq	r0, r0, sl
    f714:	000003e9 	andeq	r0, r0, r9, ror #7
    f718:	00010530 	andeq	r0, r1, r0, lsr r5
    f71c:	00000000 	andeq	r0, r0, r0
    f720:	000003ea 	andeq	r0, r0, sl, ror #7
    f724:	00010530 	andeq	r0, r1, r0, lsr r5
    f728:	00000002 	andeq	r0, r0, r2
    f72c:	000003eb 	andeq	r0, r0, fp, ror #7
    f730:	00010530 	andeq	r0, r1, r0, lsr r5
    f734:	00000004 	andeq	r0, r0, r4
    f738:	000003ec 	andeq	r0, r0, ip, ror #7
    f73c:	00070530 	andeq	r0, r7, r0, lsr r5
    f740:	00000005 	andeq	r0, r0, r5
    f744:	000003ed 	andeq	r0, r0, sp, ror #7
    f748:	000f0530 	andeq	r0, pc, r0, lsr r5	; <UNPREDICTABLE>
    f74c:	00000008 	andeq	r0, r0, r8
    f750:	000003ee 	andeq	r0, r0, lr, ror #7
    f754:	00010532 	andeq	r0, r1, r2, lsr r5
    f758:	00000000 	andeq	r0, r0, r0
    f75c:	000003ef 	andeq	r0, r0, pc, ror #7
    f760:	00010532 	andeq	r0, r1, r2, lsr r5
    f764:	00000002 	andeq	r0, r0, r2
    f768:	000003f0 	strdeq	r0, [r0], -r0	; <UNPREDICTABLE>
    f76c:	00010532 	andeq	r0, r1, r2, lsr r5
    f770:	00000004 	andeq	r0, r0, r4
    f774:	000003f1 	strdeq	r0, [r0], -r1
    f778:	00070532 	andeq	r0, r7, r2, lsr r5
    f77c:	00000005 	andeq	r0, r0, r5
    f780:	000003f2 	strdeq	r0, [r0], -r2
    f784:	000f0532 	andeq	r0, pc, r2, lsr r5	; <UNPREDICTABLE>
    f788:	00000008 	andeq	r0, r0, r8
    f78c:	000003f3 	strdeq	r0, [r0], -r3
    f790:	00010534 	andeq	r0, r1, r4, lsr r5
    f794:	00000000 	andeq	r0, r0, r0
    f798:	000003f4 	strdeq	r0, [r0], -r4
    f79c:	00010534 	andeq	r0, r1, r4, lsr r5
    f7a0:	00000002 	andeq	r0, r0, r2
    f7a4:	000003f5 	strdeq	r0, [r0], -r5
    f7a8:	00010534 	andeq	r0, r1, r4, lsr r5
    f7ac:	00000004 	andeq	r0, r0, r4
    f7b0:	000003f6 	strdeq	r0, [r0], -r6
    f7b4:	00030534 	andeq	r0, r3, r4, lsr r5
    f7b8:	00000005 	andeq	r0, r0, r5
    f7bc:	000003f7 	strdeq	r0, [r0], -r7
    f7c0:	000f0534 	andeq	r0, pc, r4, lsr r5	; <UNPREDICTABLE>
    f7c4:	00000008 	andeq	r0, r0, r8
    f7c8:	000003f8 	strdeq	r0, [r0], -r8
    f7cc:	00010536 	andeq	r0, r1, r6, lsr r5
    f7d0:	00000000 	andeq	r0, r0, r0
    f7d4:	000003f9 	strdeq	r0, [r0], -r9
    f7d8:	00010536 	andeq	r0, r1, r6, lsr r5
    f7dc:	00000001 	andeq	r0, r0, r1
    f7e0:	000003fa 	strdeq	r0, [r0], -sl
    f7e4:	00010536 	andeq	r0, r1, r6, lsr r5
    f7e8:	00000007 	andeq	r0, r0, r7
    f7ec:	000003fb 	strdeq	r0, [r0], -fp
    f7f0:	00030536 	andeq	r0, r3, r6, lsr r5
    f7f4:	0000000c 	andeq	r0, r0, ip
    f7f8:	000003fc 	strdeq	r0, [r0], -ip
    f7fc:	00010536 	andeq	r0, r1, r6, lsr r5
    f800:	0000000f 	andeq	r0, r0, pc
    f804:	000003fd 	strdeq	r0, [r0], -sp
    f808:	00010538 	andeq	r0, r1, r8, lsr r5
    f80c:	00000000 	andeq	r0, r0, r0
    f810:	000003fe 	strdeq	r0, [r0], -lr
    f814:	00010538 	andeq	r0, r1, r8, lsr r5
    f818:	00000002 	andeq	r0, r0, r2
    f81c:	000003ff 	strdeq	r0, [r0], -pc	; <UNPREDICTABLE>
    f820:	00010538 	andeq	r0, r1, r8, lsr r5
    f824:	00000003 	andeq	r0, r0, r3
    f828:	00000400 	andeq	r0, r0, r0, lsl #8
    f82c:	00010538 	andeq	r0, r1, r8, lsr r5
    f830:	00000004 	andeq	r0, r0, r4
    f834:	00000401 	andeq	r0, r0, r1, lsl #8
    f838:	00070538 	andeq	r0, r7, r8, lsr r5
    f83c:	00000005 	andeq	r0, r0, r5
    f840:	00000402 	andeq	r0, r0, r2, lsl #8
    f844:	000f0538 	andeq	r0, pc, r8, lsr r5	; <UNPREDICTABLE>
    f848:	0000000b 	andeq	r0, r0, fp
    f84c:	00000403 	andeq	r0, r0, r3, lsl #8
    f850:	ffff053a 			; <UNDEFINED> instruction: 0xffff053a
    f854:	00000000 	andeq	r0, r0, r0
    f858:	00000404 	andeq	r0, r0, r4, lsl #8
    f85c:	0001053c 	andeq	r0, r1, ip, lsr r5
    f860:	00000000 	andeq	r0, r0, r0
    f864:	00000405 	andeq	r0, r0, r5, lsl #8
    f868:	0001053c 	andeq	r0, r1, ip, lsr r5
    f86c:	00000002 	andeq	r0, r0, r2
    f870:	00000406 	andeq	r0, r0, r6, lsl #8
    f874:	0001053c 	andeq	r0, r1, ip, lsr r5
    f878:	00000004 	andeq	r0, r0, r4
    f87c:	00000407 	andeq	r0, r0, r7, lsl #8
    f880:	0001053c 	andeq	r0, r1, ip, lsr r5
    f884:	00000005 	andeq	r0, r0, r5
    f888:	00000408 	andeq	r0, r0, r8, lsl #8
    f88c:	000f053c 	andeq	r0, pc, ip, lsr r5	; <UNPREDICTABLE>
    f890:	00000008 	andeq	r0, r0, r8
    f894:	00000409 	andeq	r0, r0, r9, lsl #8
    f898:	0001053e 	andeq	r0, r1, lr, lsr r5
    f89c:	00000000 	andeq	r0, r0, r0
    f8a0:	0000040a 	andeq	r0, r0, sl, lsl #8
    f8a4:	0001053e 	andeq	r0, r1, lr, lsr r5
    f8a8:	00000002 	andeq	r0, r0, r2
    f8ac:	0000040b 	andeq	r0, r0, fp, lsl #8
    f8b0:	0001053e 	andeq	r0, r1, lr, lsr r5
    f8b4:	00000004 	andeq	r0, r0, r4
    f8b8:	0000040c 	andeq	r0, r0, ip, lsl #8
    f8bc:	0001053e 	andeq	r0, r1, lr, lsr r5
    f8c0:	00000005 	andeq	r0, r0, r5
    f8c4:	0000040d 	andeq	r0, r0, sp, lsl #8
    f8c8:	000f053e 	andeq	r0, pc, lr, lsr r5	; <UNPREDICTABLE>
    f8cc:	00000008 	andeq	r0, r0, r8
    f8d0:	0000040e 	andeq	r0, r0, lr, lsl #8
    f8d4:	00030540 	andeq	r0, r3, r0, asr #10
    f8d8:	00000000 	andeq	r0, r0, r0
    f8dc:	0000040f 	andeq	r0, r0, pc, lsl #8
    f8e0:	00010542 	andeq	r0, r1, r2, asr #10
    f8e4:	00000000 	andeq	r0, r0, r0
    f8e8:	00000410 	andeq	r0, r0, r0, lsl r4
    f8ec:	00010542 	andeq	r0, r1, r2, asr #10
    f8f0:	00000001 	andeq	r0, r0, r1
    f8f4:	00000411 	andeq	r0, r0, r1, lsl r4
    f8f8:	00010542 	andeq	r0, r1, r2, asr #10
    f8fc:	00000002 	andeq	r0, r0, r2
    f900:	00000412 	andeq	r0, r0, r2, lsl r4
    f904:	00010542 	andeq	r0, r1, r2, asr #10
    f908:	00000007 	andeq	r0, r0, r7
    f90c:	00000413 	andeq	r0, r0, r3, lsl r4
    f910:	00030542 	andeq	r0, r3, r2, asr #10
    f914:	0000000c 	andeq	r0, r0, ip
    f918:	00000414 	andeq	r0, r0, r4, lsl r4
    f91c:	00010542 	andeq	r0, r1, r2, asr #10
    f920:	0000000f 	andeq	r0, r0, pc
    f924:	00000415 	andeq	r0, r0, r5, lsl r4
    f928:	00010544 	andeq	r0, r1, r4, asr #10
    f92c:	00000000 	andeq	r0, r0, r0
    f930:	00000416 	andeq	r0, r0, r6, lsl r4
    f934:	00010544 	andeq	r0, r1, r4, asr #10
    f938:	00000002 	andeq	r0, r0, r2
    f93c:	00000417 	andeq	r0, r0, r7, lsl r4
    f940:	00010544 	andeq	r0, r1, r4, asr #10
    f944:	00000004 	andeq	r0, r0, r4
    f948:	00000418 	andeq	r0, r0, r8, lsl r4
    f94c:	00070544 	andeq	r0, r7, r4, asr #10
    f950:	00000005 	andeq	r0, r0, r5
    f954:	00000419 	andeq	r0, r0, r9, lsl r4
    f958:	00030544 	andeq	r0, r3, r4, asr #10
    f95c:	00000008 	andeq	r0, r0, r8
    f960:	0000041a 	andeq	r0, r0, sl, lsl r4
    f964:	000f0544 	andeq	r0, pc, r4, asr #10
    f968:	0000000a 	andeq	r0, r0, sl
    f96c:	0000041b 	andeq	r0, r0, fp, lsl r4
    f970:	00ff0546 	rscseq	r0, pc, r6, asr #10
    f974:	00000000 	andeq	r0, r0, r0
    f978:	0000041c 	andeq	r0, r0, ip, lsl r4
    f97c:	000f0546 	andeq	r0, pc, r6, asr #10
    f980:	00000008 	andeq	r0, r0, r8
    f984:	0000041d 	andeq	r0, r0, sp, lsl r4
    f988:	00010546 	andeq	r0, r1, r6, asr #10
    f98c:	0000000f 	andeq	r0, r0, pc
    f990:	0000041e 	andeq	r0, r0, lr, lsl r4
    f994:	00010548 	andeq	r0, r1, r8, asr #10
    f998:	00000003 	andeq	r0, r0, r3
    f99c:	0000041f 	andeq	r0, r0, pc, lsl r4
    f9a0:	00010548 	andeq	r0, r1, r8, asr #10
    f9a4:	00000005 	andeq	r0, r0, r5
    f9a8:	00000420 	andeq	r0, r0, r0, lsr #8
    f9ac:	00010548 	andeq	r0, r1, r8, asr #10
    f9b0:	00000007 	andeq	r0, r0, r7
    f9b4:	00000421 	andeq	r0, r0, r1, lsr #8
    f9b8:	00010548 	andeq	r0, r1, r8, asr #10
    f9bc:	00000009 	andeq	r0, r0, r9
    f9c0:	00000422 	andeq	r0, r0, r2, lsr #8
    f9c4:	00010548 	andeq	r0, r1, r8, asr #10
    f9c8:	0000000b 	andeq	r0, r0, fp
    f9cc:	00000423 	andeq	r0, r0, r3, lsr #8
    f9d0:	00010548 	andeq	r0, r1, r8, asr #10
    f9d4:	0000000d 	andeq	r0, r0, sp
    f9d8:	00000424 	andeq	r0, r0, r4, lsr #8
    f9dc:	00010548 	andeq	r0, r1, r8, asr #10
    f9e0:	0000000f 	andeq	r0, r0, pc
    f9e4:	00000425 	andeq	r0, r0, r5, lsr #8
    f9e8:	0001054a 	andeq	r0, r1, sl, asr #10
    f9ec:	00000002 	andeq	r0, r0, r2
    f9f0:	00000426 	andeq	r0, r0, r6, lsr #8
    f9f4:	0001054a 	andeq	r0, r1, sl, asr #10
    f9f8:	00000003 	andeq	r0, r0, r3
    f9fc:	00000427 	andeq	r0, r0, r7, lsr #8
    fa00:	0001054a 	andeq	r0, r1, sl, asr #10
    fa04:	00000004 	andeq	r0, r0, r4
    fa08:	00000428 	andeq	r0, r0, r8, lsr #8
    fa0c:	0001054a 	andeq	r0, r1, sl, asr #10
    fa10:	00000006 	andeq	r0, r0, r6
    fa14:	00000429 	andeq	r0, r0, r9, lsr #8
    fa18:	0001054a 	andeq	r0, r1, sl, asr #10
    fa1c:	0000000a 	andeq	r0, r0, sl
    fa20:	0000042a 	andeq	r0, r0, sl, lsr #8
    fa24:	0001054a 	andeq	r0, r1, sl, asr #10
    fa28:	0000000b 	andeq	r0, r0, fp
    fa2c:	0000042b 	andeq	r0, r0, fp, lsr #8
    fa30:	0001054a 	andeq	r0, r1, sl, asr #10
    fa34:	0000000f 	andeq	r0, r0, pc
    fa38:	0000042c 	andeq	r0, r0, ip, lsr #8
    fa3c:	0001054c 	andeq	r0, r1, ip, asr #10
    fa40:	00000007 	andeq	r0, r0, r7
    fa44:	0000042d 	andeq	r0, r0, sp, lsr #8
    fa48:	0001054c 	andeq	r0, r1, ip, asr #10
    fa4c:	00000008 	andeq	r0, r0, r8
    fa50:	0000042e 	andeq	r0, r0, lr, lsr #8
    fa54:	0001054c 	andeq	r0, r1, ip, asr #10
    fa58:	00000009 	andeq	r0, r0, r9
    fa5c:	0000042f 	andeq	r0, r0, pc, lsr #8
    fa60:	0001054c 	andeq	r0, r1, ip, asr #10
    fa64:	0000000d 	andeq	r0, r0, sp
    fa68:	00000430 	andeq	r0, r0, r0, lsr r4
    fa6c:	0001054c 	andeq	r0, r1, ip, asr #10
    fa70:	0000000e 	andeq	r0, r0, lr
    fa74:	00000431 	andeq	r0, r0, r1, lsr r4
    fa78:	0001054c 	andeq	r0, r1, ip, asr #10
    fa7c:	0000000f 	andeq	r0, r0, pc
    fa80:	00000432 	andeq	r0, r0, r2, lsr r4
    fa84:	0001054e 	andeq	r0, r1, lr, asr #10
    fa88:	00000000 	andeq	r0, r0, r0
    fa8c:	00000433 	andeq	r0, r0, r3, lsr r4
    fa90:	0001054e 	andeq	r0, r1, lr, asr #10
    fa94:	00000001 	andeq	r0, r0, r1
    fa98:	00000434 	andeq	r0, r0, r4, lsr r4
    fa9c:	0001054e 	andeq	r0, r1, lr, asr #10
    faa0:	00000007 	andeq	r0, r0, r7
    faa4:	00000435 	andeq	r0, r0, r5, lsr r4
    faa8:	0003054e 	andeq	r0, r3, lr, asr #10
    faac:	0000000c 	andeq	r0, r0, ip
    fab0:	00000436 	andeq	r0, r0, r6, lsr r4
    fab4:	0001054e 	andeq	r0, r1, lr, asr #10
    fab8:	0000000f 	andeq	r0, r0, pc
    fabc:	00000437 	andeq	r0, r0, r7, lsr r4
    fac0:	00010550 	andeq	r0, r1, r0, asr r5
    fac4:	00000000 	andeq	r0, r0, r0
    fac8:	00000438 	andeq	r0, r0, r8, lsr r4
    facc:	00010550 	andeq	r0, r1, r0, asr r5
    fad0:	00000001 	andeq	r0, r0, r1
    fad4:	00000439 	andeq	r0, r0, r9, lsr r4
    fad8:	00010550 	andeq	r0, r1, r0, asr r5
    fadc:	00000002 	andeq	r0, r0, r2
    fae0:	0000043a 	andeq	r0, r0, sl, lsr r4
    fae4:	00010550 	andeq	r0, r1, r0, asr r5
    fae8:	00000004 	andeq	r0, r0, r4
    faec:	0000043b 	andeq	r0, r0, fp, lsr r4
    faf0:	000f0550 	andeq	r0, pc, r0, asr r5	; <UNPREDICTABLE>
    faf4:	00000008 	andeq	r0, r0, r8
    faf8:	0000043c 	andeq	r0, r0, ip, lsr r4
    fafc:	00010552 	andeq	r0, r1, r2, asr r5
    fb00:	00000000 	andeq	r0, r0, r0
    fb04:	0000043d 	andeq	r0, r0, sp, lsr r4
    fb08:	00010552 	andeq	r0, r1, r2, asr r5
    fb0c:	00000001 	andeq	r0, r0, r1
    fb10:	0000043e 	andeq	r0, r0, lr, lsr r4
    fb14:	00010552 	andeq	r0, r1, r2, asr r5
    fb18:	00000007 	andeq	r0, r0, r7
    fb1c:	0000043f 	andeq	r0, r0, pc, lsr r4
    fb20:	00030552 	andeq	r0, r3, r2, asr r5
    fb24:	0000000c 	andeq	r0, r0, ip
    fb28:	00000440 	andeq	r0, r0, r0, asr #8
    fb2c:	00010552 	andeq	r0, r1, r2, asr r5
    fb30:	0000000e 	andeq	r0, r0, lr
    fb34:	00000441 	andeq	r0, r0, r1, asr #8
    fb38:	00010552 	andeq	r0, r1, r2, asr r5
    fb3c:	0000000f 	andeq	r0, r0, pc
    fb40:	00000442 	andeq	r0, r0, r2, asr #8
    fb44:	00010554 	andeq	r0, r1, r4, asr r5
    fb48:	00000000 	andeq	r0, r0, r0
    fb4c:	00000443 	andeq	r0, r0, r3, asr #8
    fb50:	00010554 	andeq	r0, r1, r4, asr r5
    fb54:	00000001 	andeq	r0, r0, r1
    fb58:	00000444 	andeq	r0, r0, r4, asr #8
    fb5c:	00030554 	andeq	r0, r3, r4, asr r5
    fb60:	00000002 	andeq	r0, r0, r2
    fb64:	00000445 	andeq	r0, r0, r5, asr #8
    fb68:	00030554 	andeq	r0, r3, r4, asr r5
    fb6c:	00000004 	andeq	r0, r0, r4
    fb70:	00000446 	andeq	r0, r0, r6, asr #8
    fb74:	00010554 	andeq	r0, r1, r4, asr r5
    fb78:	00000006 	andeq	r0, r0, r6
    fb7c:	00000447 	andeq	r0, r0, r7, asr #8
    fb80:	000f0554 	andeq	r0, pc, r4, asr r5	; <UNPREDICTABLE>
    fb84:	00000008 	andeq	r0, r0, r8
    fb88:	00000448 	andeq	r0, r0, r8, asr #8
    fb8c:	00010556 	andeq	r0, r1, r6, asr r5
    fb90:	00000000 	andeq	r0, r0, r0
    fb94:	00000449 	andeq	r0, r0, r9, asr #8
    fb98:	00010556 	andeq	r0, r1, r6, asr r5
    fb9c:	00000001 	andeq	r0, r0, r1
    fba0:	0000044a 	andeq	r0, r0, sl, asr #8
    fba4:	00010556 	andeq	r0, r1, r6, asr r5
    fba8:	00000007 	andeq	r0, r0, r7
    fbac:	0000044b 	andeq	r0, r0, fp, asr #8
    fbb0:	00030556 	andeq	r0, r3, r6, asr r5
    fbb4:	0000000c 	andeq	r0, r0, ip
    fbb8:	0000044c 	andeq	r0, r0, ip, asr #8
    fbbc:	00010556 	andeq	r0, r1, r6, asr r5
    fbc0:	0000000e 	andeq	r0, r0, lr
    fbc4:	0000044d 	andeq	r0, r0, sp, asr #8
    fbc8:	00010556 	andeq	r0, r1, r6, asr r5
    fbcc:	0000000f 	andeq	r0, r0, pc
    fbd0:	0000044e 	andeq	r0, r0, lr, asr #8
    fbd4:	00010558 	andeq	r0, r1, r8, asr r5
    fbd8:	00000000 	andeq	r0, r0, r0
    fbdc:	0000044f 	andeq	r0, r0, pc, asr #8
    fbe0:	00010558 	andeq	r0, r1, r8, asr r5
    fbe4:	00000001 	andeq	r0, r0, r1
    fbe8:	00000450 	andeq	r0, r0, r0, asr r4
    fbec:	00010558 	andeq	r0, r1, r8, asr r5
    fbf0:	00000002 	andeq	r0, r0, r2
    fbf4:	00000451 	andeq	r0, r0, r1, asr r4
    fbf8:	00010558 	andeq	r0, r1, r8, asr r5
    fbfc:	00000004 	andeq	r0, r0, r4
    fc00:	00000452 	andeq	r0, r0, r2, asr r4
    fc04:	000f0558 	andeq	r0, pc, r8, asr r5	; <UNPREDICTABLE>
    fc08:	00000008 	andeq	r0, r0, r8
    fc0c:	00000453 	andeq	r0, r0, r3, asr r4
    fc10:	0001055a 	andeq	r0, r1, sl, asr r5
    fc14:	00000000 	andeq	r0, r0, r0
    fc18:	00000454 	andeq	r0, r0, r4, asr r4
    fc1c:	0001055a 	andeq	r0, r1, sl, asr r5
    fc20:	00000001 	andeq	r0, r0, r1
    fc24:	00000455 	andeq	r0, r0, r5, asr r4
    fc28:	0001055a 	andeq	r0, r1, sl, asr r5
    fc2c:	00000007 	andeq	r0, r0, r7
    fc30:	00000456 	andeq	r0, r0, r6, asr r4
    fc34:	0003055a 	andeq	r0, r3, sl, asr r5
    fc38:	0000000c 	andeq	r0, r0, ip
    fc3c:	00000457 	andeq	r0, r0, r7, asr r4
    fc40:	0001055a 	andeq	r0, r1, sl, asr r5
    fc44:	0000000e 	andeq	r0, r0, lr
    fc48:	00000458 	andeq	r0, r0, r8, asr r4
    fc4c:	0001055a 	andeq	r0, r1, sl, asr r5
    fc50:	0000000f 	andeq	r0, r0, pc
    fc54:	00000459 	andeq	r0, r0, r9, asr r4
    fc58:	0001055c 	andeq	r0, r1, ip, asr r5
    fc5c:	00000000 	andeq	r0, r0, r0
    fc60:	0000045a 	andeq	r0, r0, sl, asr r4
    fc64:	0001055c 	andeq	r0, r1, ip, asr r5
    fc68:	00000001 	andeq	r0, r0, r1
    fc6c:	0000045b 	andeq	r0, r0, fp, asr r4
    fc70:	0001055c 	andeq	r0, r1, ip, asr r5
    fc74:	00000002 	andeq	r0, r0, r2
    fc78:	0000045c 	andeq	r0, r0, ip, asr r4
    fc7c:	0001055c 	andeq	r0, r1, ip, asr r5
    fc80:	00000004 	andeq	r0, r0, r4
    fc84:	0000045d 	andeq	r0, r0, sp, asr r4
    fc88:	0003055c 	andeq	r0, r3, ip, asr r5
    fc8c:	00000005 	andeq	r0, r0, r5
    fc90:	0000045e 	andeq	r0, r0, lr, asr r4
    fc94:	000f055c 	andeq	r0, pc, ip, asr r5	; <UNPREDICTABLE>
    fc98:	00000008 	andeq	r0, r0, r8
    fc9c:	0000045f 	andeq	r0, r0, pc, asr r4
    fca0:	0001055e 	andeq	r0, r1, lr, asr r5
    fca4:	00000000 	andeq	r0, r0, r0
    fca8:	00000460 	andeq	r0, r0, r0, ror #8
    fcac:	0001055e 	andeq	r0, r1, lr, asr r5
    fcb0:	00000001 	andeq	r0, r0, r1
    fcb4:	00000461 	andeq	r0, r0, r1, ror #8
    fcb8:	0001055e 	andeq	r0, r1, lr, asr r5
    fcbc:	00000007 	andeq	r0, r0, r7
    fcc0:	00000462 	andeq	r0, r0, r2, ror #8
    fcc4:	0003055e 	andeq	r0, r3, lr, asr r5
    fcc8:	0000000c 	andeq	r0, r0, ip
    fccc:	00000463 	andeq	r0, r0, r3, ror #8
    fcd0:	0001055e 	andeq	r0, r1, lr, asr r5
    fcd4:	0000000e 	andeq	r0, r0, lr
    fcd8:	00000464 	andeq	r0, r0, r4, ror #8
    fcdc:	0001055e 	andeq	r0, r1, lr, asr r5
    fce0:	0000000f 	andeq	r0, r0, pc
    fce4:	00000465 	andeq	r0, r0, r5, ror #8
    fce8:	00010560 	andeq	r0, r1, r0, ror #10
    fcec:	00000000 	andeq	r0, r0, r0
    fcf0:	00000466 	andeq	r0, r0, r6, ror #8
    fcf4:	00010560 	andeq	r0, r1, r0, ror #10
    fcf8:	00000001 	andeq	r0, r0, r1
    fcfc:	00000467 	andeq	r0, r0, r7, ror #8
    fd00:	00010560 	andeq	r0, r1, r0, ror #10
    fd04:	00000002 	andeq	r0, r0, r2
    fd08:	00000468 	andeq	r0, r0, r8, ror #8
    fd0c:	00010560 	andeq	r0, r1, r0, ror #10
    fd10:	00000004 	andeq	r0, r0, r4
    fd14:	00000469 	andeq	r0, r0, r9, ror #8
    fd18:	000f0560 	andeq	r0, pc, r0, ror #10
    fd1c:	00000008 	andeq	r0, r0, r8
    fd20:	0000046a 	andeq	r0, r0, sl, ror #8
    fd24:	001f0600 	andseq	r0, pc, r0, lsl #12
    fd28:	00000000 	andeq	r0, r0, r0
    fd2c:	0000046b 	andeq	r0, r0, fp, ror #8
    fd30:	003f0602 	eorseq	r0, pc, r2, lsl #12
    fd34:	00000000 	andeq	r0, r0, r0
    fd38:	0000046c 	andeq	r0, r0, ip, ror #8
    fd3c:	00010604 	andeq	r0, r1, r4, lsl #12
    fd40:	00000000 	andeq	r0, r0, r0
    fd44:	0000046d 	andeq	r0, r0, sp, ror #8
    fd48:	ffff0606 			; <UNDEFINED> instruction: 0xffff0606
    fd4c:	00000000 	andeq	r0, r0, r0
    fd50:	0000046e 	andeq	r0, r0, lr, ror #8
    fd54:	00010608 	andeq	r0, r1, r8, lsl #12
    fd58:	00000000 	andeq	r0, r0, r0
    fd5c:	0000046f 	andeq	r0, r0, pc, ror #8
    fd60:	0001060a 	andeq	r0, r1, sl, lsl #12
    fd64:	00000000 	andeq	r0, r0, r0
    fd68:	00000470 	andeq	r0, r0, r0, ror r4
    fd6c:	0001060a 	andeq	r0, r1, sl, lsl #12
    fd70:	00000002 	andeq	r0, r0, r2
    fd74:	00000471 	andeq	r0, r0, r1, ror r4
    fd78:	0001060a 	andeq	r0, r1, sl, lsl #12
    fd7c:	00000004 	andeq	r0, r0, r4
    fd80:	00000472 	andeq	r0, r0, r2, ror r4
    fd84:	0001060c 	andeq	r0, r1, ip, lsl #12
    fd88:	00000000 	andeq	r0, r0, r0
    fd8c:	00000473 	andeq	r0, r0, r3, ror r4
    fd90:	0001060c 	andeq	r0, r1, ip, lsl #12
    fd94:	00000002 	andeq	r0, r0, r2
    fd98:	00000474 	andeq	r0, r0, r4, ror r4
    fd9c:	ffff060e 			; <UNDEFINED> instruction: 0xffff060e
    fda0:	00000000 	andeq	r0, r0, r0
    fda4:	00000475 	andeq	r0, r0, r5, ror r4
    fda8:	ffff0610 			; <UNDEFINED> instruction: 0xffff0610
    fdac:	00000000 	andeq	r0, r0, r0
    fdb0:	00000476 	andeq	r0, r0, r6, ror r4
    fdb4:	ffff0612 			; <UNDEFINED> instruction: 0xffff0612
    fdb8:	00000000 	andeq	r0, r0, r0
    fdbc:	00000477 	andeq	r0, r0, r7, ror r4
    fdc0:	ffff0614 			; <UNDEFINED> instruction: 0xffff0614
    fdc4:	00000000 	andeq	r0, r0, r0
    fdc8:	00000478 	andeq	r0, r0, r8, ror r4
    fdcc:	ffff0616 			; <UNDEFINED> instruction: 0xffff0616
    fdd0:	00000000 	andeq	r0, r0, r0
    fdd4:	00000479 	andeq	r0, r0, r9, ror r4
    fdd8:	ffff0618 			; <UNDEFINED> instruction: 0xffff0618
    fddc:	00000000 	andeq	r0, r0, r0
    fde0:	0000047a 	andeq	r0, r0, sl, ror r4
    fde4:	ffff061a 			; <UNDEFINED> instruction: 0xffff061a
    fde8:	00000000 	andeq	r0, r0, r0
    fdec:	0000047b 	andeq	r0, r0, fp, ror r4
    fdf0:	ffff061c 			; <UNDEFINED> instruction: 0xffff061c
    fdf4:	00000000 	andeq	r0, r0, r0
    fdf8:	0000047c 	andeq	r0, r0, ip, ror r4
    fdfc:	ffff061e 			; <UNDEFINED> instruction: 0xffff061e
    fe00:	00000000 	andeq	r0, r0, r0
    fe04:	0000047d 	andeq	r0, r0, sp, ror r4
    fe08:	ffff0620 			; <UNDEFINED> instruction: 0xffff0620
    fe0c:	00000000 	andeq	r0, r0, r0
    fe10:	0000047e 	andeq	r0, r0, lr, ror r4
    fe14:	ffff0622 			; <UNDEFINED> instruction: 0xffff0622
    fe18:	00000000 	andeq	r0, r0, r0
    fe1c:	0000047f 	andeq	r0, r0, pc, ror r4
    fe20:	ffff0624 			; <UNDEFINED> instruction: 0xffff0624
    fe24:	00000000 	andeq	r0, r0, r0
    fe28:	00000480 	andeq	r0, r0, r0, lsl #9
    fe2c:	ffff0626 			; <UNDEFINED> instruction: 0xffff0626
    fe30:	00000000 	andeq	r0, r0, r0
    fe34:	00000481 	andeq	r0, r0, r1, lsl #9
    fe38:	ffff0628 			; <UNDEFINED> instruction: 0xffff0628
    fe3c:	00000000 	andeq	r0, r0, r0
    fe40:	00000482 	andeq	r0, r0, r2, lsl #9
    fe44:	ffff062a 			; <UNDEFINED> instruction: 0xffff062a
    fe48:	00000000 	andeq	r0, r0, r0
    fe4c:	00000483 	andeq	r0, r0, r3, lsl #9
    fe50:	ffff062c 			; <UNDEFINED> instruction: 0xffff062c
    fe54:	00000000 	andeq	r0, r0, r0
    fe58:	00000484 	andeq	r0, r0, r4, lsl #9
    fe5c:	ffff062e 			; <UNDEFINED> instruction: 0xffff062e
    fe60:	00000000 	andeq	r0, r0, r0
    fe64:	00000485 	andeq	r0, r0, r5, lsl #9
    fe68:	ffff0630 			; <UNDEFINED> instruction: 0xffff0630
    fe6c:	00000000 	andeq	r0, r0, r0
    fe70:	00000486 	andeq	r0, r0, r6, lsl #9
    fe74:	ffff0632 			; <UNDEFINED> instruction: 0xffff0632
    fe78:	00000000 	andeq	r0, r0, r0
    fe7c:	00000487 	andeq	r0, r0, r7, lsl #9
    fe80:	ffff0634 			; <UNDEFINED> instruction: 0xffff0634
    fe84:	00000000 	andeq	r0, r0, r0
    fe88:	00000488 	andeq	r0, r0, r8, lsl #9
    fe8c:	ffff0636 			; <UNDEFINED> instruction: 0xffff0636
    fe90:	00000000 	andeq	r0, r0, r0
    fe94:	00000489 	andeq	r0, r0, r9, lsl #9
    fe98:	ffff0638 			; <UNDEFINED> instruction: 0xffff0638
    fe9c:	00000000 	andeq	r0, r0, r0
    fea0:	0000048a 	andeq	r0, r0, sl, lsl #9
    fea4:	ffff063a 			; <UNDEFINED> instruction: 0xffff063a
    fea8:	00000000 	andeq	r0, r0, r0
    feac:	0000048b 	andeq	r0, r0, fp, lsl #9
    feb0:	ffff063c 			; <UNDEFINED> instruction: 0xffff063c
    feb4:	00000000 	andeq	r0, r0, r0
    feb8:	0000048c 	andeq	r0, r0, ip, lsl #9
    febc:	0003063e 	andeq	r0, r3, lr, lsr r6
    fec0:	00000000 	andeq	r0, r0, r0
    fec4:	0000048d 	andeq	r0, r0, sp, lsl #9
    fec8:	00ff0640 	rscseq	r0, pc, r0, asr #12
    fecc:	00000000 	andeq	r0, r0, r0
    fed0:	0000048e 	andeq	r0, r0, lr, lsl #9
    fed4:	00030642 	andeq	r0, r3, r2, asr #12
    fed8:	00000000 	andeq	r0, r0, r0
    fedc:	0000048f 	andeq	r0, r0, pc, lsl #9
    fee0:	00030644 	andeq	r0, r3, r4, asr #12
    fee4:	00000000 	andeq	r0, r0, r0
    fee8:	00000490 	muleq	r0, r0, r4
    feec:	00010644 	andeq	r0, r1, r4, asr #12
    fef0:	00000002 	andeq	r0, r0, r2
    fef4:	00000491 	muleq	r0, r1, r4
    fef8:	00010644 	andeq	r0, r1, r4, asr #12
    fefc:	00000003 	andeq	r0, r0, r3
    ff00:	00000492 	muleq	r0, r2, r4
    ff04:	00010644 	andeq	r0, r1, r4, asr #12
    ff08:	00000004 	andeq	r0, r0, r4
    ff0c:	00000493 	muleq	r0, r3, r4
    ff10:	00010644 	andeq	r0, r1, r4, asr #12
    ff14:	00000005 	andeq	r0, r0, r5
    ff18:	00000494 	muleq	r0, r4, r4
    ff1c:	00010644 	andeq	r0, r1, r4, asr #12
    ff20:	00000006 	andeq	r0, r0, r6
    ff24:	00000495 	muleq	r0, r5, r4
    ff28:	001f0644 	andseq	r0, pc, r4, asr #12
    ff2c:	00000007 	andeq	r0, r0, r7
    ff30:	00000496 	muleq	r0, r6, r4
    ff34:	00010644 	andeq	r0, r1, r4, asr #12
    ff38:	0000000c 	andeq	r0, r0, ip
    ff3c:	00000497 	muleq	r0, r7, r4
    ff40:	00010646 	andeq	r0, r1, r6, asr #12
    ff44:	00000000 	andeq	r0, r0, r0
    ff48:	00000498 	muleq	r0, r8, r4
    ff4c:	00010646 	andeq	r0, r1, r6, asr #12
    ff50:	00000001 	andeq	r0, r0, r1
    ff54:	00000499 	muleq	r0, r9, r4
    ff58:	00010646 	andeq	r0, r1, r6, asr #12
    ff5c:	00000002 	andeq	r0, r0, r2
    ff60:	0000049a 	muleq	r0, sl, r4
    ff64:	00010646 	andeq	r0, r1, r6, asr #12
    ff68:	00000003 	andeq	r0, r0, r3
    ff6c:	0000049b 	muleq	r0, fp, r4
    ff70:	00010646 	andeq	r0, r1, r6, asr #12
    ff74:	00000004 	andeq	r0, r0, r4
    ff78:	0000049c 	muleq	r0, ip, r4
    ff7c:	00010646 	andeq	r0, r1, r6, asr #12
    ff80:	00000005 	andeq	r0, r0, r5
    ff84:	0000049d 	muleq	r0, sp, r4
    ff88:	00030646 	andeq	r0, r3, r6, asr #12
    ff8c:	00000006 	andeq	r0, r0, r6
    ff90:	0000049e 	muleq	r0, lr, r4
    ff94:	00010646 	andeq	r0, r1, r6, asr #12
    ff98:	00000008 	andeq	r0, r0, r8
    ff9c:	0000049f 	muleq	r0, pc, r4	; <UNPREDICTABLE>
    ffa0:	00010646 	andeq	r0, r1, r6, asr #12
    ffa4:	00000009 	andeq	r0, r0, r9
    ffa8:	000004a0 	andeq	r0, r0, r0, lsr #9
    ffac:	00010646 	andeq	r0, r1, r6, asr #12
    ffb0:	0000000a 	andeq	r0, r0, sl
    ffb4:	000004a1 	andeq	r0, r0, r1, lsr #9
    ffb8:	00010646 	andeq	r0, r1, r6, asr #12
    ffbc:	0000000b 	andeq	r0, r0, fp
    ffc0:	000004a2 	andeq	r0, r0, r2, lsr #9
    ffc4:	00010646 	andeq	r0, r1, r6, asr #12
    ffc8:	0000000c 	andeq	r0, r0, ip
    ffcc:	000004a3 	andeq	r0, r0, r3, lsr #9
    ffd0:	000f0700 	andeq	r0, pc, r0, lsl #14
    ffd4:	00000000 	andeq	r0, r0, r0
    ffd8:	000004a4 	andeq	r0, r0, r4, lsr #9
    ffdc:	00070700 	andeq	r0, r7, r0, lsl #14
    ffe0:	00000004 	andeq	r0, r0, r4
    ffe4:	000004a5 	andeq	r0, r0, r5, lsr #9
    ffe8:	00010700 	andeq	r0, r1, r0, lsl #14
    ffec:	00000007 	andeq	r0, r0, r7
    fff0:	000004a6 	andeq	r0, r0, r6, lsr #9
    fff4:	00010700 	andeq	r0, r1, r0, lsl #14
    fff8:	00000008 	andeq	r0, r0, r8
    fffc:	000004a7 	andeq	r0, r0, r7, lsr #9
   10000:	00010700 	andeq	r0, r1, r0, lsl #14
   10004:	00000009 	andeq	r0, r0, r9
   10008:	000004a8 	andeq	r0, r0, r8, lsr #9
   1000c:	00010700 	andeq	r0, r1, r0, lsl #14
   10010:	0000000a 	andeq	r0, r0, sl
   10014:	000004a9 	andeq	r0, r0, r9, lsr #9
   10018:	00010700 	andeq	r0, r1, r0, lsl #14
   1001c:	0000000b 	andeq	r0, r0, fp
   10020:	000004aa 	andeq	r0, r0, sl, lsr #9
   10024:	00010700 	andeq	r0, r1, r0, lsl #14
   10028:	0000000c 	andeq	r0, r0, ip
   1002c:	000004ab 	andeq	r0, r0, fp, lsr #9
   10030:	00010700 	andeq	r0, r1, r0, lsl #14
   10034:	0000000d 	andeq	r0, r0, sp
   10038:	000004ac 	andeq	r0, r0, ip, lsr #9
   1003c:	00010700 	andeq	r0, r1, r0, lsl #14
   10040:	0000000e 	andeq	r0, r0, lr
   10044:	000004ad 	andeq	r0, r0, sp, lsr #9
   10048:	00070702 	andeq	r0, r7, r2, lsl #14
   1004c:	00000000 	andeq	r0, r0, r0
   10050:	000004ae 	andeq	r0, r0, lr, lsr #9
   10054:	000f0702 	andeq	r0, pc, r2, lsl #14
   10058:	00000004 	andeq	r0, r0, r4
   1005c:	000004af 	andeq	r0, r0, pc, lsr #9
   10060:	00070702 	andeq	r0, r7, r2, lsl #14
   10064:	00000008 	andeq	r0, r0, r8
   10068:	000004b0 			; <UNDEFINED> instruction: 0x000004b0
   1006c:	00010704 	andeq	r0, r1, r4, lsl #14
   10070:	00000000 	andeq	r0, r0, r0
   10074:	000004b1 			; <UNDEFINED> instruction: 0x000004b1
   10078:	00010704 	andeq	r0, r1, r4, lsl #14
   1007c:	00000001 	andeq	r0, r0, r1
   10080:	000004b2 			; <UNDEFINED> instruction: 0x000004b2
   10084:	00010704 	andeq	r0, r1, r4, lsl #14
   10088:	00000002 	andeq	r0, r0, r2
   1008c:	000004b3 			; <UNDEFINED> instruction: 0x000004b3
   10090:	00010704 	andeq	r0, r1, r4, lsl #14
   10094:	00000003 	andeq	r0, r0, r3
   10098:	000004b4 			; <UNDEFINED> instruction: 0x000004b4
   1009c:	00010704 	andeq	r0, r1, r4, lsl #14
   100a0:	00000004 	andeq	r0, r0, r4
   100a4:	000004b5 			; <UNDEFINED> instruction: 0x000004b5
   100a8:	00010704 	andeq	r0, r1, r4, lsl #14
   100ac:	00000005 	andeq	r0, r0, r5
   100b0:	000004b6 			; <UNDEFINED> instruction: 0x000004b6
   100b4:	00010704 	andeq	r0, r1, r4, lsl #14
   100b8:	00000006 	andeq	r0, r0, r6
   100bc:	000004b7 			; <UNDEFINED> instruction: 0x000004b7
   100c0:	00010704 	andeq	r0, r1, r4, lsl #14
   100c4:	00000007 	andeq	r0, r0, r7
   100c8:	000004b8 			; <UNDEFINED> instruction: 0x000004b8
   100cc:	00070706 	andeq	r0, r7, r6, lsl #14
   100d0:	00000000 	andeq	r0, r0, r0
   100d4:	000004b9 			; <UNDEFINED> instruction: 0x000004b9
   100d8:	00030706 	andeq	r0, r3, r6, lsl #14
   100dc:	00000004 	andeq	r0, r0, r4
   100e0:	000004ba 			; <UNDEFINED> instruction: 0x000004ba
   100e4:	00ff0706 	rscseq	r0, pc, r6, lsl #14
   100e8:	00000008 	andeq	r0, r0, r8
   100ec:	000004bb 			; <UNDEFINED> instruction: 0x000004bb
   100f0:	00010708 	andeq	r0, r1, r8, lsl #14
   100f4:	00000000 	andeq	r0, r0, r0
   100f8:	000004bc 			; <UNDEFINED> instruction: 0x000004bc
   100fc:	00010708 	andeq	r0, r1, r8, lsl #14
   10100:	00000001 	andeq	r0, r0, r1
   10104:	000004bd 			; <UNDEFINED> instruction: 0x000004bd
   10108:	00010708 	andeq	r0, r1, r8, lsl #14
   1010c:	00000002 	andeq	r0, r0, r2
   10110:	000004be 			; <UNDEFINED> instruction: 0x000004be
   10114:	00010708 	andeq	r0, r1, r8, lsl #14
   10118:	00000003 	andeq	r0, r0, r3
   1011c:	000004bf 			; <UNDEFINED> instruction: 0x000004bf
   10120:	00010708 	andeq	r0, r1, r8, lsl #14
   10124:	00000004 	andeq	r0, r0, r4
   10128:	000004c0 	andeq	r0, r0, r0, asr #9
   1012c:	00010708 	andeq	r0, r1, r8, lsl #14
   10130:	00000005 	andeq	r0, r0, r5
   10134:	000004c1 	andeq	r0, r0, r1, asr #9
   10138:	00010708 	andeq	r0, r1, r8, lsl #14
   1013c:	00000006 	andeq	r0, r0, r6
   10140:	000004c2 	andeq	r0, r0, r2, asr #9
   10144:	001f070a 	andseq	r0, pc, sl, lsl #14
   10148:	00000000 	andeq	r0, r0, r0
   1014c:	000004c3 	andeq	r0, r0, r3, asr #9
   10150:	0007070a 	andeq	r0, r7, sl, lsl #14
   10154:	00000008 	andeq	r0, r0, r8
   10158:	000004c4 	andeq	r0, r0, r4, asr #9
   1015c:	0007070a 	andeq	r0, r7, sl, lsl #14
   10160:	0000000c 	andeq	r0, r0, ip
   10164:	000004c5 	andeq	r0, r0, r5, asr #9
   10168:	0003070c 	andeq	r0, r3, ip, lsl #14
   1016c:	00000000 	andeq	r0, r0, r0
   10170:	000004c6 	andeq	r0, r0, r6, asr #9
   10174:	0001070c 	andeq	r0, r1, ip, lsl #14
   10178:	00000002 	andeq	r0, r0, r2
   1017c:	000004c7 	andeq	r0, r0, r7, asr #9
   10180:	0001070c 	andeq	r0, r1, ip, lsl #14
   10184:	00000003 	andeq	r0, r0, r3
   10188:	000004c8 	andeq	r0, r0, r8, asr #9
   1018c:	0001070c 	andeq	r0, r1, ip, lsl #14
   10190:	00000004 	andeq	r0, r0, r4
   10194:	000004c9 	andeq	r0, r0, r9, asr #9
   10198:	0001070c 	andeq	r0, r1, ip, lsl #14
   1019c:	00000005 	andeq	r0, r0, r5
   101a0:	000004ca 	andeq	r0, r0, sl, asr #9
   101a4:	0001070c 	andeq	r0, r1, ip, lsl #14
   101a8:	00000006 	andeq	r0, r0, r6
   101ac:	000004cb 	andeq	r0, r0, fp, asr #9
   101b0:	0003070c 	andeq	r0, r3, ip, lsl #14
   101b4:	00000007 	andeq	r0, r0, r7
   101b8:	000004cc 	andeq	r0, r0, ip, asr #9
   101bc:	0001070c 	andeq	r0, r1, ip, lsl #14
   101c0:	00000009 	andeq	r0, r0, r9
   101c4:	000004cd 	andeq	r0, r0, sp, asr #9
   101c8:	0001070c 	andeq	r0, r1, ip, lsl #14
   101cc:	0000000a 	andeq	r0, r0, sl
   101d0:	000004ce 	andeq	r0, r0, lr, asr #9
   101d4:	0003070c 	andeq	r0, r3, ip, lsl #14
   101d8:	0000000b 	andeq	r0, r0, fp
   101dc:	000004cf 	andeq	r0, r0, pc, asr #9
   101e0:	0001070c 	andeq	r0, r1, ip, lsl #14
   101e4:	0000000d 	andeq	r0, r0, sp
   101e8:	000004d0 	ldrdeq	r0, [r0], -r0	; <UNPREDICTABLE>
   101ec:	0001070c 	andeq	r0, r1, ip, lsl #14
   101f0:	0000000e 	andeq	r0, r0, lr
   101f4:	000004d1 	ldrdeq	r0, [r0], -r1
   101f8:	0001070c 	andeq	r0, r1, ip, lsl #14
   101fc:	0000000f 	andeq	r0, r0, pc
   10200:	000004d2 	ldrdeq	r0, [r0], -r2
   10204:	0003070e 	andeq	r0, r3, lr, lsl #14
   10208:	00000000 	andeq	r0, r0, r0
   1020c:	000004d3 	ldrdeq	r0, [r0], -r3
   10210:	0001070e 	andeq	r0, r1, lr, lsl #14
   10214:	00000002 	andeq	r0, r0, r2
   10218:	000004d4 	ldrdeq	r0, [r0], -r4
   1021c:	000f070e 	andeq	r0, pc, lr, lsl #14
   10220:	00000004 	andeq	r0, r0, r4
   10224:	000004d5 	ldrdeq	r0, [r0], -r5
   10228:	0001070e 	andeq	r0, r1, lr, lsl #14
   1022c:	00000008 	andeq	r0, r0, r8
   10230:	000004d6 	ldrdeq	r0, [r0], -r6
   10234:	0003070e 	andeq	r0, r3, lr, lsl #14
   10238:	00000009 	andeq	r0, r0, r9
   1023c:	000004d7 	ldrdeq	r0, [r0], -r7
   10240:	0001070e 	andeq	r0, r1, lr, lsl #14
   10244:	0000000b 	andeq	r0, r0, fp
   10248:	000004d8 	ldrdeq	r0, [r0], -r8
   1024c:	0001070e 	andeq	r0, r1, lr, lsl #14
   10250:	0000000c 	andeq	r0, r0, ip
   10254:	000004d9 	ldrdeq	r0, [r0], -r9
   10258:	0001070e 	andeq	r0, r1, lr, lsl #14
   1025c:	0000000d 	andeq	r0, r0, sp
   10260:	000004da 	ldrdeq	r0, [r0], -sl
   10264:	00010710 	andeq	r0, r1, r0, lsl r7
   10268:	00000000 	andeq	r0, r0, r0
   1026c:	000004db 	ldrdeq	r0, [r0], -fp
   10270:	00010710 	andeq	r0, r1, r0, lsl r7
   10274:	00000001 	andeq	r0, r0, r1
   10278:	000004dc 	ldrdeq	r0, [r0], -ip
   1027c:	00010710 	andeq	r0, r1, r0, lsl r7
   10280:	00000002 	andeq	r0, r0, r2
   10284:	000004dd 	ldrdeq	r0, [r0], -sp
   10288:	00010710 	andeq	r0, r1, r0, lsl r7
   1028c:	00000003 	andeq	r0, r0, r3
   10290:	000004de 	ldrdeq	r0, [r0], -lr
   10294:	00030710 	andeq	r0, r3, r0, lsl r7
   10298:	00000004 	andeq	r0, r0, r4
   1029c:	000004df 	ldrdeq	r0, [r0], -pc	; <UNPREDICTABLE>
   102a0:	00030710 	andeq	r0, r3, r0, lsl r7
   102a4:	00000006 	andeq	r0, r0, r6
   102a8:	000004e0 	andeq	r0, r0, r0, ror #9
   102ac:	00030710 	andeq	r0, r3, r0, lsl r7
   102b0:	00000008 	andeq	r0, r0, r8
   102b4:	000004e1 	andeq	r0, r0, r1, ror #9
   102b8:	00030710 	andeq	r0, r3, r0, lsl r7
   102bc:	0000000a 	andeq	r0, r0, sl
   102c0:	000004e2 	andeq	r0, r0, r2, ror #9
   102c4:	000f0710 	andeq	r0, pc, r0, lsl r7	; <UNPREDICTABLE>
   102c8:	0000000c 	andeq	r0, r0, ip
   102cc:	000004e3 	andeq	r0, r0, r3, ror #9
   102d0:	00010712 	andeq	r0, r1, r2, lsl r7
   102d4:	00000000 	andeq	r0, r0, r0
   102d8:	000004e4 	andeq	r0, r0, r4, ror #9
   102dc:	00030712 	andeq	r0, r3, r2, lsl r7
   102e0:	00000001 	andeq	r0, r0, r1
   102e4:	000004e5 	andeq	r0, r0, r5, ror #9
   102e8:	00010712 	andeq	r0, r1, r2, lsl r7
   102ec:	00000003 	andeq	r0, r0, r3
   102f0:	000004e6 	andeq	r0, r0, r6, ror #9
   102f4:	000f0712 	andeq	r0, pc, r2, lsl r7	; <UNPREDICTABLE>
   102f8:	00000004 	andeq	r0, r0, r4
   102fc:	000004e7 	andeq	r0, r0, r7, ror #9
   10300:	7fff0714 	svcvc	0x00ff0714
   10304:	00000000 	andeq	r0, r0, r0
   10308:	000004e8 	andeq	r0, r0, r8, ror #9
   1030c:	00010714 	andeq	r0, r1, r4, lsl r7
   10310:	0000000f 	andeq	r0, r0, pc
   10314:	000004e9 	andeq	r0, r0, r9, ror #9
   10318:	7fff0716 	svcvc	0x00ff0716
   1031c:	00000000 	andeq	r0, r0, r0
   10320:	000004ea 	andeq	r0, r0, sl, ror #9
   10324:	00010716 	andeq	r0, r1, r6, lsl r7
   10328:	0000000f 	andeq	r0, r0, pc
   1032c:	000004eb 	andeq	r0, r0, fp, ror #9
   10330:	7fff0718 	svcvc	0x00ff0718
   10334:	00000000 	andeq	r0, r0, r0
   10338:	000004ec 	andeq	r0, r0, ip, ror #9
   1033c:	00010718 	andeq	r0, r1, r8, lsl r7
   10340:	0000000f 	andeq	r0, r0, pc
   10344:	000004ed 	andeq	r0, r0, sp, ror #9
   10348:	7fff071a 	svcvc	0x00ff071a
   1034c:	00000000 	andeq	r0, r0, r0
   10350:	000004ee 	andeq	r0, r0, lr, ror #9
   10354:	0001071a 	andeq	r0, r1, sl, lsl r7
   10358:	0000000f 	andeq	r0, r0, pc
   1035c:	000004ef 	andeq	r0, r0, pc, ror #9
   10360:	7fff071c 	svcvc	0x00ff071c
   10364:	00000000 	andeq	r0, r0, r0
   10368:	000004f0 	strdeq	r0, [r0], -r0	; <UNPREDICTABLE>
   1036c:	0001071c 	andeq	r0, r1, ip, lsl r7
   10370:	0000000f 	andeq	r0, r0, pc
   10374:	000004f1 	strdeq	r0, [r0], -r1
   10378:	7fff071e 	svcvc	0x00ff071e
   1037c:	00000000 	andeq	r0, r0, r0
   10380:	000004f2 	strdeq	r0, [r0], -r2
   10384:	0001071e 	andeq	r0, r1, lr, lsl r7
   10388:	0000000f 	andeq	r0, r0, pc
   1038c:	000004f3 	strdeq	r0, [r0], -r3
   10390:	7fff0720 	svcvc	0x00ff0720
   10394:	00000000 	andeq	r0, r0, r0
   10398:	000004f4 	strdeq	r0, [r0], -r4
   1039c:	00010720 	andeq	r0, r1, r0, lsr #14
   103a0:	0000000f 	andeq	r0, r0, pc
   103a4:	000004f5 	strdeq	r0, [r0], -r5
   103a8:	7fff0722 	svcvc	0x00ff0722
   103ac:	00000000 	andeq	r0, r0, r0
   103b0:	000004f6 	strdeq	r0, [r0], -r6
   103b4:	00010722 	andeq	r0, r1, r2, lsr #14
   103b8:	0000000f 	andeq	r0, r0, pc
   103bc:	000004f7 	strdeq	r0, [r0], -r7
   103c0:	7fff0724 	svcvc	0x00ff0724
   103c4:	00000000 	andeq	r0, r0, r0
   103c8:	000004f8 	strdeq	r0, [r0], -r8
   103cc:	00010724 	andeq	r0, r1, r4, lsr #14
   103d0:	0000000f 	andeq	r0, r0, pc
   103d4:	000004f9 	strdeq	r0, [r0], -r9
   103d8:	7fff0726 	svcvc	0x00ff0726
   103dc:	00000000 	andeq	r0, r0, r0
   103e0:	000004fa 	strdeq	r0, [r0], -sl
   103e4:	00010726 	andeq	r0, r1, r6, lsr #14
   103e8:	0000000f 	andeq	r0, r0, pc
   103ec:	000004fb 	strdeq	r0, [r0], -fp
   103f0:	0fff0728 	svceq	0x00ff0728
   103f4:	00000000 	andeq	r0, r0, r0
   103f8:	000004fc 	strdeq	r0, [r0], -ip
   103fc:	00010728 	andeq	r0, r1, r8, lsr #14
   10400:	0000000f 	andeq	r0, r0, pc
   10404:	000004fd 	strdeq	r0, [r0], -sp
   10408:	7fff072a 	svcvc	0x00ff072a
   1040c:	00000000 	andeq	r0, r0, r0
   10410:	000004fe 	strdeq	r0, [r0], -lr
   10414:	0001072a 	andeq	r0, r1, sl, lsr #14
   10418:	0000000f 	andeq	r0, r0, pc
   1041c:	000004ff 	strdeq	r0, [r0], -pc	; <UNPREDICTABLE>
   10420:	0001072c 	andeq	r0, r1, ip, lsr #14
   10424:	0000000f 	andeq	r0, r0, pc
   10428:	00000500 	andeq	r0, r0, r0, lsl #10
   1042c:	ffff072e 			; <UNDEFINED> instruction: 0xffff072e
   10430:	00000000 	andeq	r0, r0, r0
   10434:	00000501 	andeq	r0, r0, r1, lsl #10
   10438:	00010730 	andeq	r0, r1, r0, lsr r7
   1043c:	0000000f 	andeq	r0, r0, pc
   10440:	00000502 	andeq	r0, r0, r2, lsl #10
   10444:	ffff0732 			; <UNDEFINED> instruction: 0xffff0732
   10448:	00000000 	andeq	r0, r0, r0
   1044c:	00000503 	andeq	r0, r0, r3, lsl #10
   10450:	00010734 	andeq	r0, r1, r4, lsr r7
   10454:	00000000 	andeq	r0, r0, r0
   10458:	00000504 	andeq	r0, r0, r4, lsl #10
   1045c:	00010734 	andeq	r0, r1, r4, lsr r7
   10460:	0000000f 	andeq	r0, r0, pc
   10464:	00000505 	andeq	r0, r0, r5, lsl #10
   10468:	7fff0736 	svcvc	0x00ff0736
   1046c:	00000000 	andeq	r0, r0, r0
   10470:	00000506 	andeq	r0, r0, r6, lsl #10
   10474:	00010736 	andeq	r0, r1, r6, lsr r7
   10478:	0000000f 	andeq	r0, r0, pc
   1047c:	00000507 	andeq	r0, r0, r7, lsl #10
   10480:	ffff0738 			; <UNDEFINED> instruction: 0xffff0738
   10484:	00000000 	andeq	r0, r0, r0
   10488:	00000508 	andeq	r0, r0, r8, lsl #10
   1048c:	0001073a 	andeq	r0, r1, sl, lsr r7
   10490:	00000000 	andeq	r0, r0, r0
   10494:	00000509 	andeq	r0, r0, r9, lsl #10
   10498:	7fff073a 	svcvc	0x00ff073a
   1049c:	00000001 	andeq	r0, r0, r1
   104a0:	0000050a 	andeq	r0, r0, sl, lsl #10
   104a4:	ffff073c 			; <UNDEFINED> instruction: 0xffff073c
   104a8:	00000000 	andeq	r0, r0, r0
   104ac:	0000050b 	andeq	r0, r0, fp, lsl #10
   104b0:	ffff073e 			; <UNDEFINED> instruction: 0xffff073e
   104b4:	00000000 	andeq	r0, r0, r0
   104b8:	0000050c 	andeq	r0, r0, ip, lsl #10
   104bc:	ffff0740 			; <UNDEFINED> instruction: 0xffff0740
   104c0:	00000000 	andeq	r0, r0, r0
   104c4:	0000050d 	andeq	r0, r0, sp, lsl #10
   104c8:	00010742 	andeq	r0, r1, r2, asr #14
   104cc:	00000000 	andeq	r0, r0, r0
   104d0:	0000050e 	andeq	r0, r0, lr, lsl #10
   104d4:	00010742 	andeq	r0, r1, r2, asr #14
   104d8:	00000002 	andeq	r0, r0, r2
   104dc:	0000050f 	andeq	r0, r0, pc, lsl #10
   104e0:	00030742 	andeq	r0, r3, r2, asr #14
   104e4:	00000004 	andeq	r0, r0, r4
   104e8:	00000510 	andeq	r0, r0, r0, lsl r5
   104ec:	00010742 	andeq	r0, r1, r2, asr #14
   104f0:	00000006 	andeq	r0, r0, r6
   104f4:	00000511 	andeq	r0, r0, r1, lsl r5
   104f8:	00010742 	andeq	r0, r1, r2, asr #14
   104fc:	00000007 	andeq	r0, r0, r7
   10500:	00000512 	andeq	r0, r0, r2, lsl r5
   10504:	00030742 	andeq	r0, r3, r2, asr #14
   10508:	00000008 	andeq	r0, r0, r8
   1050c:	00000513 	andeq	r0, r0, r3, lsl r5
   10510:	00010742 	andeq	r0, r1, r2, asr #14
   10514:	0000000a 	andeq	r0, r0, sl
   10518:	00000514 	andeq	r0, r0, r4, lsl r5
   1051c:	00010742 	andeq	r0, r1, r2, asr #14
   10520:	0000000b 	andeq	r0, r0, fp
   10524:	00000515 	andeq	r0, r0, r5, lsl r5
   10528:	00010742 	andeq	r0, r1, r2, asr #14
   1052c:	0000000c 	andeq	r0, r0, ip
   10530:	00000516 	andeq	r0, r0, r6, lsl r5
   10534:	00010744 	andeq	r0, r1, r4, asr #14
   10538:	00000000 	andeq	r0, r0, r0
   1053c:	00000517 	andeq	r0, r0, r7, lsl r5
   10540:	00010744 	andeq	r0, r1, r4, asr #14
   10544:	00000001 	andeq	r0, r0, r1
   10548:	00000518 	andeq	r0, r0, r8, lsl r5
   1054c:	00010744 	andeq	r0, r1, r4, asr #14
   10550:	00000002 	andeq	r0, r0, r2
   10554:	00000519 	andeq	r0, r0, r9, lsl r5
   10558:	00010744 	andeq	r0, r1, r4, asr #14
   1055c:	00000004 	andeq	r0, r0, r4
   10560:	0000051a 	andeq	r0, r0, sl, lsl r5
   10564:	00010744 	andeq	r0, r1, r4, asr #14
   10568:	00000005 	andeq	r0, r0, r5
   1056c:	0000051b 	andeq	r0, r0, fp, lsl r5
   10570:	000f0744 	andeq	r0, pc, r4, asr #14
   10574:	0000000c 	andeq	r0, r0, ip
   10578:	0000051c 	andeq	r0, r0, ip, lsl r5
   1057c:	00ff0746 	rscseq	r0, pc, r6, asr #14
   10580:	00000000 	andeq	r0, r0, r0
   10584:	0000051d 	andeq	r0, r0, sp, lsl r5
   10588:	00ff0746 	rscseq	r0, pc, r6, asr #14
   1058c:	00000008 	andeq	r0, r0, r8
   10590:	0000051e 	andeq	r0, r0, lr, lsl r5
   10594:	ffff0748 			; <UNDEFINED> instruction: 0xffff0748
   10598:	00000000 	andeq	r0, r0, r0
   1059c:	0000051f 	andeq	r0, r0, pc, lsl r5
   105a0:	000f074a 	andeq	r0, pc, sl, asr #14
   105a4:	00000000 	andeq	r0, r0, r0
   105a8:	00000520 	andeq	r0, r0, r0, lsr #10
   105ac:	0fff074c 	svceq	0x00ff074c
   105b0:	00000000 	andeq	r0, r0, r0
   105b4:	00000521 	andeq	r0, r0, r1, lsr #10
   105b8:	0001074c 	andeq	r0, r1, ip, asr #14
   105bc:	0000000c 	andeq	r0, r0, ip
   105c0:	00000522 	andeq	r0, r0, r2, lsr #10
   105c4:	0001074c 	andeq	r0, r1, ip, asr #14
   105c8:	0000000d 	andeq	r0, r0, sp
   105cc:	00000523 	andeq	r0, r0, r3, lsr #10
   105d0:	0001074c 	andeq	r0, r1, ip, asr #14
   105d4:	0000000f 	andeq	r0, r0, pc
   105d8:	00000524 	andeq	r0, r0, r4, lsr #10
   105dc:	0fff074e 	svceq	0x00ff074e
   105e0:	00000000 	andeq	r0, r0, r0
   105e4:	00000525 	andeq	r0, r0, r5, lsr #10
   105e8:	0001074e 	andeq	r0, r1, lr, asr #14
   105ec:	0000000c 	andeq	r0, r0, ip
   105f0:	00000526 	andeq	r0, r0, r6, lsr #10
   105f4:	0001074e 	andeq	r0, r1, lr, asr #14
   105f8:	0000000d 	andeq	r0, r0, sp
   105fc:	00000527 	andeq	r0, r0, r7, lsr #10
   10600:	0001074e 	andeq	r0, r1, lr, asr #14
   10604:	0000000f 	andeq	r0, r0, pc
   10608:	00000528 	andeq	r0, r0, r8, lsr #10
   1060c:	01ff0750 	mvnseq	r0, r0, asr r7
   10610:	00000000 	andeq	r0, r0, r0
   10614:	00000529 	andeq	r0, r0, r9, lsr #10
   10618:	01ff0752 	mvnseq	r0, r2, asr r7
   1061c:	00000000 	andeq	r0, r0, r0
   10620:	0000052a 	andeq	r0, r0, sl, lsr #10
   10624:	00030754 	andeq	r0, r3, r4, asr r7
   10628:	00000003 	andeq	r0, r0, r3
   1062c:	0000052b 	andeq	r0, r0, fp, lsr #10
   10630:	00010754 	andeq	r0, r1, r4, asr r7
   10634:	00000005 	andeq	r0, r0, r5
   10638:	0000052c 	andeq	r0, r0, ip, lsr #10
   1063c:	00070754 	andeq	r0, r7, r4, asr r7
   10640:	0000000a 	andeq	r0, r0, sl
   10644:	0000052d 	andeq	r0, r0, sp, lsr #10
   10648:	00070754 	andeq	r0, r7, r4, asr r7
   1064c:	0000000d 	andeq	r0, r0, sp
   10650:	0000052e 	andeq	r0, r0, lr, lsr #10
   10654:	00030756 	andeq	r0, r3, r6, asr r7
   10658:	00000000 	andeq	r0, r0, r0
   1065c:	0000052f 	andeq	r0, r0, pc, lsr #10
   10660:	00030756 	andeq	r0, r3, r6, asr r7
   10664:	00000002 	andeq	r0, r0, r2
   10668:	00000530 	andeq	r0, r0, r0, lsr r5
   1066c:	00030756 	andeq	r0, r3, r6, asr r7
   10670:	00000004 	andeq	r0, r0, r4
   10674:	00000531 	andeq	r0, r0, r1, lsr r5
   10678:	00030756 	andeq	r0, r3, r6, asr r7
   1067c:	00000006 	andeq	r0, r0, r6
   10680:	00000532 	andeq	r0, r0, r2, lsr r5
   10684:	00030756 	andeq	r0, r3, r6, asr r7
   10688:	00000008 	andeq	r0, r0, r8
   1068c:	00000533 	andeq	r0, r0, r3, lsr r5
   10690:	00030756 	andeq	r0, r3, r6, asr r7
   10694:	0000000a 	andeq	r0, r0, sl
   10698:	00000534 	andeq	r0, r0, r4, lsr r5
   1069c:	00030756 	andeq	r0, r3, r6, asr r7
   106a0:	0000000e 	andeq	r0, r0, lr
   106a4:	00000535 	andeq	r0, r0, r5, lsr r5
   106a8:	00010758 	andeq	r0, r1, r8, asr r7
   106ac:	00000000 	andeq	r0, r0, r0
   106b0:	00000536 	andeq	r0, r0, r6, lsr r5
   106b4:	00010758 	andeq	r0, r1, r8, asr r7
   106b8:	00000001 	andeq	r0, r0, r1
   106bc:	00000537 	andeq	r0, r0, r7, lsr r5
   106c0:	00010758 	andeq	r0, r1, r8, asr r7
   106c4:	00000002 	andeq	r0, r0, r2
   106c8:	00000538 	andeq	r0, r0, r8, lsr r5
   106cc:	00010758 	andeq	r0, r1, r8, asr r7
   106d0:	00000004 	andeq	r0, r0, r4
   106d4:	00000539 	andeq	r0, r0, r9, lsr r5
   106d8:	00010758 	andeq	r0, r1, r8, asr r7
   106dc:	0000000f 	andeq	r0, r0, pc
   106e0:	0000053a 	andeq	r0, r0, sl, lsr r5
   106e4:	01ff075a 	mvnseq	r0, sl, asr r7
   106e8:	00000000 	andeq	r0, r0, r0
   106ec:	0000053b 	andeq	r0, r0, fp, lsr r5
   106f0:	00ff075c 	rscseq	r0, pc, ip, asr r7	; <UNPREDICTABLE>
   106f4:	00000000 	andeq	r0, r0, r0
   106f8:	0000053c 	andeq	r0, r0, ip, lsr r5
   106fc:	01ff075e 	mvnseq	r0, lr, asr r7
   10700:	00000000 	andeq	r0, r0, r0
   10704:	0000053d 	andeq	r0, r0, sp, lsr r5
   10708:	00ff0760 	rscseq	r0, pc, r0, ror #14
   1070c:	00000000 	andeq	r0, r0, r0
   10710:	0000053e 	andeq	r0, r0, lr, lsr r5
   10714:	ffff0762 			; <UNDEFINED> instruction: 0xffff0762
   10718:	00000000 	andeq	r0, r0, r0
   1071c:	0000053f 	andeq	r0, r0, pc, lsr r5
   10720:	ffff0764 			; <UNDEFINED> instruction: 0xffff0764
   10724:	00000000 	andeq	r0, r0, r0
   10728:	00000540 	andeq	r0, r0, r0, asr #10
   1072c:	00030766 	andeq	r0, r3, r6, ror #14
   10730:	00000000 	andeq	r0, r0, r0
   10734:	00000541 	andeq	r0, r0, r1, asr #10
   10738:	00010766 	andeq	r0, r1, r6, ror #14
   1073c:	00000002 	andeq	r0, r0, r2
   10740:	00000542 	andeq	r0, r0, r2, asr #10
   10744:	00010766 	andeq	r0, r1, r6, ror #14
   10748:	00000003 	andeq	r0, r0, r3
   1074c:	00000543 	andeq	r0, r0, r3, asr #10
   10750:	00010766 	andeq	r0, r1, r6, ror #14
   10754:	00000004 	andeq	r0, r0, r4
   10758:	00000544 	andeq	r0, r0, r4, asr #10
   1075c:	00010766 	andeq	r0, r1, r6, ror #14
   10760:	00000005 	andeq	r0, r0, r5
   10764:	00000545 	andeq	r0, r0, r5, asr #10
   10768:	00010766 	andeq	r0, r1, r6, ror #14
   1076c:	00000006 	andeq	r0, r0, r6
   10770:	00000546 	andeq	r0, r0, r6, asr #10
   10774:	00010766 	andeq	r0, r1, r6, ror #14
   10778:	00000007 	andeq	r0, r0, r7
   1077c:	00000547 	andeq	r0, r0, r7, asr #10
   10780:	00030766 	andeq	r0, r3, r6, ror #14
   10784:	00000008 	andeq	r0, r0, r8
   10788:	00000548 	andeq	r0, r0, r8, asr #10
   1078c:	00010766 	andeq	r0, r1, r6, ror #14
   10790:	0000000e 	andeq	r0, r0, lr
   10794:	00000549 	andeq	r0, r0, r9, asr #10
   10798:	00010766 	andeq	r0, r1, r6, ror #14
   1079c:	0000000f 	andeq	r0, r0, pc
   107a0:	0000054a 	andeq	r0, r0, sl, asr #10
   107a4:	00010768 	andeq	r0, r1, r8, ror #14
   107a8:	00000000 	andeq	r0, r0, r0
   107ac:	0000054b 	andeq	r0, r0, fp, asr #10
   107b0:	00010768 	andeq	r0, r1, r8, ror #14
   107b4:	00000001 	andeq	r0, r0, r1
   107b8:	0000054c 	andeq	r0, r0, ip, asr #10
   107bc:	00010768 	andeq	r0, r1, r8, ror #14
   107c0:	00000002 	andeq	r0, r0, r2
   107c4:	0000054d 	andeq	r0, r0, sp, asr #10
   107c8:	00010768 	andeq	r0, r1, r8, ror #14
   107cc:	00000003 	andeq	r0, r0, r3
   107d0:	0000054e 	andeq	r0, r0, lr, asr #10
   107d4:	00010768 	andeq	r0, r1, r8, ror #14
   107d8:	00000004 	andeq	r0, r0, r4
   107dc:	0000054f 	andeq	r0, r0, pc, asr #10
   107e0:	00010768 	andeq	r0, r1, r8, ror #14
   107e4:	00000005 	andeq	r0, r0, r5
   107e8:	00000550 	andeq	r0, r0, r0, asr r5
   107ec:	00010768 	andeq	r0, r1, r8, ror #14
   107f0:	00000007 	andeq	r0, r0, r7
   107f4:	00000551 	andeq	r0, r0, r1, asr r5
   107f8:	00010768 	andeq	r0, r1, r8, ror #14
   107fc:	0000000c 	andeq	r0, r0, ip
   10800:	00000552 	andeq	r0, r0, r2, asr r5
   10804:	00030768 	andeq	r0, r3, r8, ror #14
   10808:	0000000e 	andeq	r0, r0, lr
   1080c:	00000553 	andeq	r0, r0, r3, asr r5
   10810:	0001076a 	andeq	r0, r1, sl, ror #14
   10814:	0000000f 	andeq	r0, r0, pc
   10818:	00000554 	andeq	r0, r0, r4, asr r5
   1081c:	0001076c 	andeq	r0, r1, ip, ror #14
   10820:	0000000f 	andeq	r0, r0, pc
   10824:	00000555 	andeq	r0, r0, r5, asr r5
   10828:	01ff076e 	mvnseq	r0, lr, ror #14
   1082c:	00000000 	andeq	r0, r0, r0
   10830:	00000556 	andeq	r0, r0, r6, asr r5
   10834:	0001076e 	andeq	r0, r1, lr, ror #14
   10838:	0000000f 	andeq	r0, r0, pc
   1083c:	00000557 	andeq	r0, r0, r7, asr r5
   10840:	00ff0770 	rscseq	r0, pc, r0, ror r7	; <UNPREDICTABLE>
   10844:	00000000 	andeq	r0, r0, r0
   10848:	00000558 	andeq	r0, r0, r8, asr r5
   1084c:	00010772 	andeq	r0, r1, r2, ror r7
   10850:	00000001 	andeq	r0, r0, r1
   10854:	00000559 	andeq	r0, r0, r9, asr r5
   10858:	00010772 	andeq	r0, r1, r2, ror r7
   1085c:	00000002 	andeq	r0, r0, r2
   10860:	0000055a 	andeq	r0, r0, sl, asr r5
   10864:	00010772 	andeq	r0, r1, r2, ror r7
   10868:	00000003 	andeq	r0, r0, r3
   1086c:	0000055b 	andeq	r0, r0, fp, asr r5
   10870:	00010772 	andeq	r0, r1, r2, ror r7
   10874:	00000004 	andeq	r0, r0, r4
   10878:	0000055c 	andeq	r0, r0, ip, asr r5
   1087c:	00010772 	andeq	r0, r1, r2, ror r7
   10880:	00000005 	andeq	r0, r0, r5
   10884:	0000055d 	andeq	r0, r0, sp, asr r5
   10888:	00030772 	andeq	r0, r3, r2, ror r7
   1088c:	00000006 	andeq	r0, r0, r6
   10890:	0000055e 	andeq	r0, r0, lr, asr r5
   10894:	00ff0774 	rscseq	r0, pc, r4, ror r7	; <UNPREDICTABLE>
   10898:	00000000 	andeq	r0, r0, r0
   1089c:	0000055f 	andeq	r0, r0, pc, asr r5
   108a0:	00010776 	andeq	r0, r1, r6, ror r7
   108a4:	00000000 	andeq	r0, r0, r0
   108a8:	00000560 	andeq	r0, r0, r0, ror #10
   108ac:	00010776 	andeq	r0, r1, r6, ror r7
   108b0:	00000001 	andeq	r0, r0, r1
   108b4:	00000561 	andeq	r0, r0, r1, ror #10
   108b8:	1fff0776 	svcne	0x00ff0776
   108bc:	00000002 	andeq	r0, r0, r2
   108c0:	00000562 	andeq	r0, r0, r2, ror #10
   108c4:	00010776 	andeq	r0, r1, r6, ror r7
   108c8:	0000000f 	andeq	r0, r0, pc
   108cc:	00000563 	andeq	r0, r0, r3, ror #10
   108d0:	00010778 	andeq	r0, r1, r8, ror r7
   108d4:	00000000 	andeq	r0, r0, r0
   108d8:	00000564 	andeq	r0, r0, r4, ror #10
   108dc:	3fff0778 	svccc	0x00ff0778
   108e0:	00000001 	andeq	r0, r0, r1
   108e4:	00000565 	andeq	r0, r0, r5, ror #10
   108e8:	00010778 	andeq	r0, r1, r8, ror r7
   108ec:	0000000f 	andeq	r0, r0, pc
   108f0:	00000566 	andeq	r0, r0, r6, ror #10
   108f4:	0003077a 	andeq	r0, r3, sl, ror r7
   108f8:	00000000 	andeq	r0, r0, r0
   108fc:	00000567 	andeq	r0, r0, r7, ror #10
   10900:	0007077a 	andeq	r0, r7, sl, ror r7
   10904:	00000004 	andeq	r0, r0, r4
   10908:	00000568 	andeq	r0, r0, r8, ror #10
   1090c:	0001077a 	andeq	r0, r1, sl, ror r7
   10910:	00000008 	andeq	r0, r0, r8
   10914:	00000569 	andeq	r0, r0, r9, ror #10
   10918:	0001077a 	andeq	r0, r1, sl, ror r7
   1091c:	00000009 	andeq	r0, r0, r9
   10920:	0000056a 	andeq	r0, r0, sl, ror #10
   10924:	0001077a 	andeq	r0, r1, sl, ror r7
   10928:	0000000a 	andeq	r0, r0, sl
   1092c:	0000056b 	andeq	r0, r0, fp, ror #10
   10930:	0001077a 	andeq	r0, r1, sl, ror r7
   10934:	0000000b 	andeq	r0, r0, fp
   10938:	0000056c 	andeq	r0, r0, ip, ror #10
   1093c:	000f077a 	andeq	r0, pc, sl, ror r7	; <UNPREDICTABLE>
   10940:	0000000c 	andeq	r0, r0, ip
   10944:	0000056d 	andeq	r0, r0, sp, ror #10
   10948:	0001077c 	andeq	r0, r1, ip, ror r7
   1094c:	00000000 	andeq	r0, r0, r0
   10950:	0000056e 	andeq	r0, r0, lr, ror #10
   10954:	0001077c 	andeq	r0, r1, ip, ror r7
   10958:	00000001 	andeq	r0, r0, r1
   1095c:	0000056f 	andeq	r0, r0, pc, ror #10
   10960:	0001077e 	andeq	r0, r1, lr, ror r7
   10964:	00000000 	andeq	r0, r0, r0
   10968:	00000570 	andeq	r0, r0, r0, ror r5
   1096c:	0001077e 	andeq	r0, r1, lr, ror r7
   10970:	00000001 	andeq	r0, r0, r1
   10974:	00000571 	andeq	r0, r0, r1, ror r5
   10978:	0001077e 	andeq	r0, r1, lr, ror r7
   1097c:	00000002 	andeq	r0, r0, r2
   10980:	00000572 	andeq	r0, r0, r2, ror r5
   10984:	0001077e 	andeq	r0, r1, lr, ror r7
   10988:	00000004 	andeq	r0, r0, r4
   1098c:	00000573 	andeq	r0, r0, r3, ror r5
   10990:	0001077e 	andeq	r0, r1, lr, ror r7
   10994:	00000005 	andeq	r0, r0, r5
   10998:	00000574 	andeq	r0, r0, r4, ror r5
   1099c:	0001077e 	andeq	r0, r1, lr, ror r7
   109a0:	00000006 	andeq	r0, r0, r6
   109a4:	00000575 	andeq	r0, r0, r5, ror r5
   109a8:	ffff0780 			; <UNDEFINED> instruction: 0xffff0780
   109ac:	00000000 	andeq	r0, r0, r0
   109b0:	00000576 	andeq	r0, r0, r6, ror r5
   109b4:	ffff0782 			; <UNDEFINED> instruction: 0xffff0782
   109b8:	00000000 	andeq	r0, r0, r0
   109bc:	00000577 	andeq	r0, r0, r7, ror r5
   109c0:	7fff0784 	svcvc	0x00ff0784
   109c4:	00000000 	andeq	r0, r0, r0
   109c8:	00000578 	andeq	r0, r0, r8, ror r5
   109cc:	00010784 	andeq	r0, r1, r4, lsl #15
   109d0:	0000000f 	andeq	r0, r0, pc
   109d4:	00000579 	andeq	r0, r0, r9, ror r5
   109d8:	ffff0786 			; <UNDEFINED> instruction: 0xffff0786
   109dc:	00000000 	andeq	r0, r0, r0
   109e0:	0000057a 	andeq	r0, r0, sl, ror r5
   109e4:	ffff0788 			; <UNDEFINED> instruction: 0xffff0788
   109e8:	00000000 	andeq	r0, r0, r0
   109ec:	0000057b 	andeq	r0, r0, fp, ror r5
   109f0:	ffff078a 			; <UNDEFINED> instruction: 0xffff078a
   109f4:	00000000 	andeq	r0, r0, r0
   109f8:	0000057c 	andeq	r0, r0, ip, ror r5
   109fc:	ffff078c 			; <UNDEFINED> instruction: 0xffff078c
   10a00:	00000000 	andeq	r0, r0, r0
   10a04:	0000057d 	andeq	r0, r0, sp, ror r5
   10a08:	0003078e 	andeq	r0, r3, lr, lsl #15
   10a0c:	00000000 	andeq	r0, r0, r0
   10a10:	0000057e 	andeq	r0, r0, lr, ror r5
   10a14:	0003078e 	andeq	r0, r3, lr, lsl #15
   10a18:	00000004 	andeq	r0, r0, r4
   10a1c:	0000057f 	andeq	r0, r0, pc, ror r5
   10a20:	0003078e 	andeq	r0, r3, lr, lsl #15
   10a24:	00000008 	andeq	r0, r0, r8
   10a28:	00000580 	andeq	r0, r0, r0, lsl #11
   10a2c:	0001078e 	andeq	r0, r1, lr, lsl #15
   10a30:	0000000f 	andeq	r0, r0, pc
   10a34:	00000581 	andeq	r0, r0, r1, lsl #11
   10a38:	00010790 	muleq	r1, r0, r7
   10a3c:	00000000 	andeq	r0, r0, r0
   10a40:	00000582 	andeq	r0, r0, r2, lsl #11
   10a44:	00010790 	muleq	r1, r0, r7
   10a48:	00000008 	andeq	r0, r0, r8
   10a4c:	00000583 	andeq	r0, r0, r3, lsl #11
   10a50:	00010792 	muleq	r1, r2, r7
   10a54:	00000000 	andeq	r0, r0, r0
   10a58:	00000584 	andeq	r0, r0, r4, lsl #11
   10a5c:	00010792 	muleq	r1, r2, r7
   10a60:	00000001 	andeq	r0, r0, r1
   10a64:	00000585 	andeq	r0, r0, r5, lsl #11
   10a68:	00010792 	muleq	r1, r2, r7
   10a6c:	00000002 	andeq	r0, r0, r2
   10a70:	00000586 	andeq	r0, r0, r6, lsl #11
   10a74:	00010792 	muleq	r1, r2, r7
   10a78:	00000003 	andeq	r0, r0, r3
   10a7c:	00000587 	andeq	r0, r0, r7, lsl #11
   10a80:	00010792 	muleq	r1, r2, r7
   10a84:	00000004 	andeq	r0, r0, r4
   10a88:	00000588 	andeq	r0, r0, r8, lsl #11
   10a8c:	00010792 	muleq	r1, r2, r7
   10a90:	00000005 	andeq	r0, r0, r5
   10a94:	00000589 	andeq	r0, r0, r9, lsl #11
   10a98:	00030792 	muleq	r3, r2, r7
   10a9c:	00000006 	andeq	r0, r0, r6
   10aa0:	0000058a 	andeq	r0, r0, sl, lsl #11
   10aa4:	00030792 	muleq	r3, r2, r7
   10aa8:	00000008 	andeq	r0, r0, r8
   10aac:	0000058b 	andeq	r0, r0, fp, lsl #11
   10ab0:	00010792 	muleq	r1, r2, r7
   10ab4:	0000000c 	andeq	r0, r0, ip
   10ab8:	0000058c 	andeq	r0, r0, ip, lsl #11
   10abc:	00010792 	muleq	r1, r2, r7
   10ac0:	0000000d 	andeq	r0, r0, sp
   10ac4:	0000058d 	andeq	r0, r0, sp, lsl #11
   10ac8:	00010792 	muleq	r1, r2, r7
   10acc:	0000000e 	andeq	r0, r0, lr
   10ad0:	0000058e 	andeq	r0, r0, lr, lsl #11
   10ad4:	00010792 	muleq	r1, r2, r7
   10ad8:	0000000f 	andeq	r0, r0, pc
   10adc:	0000058f 	andeq	r0, r0, pc, lsl #11
   10ae0:	00030794 	muleq	r3, r4, r7
   10ae4:	00000000 	andeq	r0, r0, r0
   10ae8:	00000590 	muleq	r0, r0, r5
   10aec:	00030794 	muleq	r3, r4, r7
   10af0:	00000002 	andeq	r0, r0, r2
   10af4:	00000591 	muleq	r0, r1, r5
   10af8:	00030794 	muleq	r3, r4, r7
   10afc:	00000004 	andeq	r0, r0, r4
   10b00:	00000592 	muleq	r0, r2, r5
   10b04:	00030794 	muleq	r3, r4, r7
   10b08:	00000006 	andeq	r0, r0, r6
   10b0c:	00000593 	muleq	r0, r3, r5
   10b10:	00070794 	muleq	r7, r4, r7
   10b14:	00000008 	andeq	r0, r0, r8
   10b18:	00000594 	muleq	r0, r4, r5
   10b1c:	00010794 	muleq	r1, r4, r7
   10b20:	0000000c 	andeq	r0, r0, ip
   10b24:	00000595 	muleq	r0, r5, r5
   10b28:	00010794 	muleq	r1, r4, r7
   10b2c:	0000000d 	andeq	r0, r0, sp
   10b30:	00000596 	muleq	r0, r6, r5
   10b34:	00010794 	muleq	r1, r4, r7
   10b38:	0000000e 	andeq	r0, r0, lr
   10b3c:	00000597 	muleq	r0, r7, r5
   10b40:	00010794 	muleq	r1, r4, r7
   10b44:	0000000f 	andeq	r0, r0, pc
   10b48:	00000598 	muleq	r0, r8, r5
   10b4c:	ffff0796 			; <UNDEFINED> instruction: 0xffff0796
   10b50:	00000000 	andeq	r0, r0, r0
   10b54:	00000599 	muleq	r0, r9, r5
   10b58:	ffff0798 			; <UNDEFINED> instruction: 0xffff0798
   10b5c:	00000000 	andeq	r0, r0, r0
   10b60:	0000059a 	muleq	r0, sl, r5
   10b64:	ffff079a 			; <UNDEFINED> instruction: 0xffff079a
   10b68:	00000000 	andeq	r0, r0, r0
   10b6c:	ffffffff 			; <UNDEFINED> instruction: 0xffffffff
   10b70:	ffffffff 			; <UNDEFINED> instruction: 0xffffffff
   10b74:	ffffffff 			; <UNDEFINED> instruction: 0xffffffff
   10b78:	ffffffff 			; <UNDEFINED> instruction: 0xffffffff
   10b7c:	494d505b 	stmdbmi	sp, {r0, r1, r3, r4, r6, ip, lr}^
   10b80:	52575f43 	subspl	r5, r7, #268	; 0x10c
   10b84:	775d5041 	ldrbvc	r5, [sp, -r1, asr #32]
   10b88:	5f706172 	svcpl	0x00706172
   10b8c:	74696e69 	strbtvc	r6, [r9], #-3689	; 0xe69
   10b90:	69616620 	stmdbvs	r1!, {r5, r9, sl, sp, lr}^
   10b94:	68742c6c 	ldmdavs	r4!, {r2, r3, r5, r6, sl, fp, sp}^
   10b98:	65722065 	ldrbvs	r2, [r2, #-101]!	; 0x65
   10b9c:	6e727574 	mrcvs	5, 3, r7, cr2, cr4, {3}
   10ba0:	6c617620 	stclvs	6, cr7, [r1], #-128	; 0xffffff80
   10ba4:	253d6575 	ldrcs	r6, [sp, #-1397]!	; 0x575
   10ba8:	000a2e78 	andeq	r2, sl, r8, ror lr
   10bac:	494d505b 	stmdbmi	sp, {r0, r1, r3, r4, r6, ip, lr}^
   10bb0:	52575f43 	subspl	r5, r7, #268	; 0x10c
   10bb4:	775d5041 	ldrbvc	r5, [sp, -r1, asr #32]
   10bb8:	5f706172 	svcpl	0x00706172
   10bbc:	74696e69 	strbtvc	r6, [r9], #-3689	; 0xe69
   10bc0:	73617020 	cmnvc	r1, #32
   10bc4:	68742c73 	ldmdavs	r4!, {r0, r1, r4, r5, r6, sl, fp, sp}^
   10bc8:	65722065 	ldrbvs	r2, [r2, #-101]!	; 0x65
   10bcc:	6e727574 	mrcvs	5, 3, r7, cr2, cr4, {3}
   10bd0:	6c617620 	stclvs	6, cr7, [r1], #-128	; 0xffffff80
   10bd4:	253d6575 	ldrcs	r6, [sp, #-1397]!	; 0x575
   10bd8:	000a2e78 	andeq	r2, sl, r8, ror lr
   10bdc:	00000640 	andeq	r0, r0, r0, asr #12
   10be0:	00000080 	andeq	r0, r0, r0, lsl #1
   10be4:	00000080 	andeq	r0, r0, r0, lsl #1
   10be8:	00000020 	andeq	r0, r0, r0, lsr #32
   10bec:	00000020 	andeq	r0, r0, r0, lsr #32
   10bf0:	00000080 	andeq	r0, r0, r0, lsl #1
   10bf4:	00000080 	andeq	r0, r0, r0, lsl #1
   10bf8:	00000400 	andeq	r0, r0, r0, lsl #8
   10bfc:	676e6f6c 	strbvs	r6, [lr, -ip, ror #30]!
   10c00:	65706d6a 	ldrbvs	r6, [r0, #-3434]!	; 0xd6a
   10c04:	726f7272 	rsbvc	r7, pc, #536870919	; 0x20000007
   10c08:	00000000 	andeq	r0, r0, r0
   10c0c:	33323130 	teqcc	r2, #12
   10c10:	37363534 			; <UNDEFINED> instruction: 0x37363534
   10c14:	00003938 	andeq	r3, r0, r8, lsr r9
   10c18:	72732f2e 	rsbsvc	r2, r3, #184	; 0xb8
   10c1c:	74732f63 	ldrbtvc	r2, [r3], #-3939	; 0xf63
   10c20:	62696c64 	rsbvs	r6, r9, #25600	; 0x6400
   10c24:	2500632e 	strcs	r6, [r0, #-814]	; 0x32e
   10c28:	75252e75 	strvc	r2, [r5, #-3701]!	; 0xe75
   10c2c:	2e75252e 	cdpcs	5, 7, cr2, cr5, cr14, {1}
   10c30:	21007525 	tstcs	r0, r5, lsr #10
   10c34:	4e202121 	sufmisp	f2, f0, f1
   10c38:	4920544f 	stmdbmi	r0!, {r0, r1, r2, r3, r6, sl, ip, lr}
   10c3c:	454c504d 	strbmi	r5, [ip, #-77]	; 0x4d
   10c40:	544e454d 	strbpl	r4, [lr], #-1357	; 0x54d
   10c44:	21204445 	teqcs	r0, r5, asr #8
   10c48:	5b0a2121 	blpl	0x2990d4
   10c4c:	636e7546 	cmnvs	lr, #293601280	; 0x11800000
   10c50:	6e6f6974 	mcrvs	9, 3, r6, cr15, cr4, {3}
   10c54:	7325205d 	teqvc	r5, #93	; 0x5d
   10c58:	69465b0a 	stmdbvs	r6, {r1, r3, r8, r9, fp, ip, lr}^
   10c5c:	205d656c 	subscs	r6, sp, ip, ror #10
   10c60:	5b0a7325 	blpl	0x2ad8fc
   10c64:	656e694c 	strbvs	r6, [lr, #-2380]!	; 0x94c
   10c68:	6425205d 	strtvs	r2, [r5], #-93	; 0x5d
   10c6c:	2121000a 	teqcs	r1, sl
   10c70:	45442021 	strbmi	r2, [r4, #-33]	; 0x21
   10c74:	20475542 	subcs	r5, r7, r2, asr #10
   10c78:	45535341 	ldrbmi	r5, [r3, #-833]	; 0x341
   10c7c:	4f495452 	svcmi	0x00495452
   10c80:	4146204e 	cmpmi	r6, lr, asr #32
   10c84:	44454c49 	strbmi	r4, [r5], #-3145	; 0xc49
   10c88:	21212120 	teqcs	r1, r0, lsr #2
   10c8c:	75465b0a 	strbvc	r5, [r6, #-2826]	; 0xb0a
   10c90:	6974636e 	ldmdbvs	r4!, {r1, r2, r3, r5, r6, r8, r9, sp, lr}^
   10c94:	205d6e6f 	subscs	r6, sp, pc, ror #28
   10c98:	5b0a7325 	blpl	0x2ad934
   10c9c:	656c6946 	strbvs	r6, [ip, #-2374]!	; 0x946
   10ca0:	7325205d 	teqvc	r5, #93	; 0x5d
   10ca4:	694c5b0a 	stmdbvs	ip, {r1, r3, r8, r9, fp, ip, lr}^
   10ca8:	205d656e 	subscs	r6, sp, lr, ror #10
   10cac:	000a6425 	andeq	r6, sl, r5, lsr #8
   10cb0:	665f6668 	ldrbvs	r6, [pc], -r8, ror #12
   10cb4:	5f697861 	svcpl	0x00697861
   10cb8:	68006b63 	stmdavs	r0, {r0, r1, r5, r6, r8, r9, fp, sp, lr}
   10cbc:	61665f64 	cmnvs	r6, r4, ror #30
   10cc0:	635f6978 	cmpvs	pc, #1966080	; 0x1e0000
   10cc4:	6668006b 	strbtvs	r0, [r8], -fp, rrx
   10cc8:	7064665f 	rsbvc	r6, r4, pc, asr r6
   10ccc:	635f3069 	cmpvs	pc, #105	; 0x69
   10cd0:	6668006b 	strbtvs	r0, [r8], -fp, rrx
   10cd4:	6464665f 	strbtvs	r6, [r4], #-1631	; 0x65f
   10cd8:	79687072 	stmdbvc	r8!, {r1, r4, r5, r6, ip, sp, lr}^
   10cdc:	5f676663 	svcpl	0x00676663
   10ce0:	68006b63 	stmdavs	r0, {r0, r1, r5, r6, r8, r9, fp, sp, lr}
   10ce4:	6d665f66 	stclvs	15, cr5, [r6, #-408]!	; 0xfffffe68
   10ce8:	6b635f6d 	blvs	0x18e8aa4
   10cec:	665f6600 	ldrbvs	r6, [pc], -r0, lsl #12
   10cf0:	5f6d7770 	svcpl	0x006d7770
   10cf4:	68006b63 	stmdavs	r0, {r0, r1, r5, r6, r8, r9, fp, sp, lr}
   10cf8:	76665f66 	strbtvc	r5, [r6], -r6, ror #30
   10cfc:	5f636564 	svcpl	0x00636564
   10d00:	68006b63 	stmdavs	r0, {r0, r1, r5, r6, r8, r9, fp, sp, lr}
   10d04:	6d665f66 	stclvs	15, cr5, [r6, #-408]!	; 0xfffffe68
   10d08:	635f6766 	cmpvs	pc, #26738688	; 0x1980000
   10d0c:	6668006b 	strbtvs	r0, [r8], -fp, rrx
   10d10:	6163665f 	cmnvs	r3, pc, asr r6
   10d14:	5f67746d 	svcpl	0x0067746d
   10d18:	66006b63 	strvs	r6, [r0], -r3, ror #22
   10d1c:	6175665f 	cmnvs	r5, pc, asr r6
   10d20:	635f7472 	cmpvs	pc, #1912602624	; 0x72000000
   10d24:	6668006b 	strbtvs	r0, [r8], -fp, rrx
   10d28:	7073665f 	rsbsvc	r6, r3, pc, asr r6
   10d2c:	6b635f69 	blvs	0x18e8ad8
   10d30:	665f6600 	ldrbvs	r6, [pc], -r0, lsl #12
   10d34:	32627375 	rsbcc	r7, r2, #-738197503	; 0xd4000001
   10d38:	6b635f30 	blvs	0x18e8a00
   10d3c:	5f666800 	svcpl	0x00666800
   10d40:	64736d66 	ldrbtvs	r6, [r3], #-3430	; 0xd66
   10d44:	5f303363 	svcpl	0x00303363
   10d48:	6b635f30 	blvs	0x18e8a10
   10d4c:	5f666800 	svcpl	0x00666800
   10d50:	64736d66 	ldrbtvs	r6, [r3], #-3430	; 0xd66
   10d54:	5f303363 	svcpl	0x00303363
   10d58:	6b635f31 	blvs	0x18e8a24
   10d5c:	5f666800 	svcpl	0x00666800
   10d60:	64736d66 	ldrbtvs	r6, [r3], #-3430	; 0xd66
   10d64:	5f303363 	svcpl	0x00303363
   10d68:	6b635f32 	blvs	0x18e8a38
   10d6c:	5f666800 	svcpl	0x00666800
   10d70:	64756166 	ldrbtvs	r6, [r5], #-358	; 0x166
   10d74:	635f6f69 	cmpvs	pc, #420	; 0x1a4
   10d78:	6668006b 	strbtvs	r0, [r8], -fp, rrx
   10d7c:	7561665f 	strbvc	r6, [r1, #-1631]!	; 0x65f
   10d80:	6e695f64 	cdpvs	15, 6, cr5, cr9, cr4, {3}
   10d84:	73756274 	cmnvc	r5, #1073741831	; 0x40000007
   10d88:	006b635f 	rsbeq	r6, fp, pc, asr r3
   10d8c:	665f6668 	ldrbvs	r6, [pc], -r8, ror #12
   10d90:	63696d70 	cmnvs	r9, #7168	; 0x1c00
   10d94:	5f697073 	svcpl	0x00697073
   10d98:	66006b63 	strvs	r6, [r0], -r3, ror #22
   10d9c:	7472665f 	ldrbtvc	r6, [r2], #-1631	; 0x65f
   10da0:	6b635f63 	blvs	0x18e8b34
   10da4:	665f6600 	ldrbvs	r6, [pc], -r0, lsl #12
   10da8:	5f6d3632 	svcpl	0x006d3632
   10dac:	66006b63 	strvs	r6, [r0], -r3, ror #22
   10db0:	3233665f 	eorscc	r6, r3, #99614720	; 0x5f00000
   10db4:	646d5f6b 	strbtvs	r5, [sp], #-3947	; 0xf6b
   10db8:	6b635f31 	blvs	0x18e8a84
   10dbc:	665f6600 	ldrbvs	r6, [pc], -r0, lsl #12
   10dc0:	5f637472 	svcpl	0x00637472
   10dc4:	6e6e6f63 	cdpvs	15, 6, cr6, cr14, cr3, {3}
   10dc8:	006b635f 	rsbeq	r6, fp, pc, asr r3
   10dcc:	75665f66 	strbvc	r5, [r6, #-3942]!	; 0xf66
   10dd0:	30326273 	eorscc	r6, r2, r3, ror r2
   10dd4:	635f3170 	cmpvs	pc, #28
   10dd8:	6768006b 	strbvs	r0, [r8, -fp, rrx]!
   10ddc:	696d665f 	stmdbvs	sp!, {r0, r1, r2, r3, r4, r6, r9, sl, sp, lr}^
   10de0:	66636970 			; <UNDEFINED> instruction: 0x66636970
   10de4:	6b635f67 	blvs	0x18e8b88
   10de8:	4c554e00 	mrrcmi	14, 0, r4, r5, cr0
   10dec:	6468004c 	strbtvs	r0, [r8], #-76	; 0x4c
   10df0:	7861715f 	stmdavc	r1!, {r0, r1, r2, r3, r4, r6, r8, ip, sp, lr}^
   10df4:	6d636469 	cfstrdvs	mvd6, [r3, #-420]!	; 0xfffffe5c
   10df8:	006b635f 	rsbeq	r6, fp, pc, asr r3
   10dfc:	665f6668 	ldrbvs	r6, [pc], -r8, ror #12
   10e00:	6d616373 	stclvs	3, cr6, [r1, #-460]!	; 0xfffffe34
   10e04:	006b635f 	rsbeq	r6, fp, pc, asr r3
   10e08:	63665f66 	cmnvs	r6, #408	; 0x198
   10e0c:	7375626b 	cmnvc	r5, #-1342177274	; 0xb0000006
   10e10:	6163735f 	cmnvs	r3, pc, asr r3
   10e14:	6620006e 	strtvs	r0, [r0], -lr, rrx
   10e18:	6b63665f 	blvs	0x18ea79c
   10e1c:	5f637472 	svcpl	0x00637472
   10e20:	6e616373 	mcrvs	3, 3, r6, cr1, cr3, {3}
   10e24:	5f666800 	svcpl	0x00666800
   10e28:	62746166 	rsbsvs	r6, r4, #-2147483623	; 0x80000019
   10e2c:	006b635f 	rsbeq	r6, fp, pc, asr r3
   10e30:	665f6668 	ldrbvs	r6, [pc], -r8, ror #12
   10e34:	5f647561 	svcpl	0x00647561
   10e38:	6b635f31 	blvs	0x18e8b04
   10e3c:	5f666800 	svcpl	0x00666800
   10e40:	64756166 	ldrbtvs	r6, [r5], #-358	; 0x166
   10e44:	635f325f 	cmpvs	pc, #-268435451	; 0xf0000005
   10e48:	6668006b 	strbtvs	r0, [r8], -fp, rrx
   10e4c:	736d665f 	cmnvc	sp, #99614720	; 0x5f00000
   10e50:	30356364 	eorscc	r6, r5, r4, ror #6
   10e54:	635f305f 	cmpvs	pc, #95	; 0x5f
   10e58:	6668006b 	strbtvs	r0, [r8], -fp, rrx
   10e5c:	7269665f 	rsbvc	r6, r9, #99614720	; 0x5f00000
   10e60:	635f6164 	cmpvs	pc, #25
   10e64:	6820006b 	stmdavs	r0!, {r0, r1, r3, r5, r6}
   10e68:	69665f66 	stmdbvs	r6!, {r1, r2, r5, r6, r8, r9, sl, fp, ip, lr}^
   10e6c:	5f787472 	svcpl	0x00787472
   10e70:	68006b63 	stmdavs	r0, {r0, r1, r5, r6, r8, r9, fp, sp, lr}
   10e74:	64665f66 	strbtvs	r5, [r6], #-3942	; 0xf66
   10e78:	70707369 	rsbsvc	r7, r0, r9, ror #6
   10e7c:	635f6d77 	cmpvs	pc, #7616	; 0x1dc0
   10e80:	7368006b 	cmnvc	r8, #107	; 0x6b
   10e84:	666d665f 			; <UNDEFINED> instruction: 0x666d665f
   10e88:	6d333167 	ldfvss	f3, [r3, #-412]!	; 0xfffffe64
   10e8c:	006b635f 	rsbeq	r6, fp, pc, asr r3
   10e90:	72617453 	rsbvc	r7, r1, #1392508928	; 0x53000000
   10e94:	45522074 	ldrbmi	r2, [r2, #-116]	; 0x74
   10e98:	4e445458 	mcrmi	4, 2, r5, cr4, cr8, {2}
   10e9c:	20575320 	subscs	r5, r7, r0, lsr #6
   10ea0:	696c6163 	stmdbvs	ip!, {r0, r1, r5, r6, r8, sp, lr}^
   10ea4:	74617262 	strbtvc	r7, [r1], #-610	; 0x262
   10ea8:	2e6e6f69 	cdpcs	15, 6, cr6, cr14, cr9, {3}
   10eac:	000a2e2e 	andeq	r2, sl, lr, lsr #28
   10eb0:	64252070 	strtvs	r2, [r5], #-112	; 0x70
   10eb4:	25206e2c 	strcs	r6, [r0, #-3628]!	; 0xe2c
   10eb8:	45000a64 	strmi	r0, [r0, #-2660]	; 0xa64
   10ebc:	7320494d 	teqvc	r0, #1261568	; 0x134000
   10ec0:	69747465 	ldmdbvs	r4!, {r0, r2, r5, r6, sl, ip, sp, lr}^
   10ec4:	000a676e 	andeq	r6, sl, lr, ror #14
   10ec8:	414e4f43 	cmpmi	lr, r3, asr #30
   10ecc:	2578303d 	ldrbcs	r3, [r8, #-61]!	; 0x3d
   10ed0:	44000a78 	strmi	r0, [r0], #-2680	; 0xa78
   10ed4:	54435652 	strbpl	r5, [r3], #-1618	; 0x652
   10ed8:	303d304c 	eorscc	r3, sp, ip, asr #32
   10edc:	0a782578 	beq	0x1e1a4c4
   10ee0:	56524400 	ldrbpl	r4, [r2], -r0, lsl #8
   10ee4:	314c5443 	cmpcc	ip, r3, asr #8
   10ee8:	2578303d 	ldrbcs	r3, [r8, #-61]!	; 0x3d
   10eec:	41000a78 	tstmi	r0, r8, ror sl
   10ef0:	4d495443 	cfstrdmi	mvd5, [r9, #-268]	; 0xfffffef4
   10ef4:	2578303d 	ldrbcs	r3, [r8, #-61]!	; 0x3d
   10ef8:	47000a78 	smlsdxmi	r0, r8, sl, r0
   10efc:	33524444 	cmpcc	r2, #1140850688	; 0x44000000
   10f00:	314c5443 	cmpcc	ip, r3, asr #8
   10f04:	2578303d 	ldrbcs	r3, [r8, #-61]!	; 0x3d
   10f08:	43000a78 	movwmi	r0, #2680	; 0xa78
   10f0c:	31464e4f 	cmpcc	r6, pc, asr #28
   10f10:	2578303d 	ldrbcs	r3, [r8, #-61]!	; 0x3d
   10f14:	44000a78 	strmi	r0, [r0], #-2680	; 0xa78
   10f18:	43325244 	teqmi	r2, #1073741828	; 0x40000004
   10f1c:	303d4c54 	eorscc	r4, sp, r4, asr ip
   10f20:	0a782578 	beq	0x1e1a508
   10f24:	53455400 	movtpl	r5, #21504	; 0x5400
   10f28:	335f3254 	cmpcc	pc, #1073741829	; 0x40000005
   10f2c:	2578303d 	ldrbcs	r3, [r8, #-61]!	; 0x3d
   10f30:	43000a78 	movwmi	r0, #2680	; 0xa78
   10f34:	32464e4f 	subcc	r4, r6, #1264	; 0x4f0
   10f38:	2578303d 	ldrbcs	r3, [r8, #-61]!	; 0x3d
   10f3c:	50000a78 	andpl	r0, r0, r8, ror sl
   10f40:	52544344 	subspl	r4, r4, #268435457	; 0x10000001
   10f44:	78303d4c 	ldmdavc	r0!, {r2, r3, r6, r8, sl, fp, ip, sp}
   10f48:	000a7825 	andeq	r7, sl, r5, lsr #16
   10f4c:	43444150 	movtmi	r4, #16720	; 0x4150
   10f50:	3d334c54 	ldccc	12, cr4, [r3, #-336]!	; 0xfffffeb0
   10f54:	78257830 	stmdavc	r5!, {r4, r5, fp, ip, sp, lr}
   10f58:	5144000a 	cmppl	r4, sl
   10f5c:	594c444f 	stmdbpl	ip, {r0, r1, r2, r3, r6, sl, lr}^
   10f60:	2578303d 	ldrbcs	r3, [r8, #-61]!	; 0x3d
   10f64:	43000a78 	movwmi	r0, #2680	; 0xa78
   10f68:	415f444d 	cmpmi	pc, sp, asr #8
   10f6c:	5f524444 	svcpl	0x00524444
   10f70:	5054554f 	subspl	r5, r4, pc, asr #10
   10f74:	445f5455 	ldrbmi	r5, [pc], #-1109	; 0x10f7c
   10f78:	303d594c 	eorscc	r5, sp, ip, asr #18
   10f7c:	0a782578 	beq	0x1e1a564
   10f80:	4b4c4300 	blmi	0x1321b88
   10f84:	54554f5f 	ldrbpl	r4, [r5], #-3935	; 0xf5f
   10f88:	5f545550 	svcpl	0x00545550
   10f8c:	3d594c44 	ldclcc	12, cr4, [r9, #-272]	; 0xfffffef0
   10f90:	78257830 	stmdavc	r5!, {r4, r5, fp, ip, sp, lr}
   10f94:	4341000a 	movtmi	r0, #4106	; 0x100a
   10f98:	314d4954 	cmpcc	sp, r4, asr r9
   10f9c:	2578303d 	ldrbcs	r3, [r8, #-61]!	; 0x3d
   10fa0:	4d000a78 	vstrmi	s0, [r0, #-480]	; 0xfffffe20
   10fa4:	54435349 	strbpl	r5, [r3], #-841	; 0x349
   10fa8:	303d304c 	eorscc	r3, sp, ip, asr #32
   10fac:	0a782578 	beq	0x1e1a594
   10fb0:	54434100 	strbpl	r4, [r3], #-256	; 0x100
   10fb4:	35304d49 	ldrcc	r4, [r0, #-3401]!	; 0xd49
   10fb8:	78303d54 	ldmdavc	r0!, {r2, r4, r6, r8, sl, fp, ip, sp}
   10fbc:	000a7825 	andeq	r7, sl, r5, lsr #16
   10fc0:	45444f4d 	strbmi	r4, [r4, #-3917]	; 0xf4d
   10fc4:	78303d31 	ldmdavc	r0!, {r0, r4, r5, r8, sl, fp, ip, sp}
   10fc8:	000a7825 	andeq	r7, sl, r5, lsr #16
   10fcc:	45444f4d 	strbmi	r4, [r4, #-3917]	; 0xf4d
   10fd0:	78303d32 	ldmdavc	r0!, {r1, r4, r5, r8, sl, fp, ip, sp}
   10fd4:	000a7825 	andeq	r7, sl, r5, lsr #16
   10fd8:	45444f4d 	strbmi	r4, [r4, #-3917]	; 0xf4d
   10fdc:	78303d33 	ldmdavc	r0!, {r0, r1, r4, r5, r8, sl, fp, ip, sp}
   10fe0:	000a7825 	andeq	r7, sl, r5, lsr #16
   10fe4:	45444f4d 	strbmi	r4, [r4, #-3917]	; 0xf4d
   10fe8:	78303d35 	ldmdavc	r0!, {r0, r2, r4, r5, r8, sl, fp, ip, sp}
   10fec:	000a7825 	andeq	r7, sl, r5, lsr #16
   10ff0:	45444f4d 	strbmi	r4, [r4, #-3917]	; 0xf4d
   10ff4:	303d3031 	eorscc	r3, sp, r1, lsr r0
   10ff8:	0a782578 	beq	0x1e1a5e0
   10ffc:	444f4d00 	strbmi	r4, [pc], #-3328	; 0x11004
   11000:	3d333645 	ldccc	6, cr3, [r3, #-276]!	; 0xfffffeec
   11004:	78257830 	stmdavc	r5!, {r4, r5, fp, ip, sp, lr}
   11008:	0000000a 	andeq	r0, r0, sl
	...
   11018:	00200000 	eoreq	r0, r0, r0
   1101c:	00217dcc 	eoreq	r7, r1, ip, asr #27
   11020:	00216dc4 	eoreq	r6, r1, r4, asr #27
   11024:	00217df4 	strdeq	r7, [r1], -r4	; <UNPREDICTABLE>
   11028:	00210828 	eoreq	r0, r1, r8, lsr #16
   1102c:	00215278 	eoreq	r5, r1, r8, ror r2
   11030:	00215104 	eoreq	r5, r1, r4, lsl #2
   11034:	0021520c 	eoreq	r5, r1, ip, lsl #4
   11038:	0021573c 	eoreq	r5, r1, ip, lsr r7
   1103c:	00216c20 	eoreq	r6, r1, r0, lsr #24
   11040:	00216cb4 			; <UNDEFINED> instruction: 0x00216cb4
   11044:	0020545c 	eoreq	r5, r0, ip, asr r4
   11048:	00215778 	eoreq	r5, r1, r8, ror r7
   1104c:	00215168 	eoreq	r5, r1, r8, ror #2
   11050:	00215804 	eoreq	r5, r1, r4, lsl #16
   11054:	00218490 	mlaeq	r1, r0, r4, r8
   11058:	00217dec 	eoreq	r7, r1, ip, ror #27
   1105c:	00218498 	mlaeq	r1, r8, r4, r8
   11060:	00215288 	eoreq	r5, r1, r8, lsl #5
   11064:	00217df8 	strdeq	r7, [r1], -r8	; <UNPREDICTABLE>
   11068:	00215148 	eoreq	r5, r1, r8, asr #2
   1106c:	00215124 	eoreq	r5, r1, r4, lsr #2
   11070:	00215140 	eoreq	r5, r1, r0, asr #2
   11074:	00216cac 	eoreq	r6, r1, ip, lsr #25
   11078:	00215864 	eoreq	r5, r1, r4, ror #16
   1107c:	00217dd0 	ldrdeq	r7, [r1], -r0	; <UNPREDICTABLE>
   11080:	00218498 	mlaeq	r1, r8, r4, r8
   11084:	00217dd4 	ldrdeq	r7, [r1], -r4	; <UNPREDICTABLE>
   11088:	00217de4 	eoreq	r7, r1, r4, ror #27
   1108c:	002157b4 			; <UNDEFINED> instruction: 0x002157b4
   11090:	00204000 	eoreq	r4, r0, r0
   11094:	00215144 	eoreq	r5, r1, r4, asr #2
   11098:	00216c18 	eoreq	r6, r1, r8, lsl ip
   1109c:	0021848c 	eoreq	r8, r1, ip, lsl #9
   110a0:	00218494 	mlaeq	r1, r4, r4, r8
   110a4:	00204000 	eoreq	r4, r0, r0
   110a8:	00217dfc 	strdeq	r7, [r1], -ip	; <UNPREDICTABLE>
   110ac:	002171c8 	eoreq	r7, r1, r8, asr #3
   110b0:	00215814 	eoreq	r5, r1, r4, lsl r8
   110b4:	00215298 	mlaeq	r1, r8, r2, r5
   110b8:	00216c1c 	eoreq	r6, r1, ip, lsl ip
   110bc:	00216d84 	eoreq	r6, r1, r4, lsl #27
   110c0:	00215894 	mlaeq	r1, r4, r8, r5
   110c4:	00217e04 	eoreq	r7, r1, r4, lsl #28
   110c8:	00217e00 	eoreq	r7, r1, r0, lsl #28
   110cc:	00217e44 	eoreq	r7, r1, r4, asr #28
   110d0:	00217df0 	strdeq	r7, [r1], -r0	; <UNPREDICTABLE>
   110d4:	0021513c 	eoreq	r5, r1, ip, lsr r1
   110d8:	00217de8 	eoreq	r7, r1, r8, ror #27
   110dc:	00217e48 	eoreq	r7, r1, r8, asr #28
   110e0:	0021516c 	eoreq	r5, r1, ip, ror #2
   110e4:	00205544 	eoreq	r5, r0, r4, asr #10
   110e8:	00216dc0 	eoreq	r6, r1, r0, asr #27
   110ec:	00215250 	eoreq	r5, r1, r0, asr r2
   110f0:	00216cb0 			; <UNDEFINED> instruction: 0x00216cb0
   110f4:	00216c24 	eoreq	r6, r1, r4, lsr #24
   110f8:	002151a8 	eoreq	r5, r1, r8, lsr #3
   110fc:	00215824 	eoreq	r5, r1, r4, lsr #16
   11100:	00215880 	eoreq	r5, r1, r0, lsl #17
   11104:	00000000 	andeq	r0, r0, r0
   11108:	00204b2c 	eoreq	r4, r0, ip, lsr #22
   1110c:	00000000 	andeq	r0, r0, r0
   11110:	00204aec 	eoreq	r4, r0, ip, ror #21
   11114:	00204aa4 	eoreq	r4, r0, r4, lsr #21
   11118:	00204a64 	eoreq	r4, r0, r4, ror #20
	...
   11124:	00204fa8 	eoreq	r4, r0, r8, lsr #31
   11128:	00204ebc 			; <UNDEFINED> instruction: 0x00204ebc
   1112c:	00204ee0 	eoreq	r4, r0, r0, ror #29
   11130:	00204f04 	eoreq	r4, r0, r4, lsl #30
   11134:	002050ac 	eoreq	r5, r0, ip, lsr #1
   11138:	00204e94 	mlaeq	r0, r4, lr, r4
   1113c:	00000001 	andeq	r0, r0, r1
   11140:	00000001 	andeq	r0, r0, r1
   11144:	00000001 	andeq	r0, r0, r1
   11148:	03020100 	movweq	r0, #8448	; 0x2100
   1114c:	07060504 	streq	r0, [r6, -r4, lsl #10]
   11150:	0b0a0908 	bleq	0x293578
   11154:	0f0e0d0c 	svceq	0x000e0d0c
   11158:	13121110 	tstne	r2, #4
   1115c:	17161514 			; <UNDEFINED> instruction: 0x17161514
   11160:	1b1a1918 	blne	0x6975c8
   11164:	1f1e1d1c 	svcne	0x001e1d1c
   11168:	03020100 	movweq	r0, #8448	; 0x2100
   1116c:	03020100 	movweq	r0, #8448	; 0x2100
   11170:	00209fc0 	eoreq	r9, r0, r0, asr #31
   11174:	00209700 	eoreq	r9, r0, r0, lsl #14
   11178:	00209704 	eoreq	r9, r0, r4, lsl #14
   1117c:	0020a0f4 	strdeq	sl, [r0], -r4	; <UNPREDICTABLE>
   11180:	00209768 	eoreq	r9, r0, r8, ror #14
   11184:	0020976c 	eoreq	r9, r0, ip, ror #14
   11188:	00209f90 	mlaeq	r0, r0, pc, r9	; <UNPREDICTABLE>
   1118c:	00209fc0 	eoreq	r9, r0, r0, asr #31
   11190:	00209700 	eoreq	r9, r0, r0, lsl #14
   11194:	00209704 	eoreq	r9, r0, r4, lsl #14
   11198:	0020a0d8 	ldrdeq	sl, [r0], -r8	; <UNPREDICTABLE>
   1119c:	00209768 	eoreq	r9, r0, r8, ror #14
   111a0:	0020976c 	eoreq	r9, r0, ip, ror #14
   111a4:	00209f90 	mlaeq	r0, r0, pc, r9	; <UNPREDICTABLE>
   111a8:	00210579 	eoreq	r0, r1, r9, ror r5
   111ac:	0021057f 	eoreq	r0, r1, pc, ror r5
   111b0:	0021071f 	eoreq	r0, r1, pc, lsl r7
   111b4:	00210723 	eoreq	r0, r1, r3, lsr #14
   111b8:	002105d2 	ldrdeq	r0, [r1], -r2	; <UNPREDICTABLE>
   111bc:	00210727 	eoreq	r0, r1, r7, lsr #14
   111c0:	0021072b 	eoreq	r0, r1, fp, lsr #14
   111c4:	0021072f 	eoreq	r0, r1, pc, lsr #14
   111c8:	0021066d 	eoreq	r0, r1, sp, ror #12
   111cc:	00210733 	eoreq	r0, r1, r3, lsr r7
   111d0:	00210736 	eoreq	r0, r1, r6, lsr r7
   111d4:	0021073a 	eoreq	r0, r1, sl, lsr r7
   111d8:	002105d5 	ldrdeq	r0, [r1], -r5	; <UNPREDICTABLE>
   111dc:	0021073e 	eoreq	r0, r1, lr, lsr r7
   111e0:	00210742 	eoreq	r0, r1, r2, asr #14
   111e4:	00210746 	eoreq	r0, r1, r6, asr #14
   111e8:	00210670 	eoreq	r0, r1, r0, ror r6
   111ec:	0021074a 	eoreq	r0, r1, sl, asr #14
   111f0:	0021074e 	eoreq	r0, r1, lr, asr #14
   111f4:	00210752 	eoreq	r0, r1, r2, asr r7
   111f8:	002105d9 	ldrdeq	r0, [r1], -r9	; <UNPREDICTABLE>
   111fc:	00210756 	eoreq	r0, r1, r6, asr r7
   11200:	0021075a 	eoreq	r0, r1, sl, asr r7
   11204:	0021075e 	eoreq	r0, r1, lr, asr r7
   11208:	00000000 	andeq	r0, r0, r0
   1120c:	00210579 	eoreq	r0, r1, r9, ror r5
   11210:	0021066d 	eoreq	r0, r1, sp, ror #12
   11214:	00210670 	eoreq	r0, r1, r0, ror r6
   11218:	00210674 	eoreq	r0, r1, r4, ror r6
   1121c:	002105b5 			; <UNDEFINED> instruction: 0x002105b5
   11220:	002105b8 			; <UNDEFINED> instruction: 0x002105b8
   11224:	002105bb 			; <UNDEFINED> instruction: 0x002105bb
   11228:	002105be 			; <UNDEFINED> instruction: 0x002105be
   1122c:	002105c1 	eoreq	r0, r1, r1, asr #11
   11230:	002105c4 	eoreq	r0, r1, r4, asr #11
   11234:	002105c7 	eoreq	r0, r1, r7, asr #11
   11238:	002105ca 	eoreq	r0, r1, sl, asr #11
   1123c:	002105cd 	eoreq	r0, r1, sp, asr #11
   11240:	002105d0 	ldrdeq	r0, [r1], -r0	; <UNPREDICTABLE>
   11244:	002105d4 	ldrdeq	r0, [r1], -r4	; <UNPREDICTABLE>
   11248:	002105d8 	ldrdeq	r0, [r1], -r8	; <UNPREDICTABLE>
   1124c:	00000000 	andeq	r0, r0, r0
   11250:	002105dc 	ldrdeq	r0, [r1], -ip	; <UNPREDICTABLE>
   11254:	0021520c 	eoreq	r5, r1, ip, lsl #4
	...
   11260:	00209770 	eoreq	r9, r0, r0, ror r7
   11264:	00210601 	eoreq	r0, r1, r1, lsl #12
   11268:	002151a8 	eoreq	r5, r1, r8, lsr #3
	...
   11274:	002098e0 	eoreq	r9, r0, r0, ror #17
   11278:	00208ef0 	strdeq	r8, [r0], -r0	; <UNPREDICTABLE>
   1127c:	80000000 	andhi	r0, r0, r0
   11280:	0000000a 	andeq	r0, r0, sl
   11284:	00000000 	andeq	r0, r0, r0
   11288:	002090c4 	eoreq	r9, r0, r4, asr #1
   1128c:	80000000 	andhi	r0, r0, r0
   11290:	0000000a 	andeq	r0, r0, sl
   11294:	00000000 	andeq	r0, r0, r0
   11298:	ffffffff 			; <UNDEFINED> instruction: 0xffffffff
   1129c:	00000001 	andeq	r0, r0, r1
   112a0:	0020a574 	eoreq	sl, r0, r4, ror r5
   112a4:	0020a170 	eoreq	sl, r0, r0, ror r1
   112a8:	0020a138 	eoreq	sl, r0, r8, lsr r1
   112ac:	0020a3b8 			; <UNDEFINED> instruction: 0x0020a3b8
   112b0:	0020a140 	eoreq	sl, r0, r0, asr #2
   112b4:	0020a210 	eoreq	sl, r0, r0, lsl r2
   112b8:	0020a330 	eoreq	sl, r0, r0, lsr r3
   112bc:	0020a4e4 	eoreq	sl, r0, r4, ror #9
   112c0:	0020a20c 	eoreq	sl, r0, ip, lsl #4
   112c4:	0020a13c 	eoreq	sl, r0, ip, lsr r1
   112c8:	0020a348 	eoreq	sl, r0, r8, asr #6
   112cc:	0020a158 	eoreq	sl, r0, r8, asr r1
   112d0:	0020a214 	eoreq	sl, r0, r4, lsl r2
   112d4:	0020a318 	eoreq	sl, r0, r8, lsl r3
   112d8:	00210579 	eoreq	r0, r1, r9, ror r5
   112dc:	0021057f 	eoreq	r0, r1, pc, ror r5
   112e0:	0021071f 	eoreq	r0, r1, pc, lsl r7
   112e4:	00210723 	eoreq	r0, r1, r3, lsr #14
   112e8:	002105d2 	ldrdeq	r0, [r1], -r2	; <UNPREDICTABLE>
   112ec:	00210727 	eoreq	r0, r1, r7, lsr #14
   112f0:	0021072b 	eoreq	r0, r1, fp, lsr #14
   112f4:	0021072f 	eoreq	r0, r1, pc, lsr #14
   112f8:	0021066d 	eoreq	r0, r1, sp, ror #12
   112fc:	00210733 	eoreq	r0, r1, r3, lsr r7
   11300:	00210736 	eoreq	r0, r1, r6, lsr r7
   11304:	0021073a 	eoreq	r0, r1, sl, lsr r7
   11308:	002105d5 	ldrdeq	r0, [r1], -r5	; <UNPREDICTABLE>
   1130c:	0021073e 	eoreq	r0, r1, lr, lsr r7
   11310:	00210742 	eoreq	r0, r1, r2, asr #14
   11314:	00210746 	eoreq	r0, r1, r6, asr #14
   11318:	00000000 	andeq	r0, r0, r0
   1131c:	00210579 	eoreq	r0, r1, r9, ror r5
   11320:	002105d2 	ldrdeq	r0, [r1], -r2	; <UNPREDICTABLE>
   11324:	0021066d 	eoreq	r0, r1, sp, ror #12
   11328:	002105d5 	ldrdeq	r0, [r1], -r5	; <UNPREDICTABLE>
   1132c:	00210670 	eoreq	r0, r1, r0, ror r6
   11330:	002105d9 	ldrdeq	r0, [r1], -r9	; <UNPREDICTABLE>
   11334:	00210674 	eoreq	r0, r1, r4, ror r6
   11338:	0021064c 	eoreq	r0, r1, ip, asr #12
   1133c:	002105b5 			; <UNDEFINED> instruction: 0x002105b5
   11340:	0021064f 	eoreq	r0, r1, pc, asr #12
   11344:	002105b8 			; <UNDEFINED> instruction: 0x002105b8
   11348:	00210652 	eoreq	r0, r1, r2, asr r6
   1134c:	002105bb 			; <UNDEFINED> instruction: 0x002105bb
   11350:	00210655 	eoreq	r0, r1, r5, asr r6
   11354:	002105be 			; <UNDEFINED> instruction: 0x002105be
   11358:	00210658 	eoreq	r0, r1, r8, asr r6
   1135c:	002105c1 	eoreq	r0, r1, r1, asr #11
   11360:	0021065b 	eoreq	r0, r1, fp, asr r6
   11364:	002105c4 	eoreq	r0, r1, r4, asr #11
   11368:	0021065e 	eoreq	r0, r1, lr, asr r6
   1136c:	002105c7 	eoreq	r0, r1, r7, asr #11
   11370:	00210661 	eoreq	r0, r1, r1, ror #12
   11374:	002105ca 	eoreq	r0, r1, sl, asr #11
   11378:	00210664 	eoreq	r0, r1, r4, ror #12
   1137c:	002105cd 	eoreq	r0, r1, sp, asr #11
   11380:	00210667 	eoreq	r0, r1, r7, ror #12
   11384:	002105d0 	ldrdeq	r0, [r1], -r0	; <UNPREDICTABLE>
   11388:	0021066b 	eoreq	r0, r1, fp, ror #12
   1138c:	002105d4 	ldrdeq	r0, [r1], -r4	; <UNPREDICTABLE>
   11390:	0021066f 	eoreq	r0, r1, pc, ror #12
   11394:	002105d8 	ldrdeq	r0, [r1], -r8	; <UNPREDICTABLE>
   11398:	00210673 	eoreq	r0, r1, r3, ror r6
   1139c:	00000000 	andeq	r0, r0, r0
   113a0:	00210579 	eoreq	r0, r1, r9, ror r5
   113a4:	0021057f 	eoreq	r0, r1, pc, ror r5
   113a8:	0021071f 	eoreq	r0, r1, pc, lsl r7
   113ac:	00210723 	eoreq	r0, r1, r3, lsr #14
   113b0:	002105d2 	ldrdeq	r0, [r1], -r2	; <UNPREDICTABLE>
   113b4:	00210727 	eoreq	r0, r1, r7, lsr #14
   113b8:	0021072b 	eoreq	r0, r1, fp, lsr #14
   113bc:	0021072f 	eoreq	r0, r1, pc, lsr #14
   113c0:	0021066d 	eoreq	r0, r1, sp, ror #12
   113c4:	00210733 	eoreq	r0, r1, r3, lsr r7
   113c8:	00210736 	eoreq	r0, r1, r6, lsr r7
   113cc:	0021073a 	eoreq	r0, r1, sl, lsr r7
   113d0:	002105d5 	ldrdeq	r0, [r1], -r5	; <UNPREDICTABLE>
   113d4:	0021073e 	eoreq	r0, r1, lr, lsr r7
   113d8:	00210742 	eoreq	r0, r1, r2, asr #14
   113dc:	00210746 	eoreq	r0, r1, r6, asr #14
   113e0:	00210670 	eoreq	r0, r1, r0, ror r6
   113e4:	0021074a 	eoreq	r0, r1, sl, asr #14
   113e8:	0021074e 	eoreq	r0, r1, lr, asr #14
   113ec:	00210752 	eoreq	r0, r1, r2, asr r7
   113f0:	002105d9 	ldrdeq	r0, [r1], -r9	; <UNPREDICTABLE>
   113f4:	00210756 	eoreq	r0, r1, r6, asr r7
   113f8:	0021075a 	eoreq	r0, r1, sl, asr r7
   113fc:	0021075e 	eoreq	r0, r1, lr, asr r7
   11400:	00210674 	eoreq	r0, r1, r4, ror r6
   11404:	00210762 	eoreq	r0, r1, r2, ror #14
   11408:	00210766 	eoreq	r0, r1, r6, ror #14
   1140c:	0021076a 	eoreq	r0, r1, sl, ror #14
   11410:	0021064c 	eoreq	r0, r1, ip, asr #12
   11414:	00210677 	eoreq	r0, r1, r7, ror r6
   11418:	0021067a 	eoreq	r0, r1, sl, ror r6
   1141c:	0021067d 	eoreq	r0, r1, sp, ror r6
   11420:	002105b5 			; <UNDEFINED> instruction: 0x002105b5
   11424:	00210680 	eoreq	r0, r1, r0, lsl #13
   11428:	00210683 	eoreq	r0, r1, r3, lsl #13
   1142c:	00210686 	eoreq	r0, r1, r6, lsl #13
   11430:	0021064f 	eoreq	r0, r1, pc, asr #12
   11434:	00210689 	eoreq	r0, r1, r9, lsl #13
   11438:	0021068c 	eoreq	r0, r1, ip, lsl #13
   1143c:	0021068f 	eoreq	r0, r1, pc, lsl #13
   11440:	002105b8 			; <UNDEFINED> instruction: 0x002105b8
   11444:	00210692 	mlaeq	r1, r2, r6, r0
   11448:	00210695 	mlaeq	r1, r5, r6, r0
   1144c:	00210698 	mlaeq	r1, r8, r6, r0
   11450:	00210652 	eoreq	r0, r1, r2, asr r6
   11454:	0021069b 	mlaeq	r1, fp, r6, r0
   11458:	0021069e 	mlaeq	r1, lr, r6, r0
   1145c:	002106a1 	eoreq	r0, r1, r1, lsr #13
   11460:	002105bb 			; <UNDEFINED> instruction: 0x002105bb
   11464:	002106a4 	eoreq	r0, r1, r4, lsr #13
   11468:	002106a7 	eoreq	r0, r1, r7, lsr #13
   1146c:	002106aa 	eoreq	r0, r1, sl, lsr #13
   11470:	00210655 	eoreq	r0, r1, r5, asr r6
   11474:	002106ad 	eoreq	r0, r1, sp, lsr #13
   11478:	002106b0 			; <UNDEFINED> instruction: 0x002106b0
   1147c:	002106b3 			; <UNDEFINED> instruction: 0x002106b3
   11480:	002105be 			; <UNDEFINED> instruction: 0x002105be
   11484:	002106b6 			; <UNDEFINED> instruction: 0x002106b6
   11488:	002106b9 			; <UNDEFINED> instruction: 0x002106b9
   1148c:	002106bc 			; <UNDEFINED> instruction: 0x002106bc
   11490:	00210658 	eoreq	r0, r1, r8, asr r6
   11494:	002106bf 			; <UNDEFINED> instruction: 0x002106bf
   11498:	002106c2 	eoreq	r0, r1, r2, asr #13
   1149c:	002106c5 	eoreq	r0, r1, r5, asr #13
   114a0:	002105c1 	eoreq	r0, r1, r1, asr #11
   114a4:	002106c8 	eoreq	r0, r1, r8, asr #13
   114a8:	002106cb 	eoreq	r0, r1, fp, asr #13
   114ac:	002106ce 	eoreq	r0, r1, lr, asr #13
   114b0:	0021065b 	eoreq	r0, r1, fp, asr r6
   114b4:	002106d1 	ldrdeq	r0, [r1], -r1	; <UNPREDICTABLE>
   114b8:	002106d4 	ldrdeq	r0, [r1], -r4	; <UNPREDICTABLE>
   114bc:	002106d7 	ldrdeq	r0, [r1], -r7	; <UNPREDICTABLE>
   114c0:	002105c4 	eoreq	r0, r1, r4, asr #11
   114c4:	002106da 	ldrdeq	r0, [r1], -sl	; <UNPREDICTABLE>
   114c8:	002106dd 	ldrdeq	r0, [r1], -sp	; <UNPREDICTABLE>
   114cc:	002106e0 	eoreq	r0, r1, r0, ror #13
   114d0:	0021065e 	eoreq	r0, r1, lr, asr r6
   114d4:	002106e3 	eoreq	r0, r1, r3, ror #13
   114d8:	002106e6 	eoreq	r0, r1, r6, ror #13
   114dc:	002106e9 	eoreq	r0, r1, r9, ror #13
   114e0:	002105c7 	eoreq	r0, r1, r7, asr #11
   114e4:	002106ec 	eoreq	r0, r1, ip, ror #13
   114e8:	002106ef 	eoreq	r0, r1, pc, ror #13
   114ec:	002106f2 	strdeq	r0, [r1], -r2	; <UNPREDICTABLE>
   114f0:	00210661 	eoreq	r0, r1, r1, ror #12
   114f4:	002106f5 	strdeq	r0, [r1], -r5	; <UNPREDICTABLE>
   114f8:	002106f8 	strdeq	r0, [r1], -r8	; <UNPREDICTABLE>
   114fc:	002106fb 	strdeq	r0, [r1], -fp	; <UNPREDICTABLE>
   11500:	002105ca 	eoreq	r0, r1, sl, asr #11
   11504:	002106fe 	strdeq	r0, [r1], -lr	; <UNPREDICTABLE>
   11508:	00210701 	eoreq	r0, r1, r1, lsl #14
   1150c:	00210704 	eoreq	r0, r1, r4, lsl #14
   11510:	00210664 	eoreq	r0, r1, r4, ror #12
   11514:	00210707 	eoreq	r0, r1, r7, lsl #14
   11518:	0021070a 	eoreq	r0, r1, sl, lsl #14
   1151c:	0021070d 	eoreq	r0, r1, sp, lsl #14
   11520:	002105cd 	eoreq	r0, r1, sp, asr #11
   11524:	00210710 	eoreq	r0, r1, r0, lsl r7
   11528:	00210713 	eoreq	r0, r1, r3, lsl r7
   1152c:	00210716 	eoreq	r0, r1, r6, lsl r7
   11530:	00210667 	eoreq	r0, r1, r7, ror #12
   11534:	00210719 	eoreq	r0, r1, r9, lsl r7
   11538:	0021071d 	eoreq	r0, r1, sp, lsl r7
   1153c:	00210721 	eoreq	r0, r1, r1, lsr #14
   11540:	002105d0 	ldrdeq	r0, [r1], -r0	; <UNPREDICTABLE>
   11544:	00210725 	eoreq	r0, r1, r5, lsr #14
   11548:	00210729 	eoreq	r0, r1, r9, lsr #14
   1154c:	0021072d 	eoreq	r0, r1, sp, lsr #14
   11550:	0021066b 	eoreq	r0, r1, fp, ror #12
   11554:	00210731 	eoreq	r0, r1, r1, lsr r7
   11558:	00210735 	eoreq	r0, r1, r5, lsr r7
   1155c:	00210739 	eoreq	r0, r1, r9, lsr r7
   11560:	002105d4 	ldrdeq	r0, [r1], -r4	; <UNPREDICTABLE>
   11564:	0021073d 	eoreq	r0, r1, sp, lsr r7
   11568:	00210741 	eoreq	r0, r1, r1, asr #14
   1156c:	00210745 	eoreq	r0, r1, r5, asr #14
   11570:	0021066f 	eoreq	r0, r1, pc, ror #12
   11574:	00210749 	eoreq	r0, r1, r9, asr #14
   11578:	0021074d 	eoreq	r0, r1, sp, asr #14
   1157c:	00210751 	eoreq	r0, r1, r1, asr r7
   11580:	002105d8 	ldrdeq	r0, [r1], -r8	; <UNPREDICTABLE>
   11584:	00210755 	eoreq	r0, r1, r5, asr r7
   11588:	00210759 	eoreq	r0, r1, r9, asr r7
   1158c:	0021075d 	eoreq	r0, r1, sp, asr r7
   11590:	00210673 	eoreq	r0, r1, r3, ror r6
   11594:	00210761 	eoreq	r0, r1, r1, ror #14
   11598:	00210765 	eoreq	r0, r1, r5, ror #14
   1159c:	00210769 	eoreq	r0, r1, r9, ror #14
   115a0:	00000000 	andeq	r0, r0, r0
   115a4:	0021071f 	eoreq	r0, r1, pc, lsl r7
   115a8:	00210723 	eoreq	r0, r1, r3, lsr #14
   115ac:	0021057f 	eoreq	r0, r1, pc, ror r5
   115b0:	00000000 	andeq	r0, r0, r0
   115b4:	002105d2 	ldrdeq	r0, [r1], -r2	; <UNPREDICTABLE>
   115b8:	00210727 	eoreq	r0, r1, r7, lsr #14
   115bc:	0021072b 	eoreq	r0, r1, fp, lsr #14
   115c0:	0021072f 	eoreq	r0, r1, pc, lsr #14
   115c4:	0021066d 	eoreq	r0, r1, sp, ror #12
   115c8:	00210733 	eoreq	r0, r1, r3, lsr r7
   115cc:	00210736 	eoreq	r0, r1, r6, lsr r7
   115d0:	0021073a 	eoreq	r0, r1, sl, lsr r7
   115d4:	002105d5 	ldrdeq	r0, [r1], -r5	; <UNPREDICTABLE>
   115d8:	0021073e 	eoreq	r0, r1, lr, lsr r7
   115dc:	00210742 	eoreq	r0, r1, r2, asr #14
   115e0:	00210746 	eoreq	r0, r1, r6, asr #14
   115e4:	00000000 	andeq	r0, r0, r0
   115e8:	0021066d 	eoreq	r0, r1, sp, ror #12
   115ec:	00210736 	eoreq	r0, r1, r6, lsr r7
   115f0:	002105d5 	ldrdeq	r0, [r1], -r5	; <UNPREDICTABLE>
   115f4:	00000000 	andeq	r0, r0, r0
   115f8:	00210579 	eoreq	r0, r1, r9, ror r5
   115fc:	0021057f 	eoreq	r0, r1, pc, ror r5
   11600:	0021071f 	eoreq	r0, r1, pc, lsl r7
   11604:	00210723 	eoreq	r0, r1, r3, lsr #14
   11608:	002105d2 	ldrdeq	r0, [r1], -r2	; <UNPREDICTABLE>
   1160c:	00210727 	eoreq	r0, r1, r7, lsr #14
   11610:	0021072b 	eoreq	r0, r1, fp, lsr #14
   11614:	0021072f 	eoreq	r0, r1, pc, lsr #14
   11618:	0021066d 	eoreq	r0, r1, sp, ror #12
   1161c:	00210733 	eoreq	r0, r1, r3, lsr r7
   11620:	00210736 	eoreq	r0, r1, r6, lsr r7
   11624:	0021073a 	eoreq	r0, r1, sl, lsr r7
   11628:	002105d5 	ldrdeq	r0, [r1], -r5	; <UNPREDICTABLE>
   1162c:	0021073e 	eoreq	r0, r1, lr, lsr r7
   11630:	00210742 	eoreq	r0, r1, r2, asr #14
   11634:	00210746 	eoreq	r0, r1, r6, asr #14
   11638:	00000000 	andeq	r0, r0, r0
   1163c:	00210579 	eoreq	r0, r1, r9, ror r5
   11640:	0021057f 	eoreq	r0, r1, pc, ror r5
   11644:	0021071f 	eoreq	r0, r1, pc, lsl r7
   11648:	00210723 	eoreq	r0, r1, r3, lsr #14
   1164c:	002105d2 	ldrdeq	r0, [r1], -r2	; <UNPREDICTABLE>
   11650:	00210727 	eoreq	r0, r1, r7, lsr #14
   11654:	0021072b 	eoreq	r0, r1, fp, lsr #14
   11658:	0021072f 	eoreq	r0, r1, pc, lsr #14
   1165c:	0021066d 	eoreq	r0, r1, sp, ror #12
   11660:	00210733 	eoreq	r0, r1, r3, lsr r7
   11664:	00210736 	eoreq	r0, r1, r6, lsr r7
   11668:	0021073a 	eoreq	r0, r1, sl, lsr r7
   1166c:	002105d5 	ldrdeq	r0, [r1], -r5	; <UNPREDICTABLE>
   11670:	0021073e 	eoreq	r0, r1, lr, lsr r7
   11674:	00210742 	eoreq	r0, r1, r2, asr #14
   11678:	00210746 	eoreq	r0, r1, r6, asr #14
   1167c:	00000000 	andeq	r0, r0, r0
   11680:	0021072b 	eoreq	r0, r1, fp, lsr #14
   11684:	0021072f 	eoreq	r0, r1, pc, lsr #14
   11688:	0021066d 	eoreq	r0, r1, sp, ror #12
   1168c:	00210733 	eoreq	r0, r1, r3, lsr r7
   11690:	00210736 	eoreq	r0, r1, r6, lsr r7
   11694:	0021073a 	eoreq	r0, r1, sl, lsr r7
   11698:	002105d5 	ldrdeq	r0, [r1], -r5	; <UNPREDICTABLE>
   1169c:	0021073e 	eoreq	r0, r1, lr, lsr r7
   116a0:	00210742 	eoreq	r0, r1, r2, asr #14
   116a4:	00210746 	eoreq	r0, r1, r6, asr #14
   116a8:	00000000 	andeq	r0, r0, r0
   116ac:	00210579 	eoreq	r0, r1, r9, ror r5
   116b0:	0021057f 	eoreq	r0, r1, pc, ror r5
   116b4:	0021071f 	eoreq	r0, r1, pc, lsl r7
   116b8:	00210723 	eoreq	r0, r1, r3, lsr #14
   116bc:	002105d2 	ldrdeq	r0, [r1], -r2	; <UNPREDICTABLE>
   116c0:	00210727 	eoreq	r0, r1, r7, lsr #14
   116c4:	0021072b 	eoreq	r0, r1, fp, lsr #14
   116c8:	0021072f 	eoreq	r0, r1, pc, lsr #14
   116cc:	0021066d 	eoreq	r0, r1, sp, ror #12
   116d0:	00210733 	eoreq	r0, r1, r3, lsr r7
   116d4:	00210736 	eoreq	r0, r1, r6, lsr r7
   116d8:	0021073a 	eoreq	r0, r1, sl, lsr r7
   116dc:	002105d5 	ldrdeq	r0, [r1], -r5	; <UNPREDICTABLE>
   116e0:	0021073e 	eoreq	r0, r1, lr, lsr r7
   116e4:	00210742 	eoreq	r0, r1, r2, asr #14
   116e8:	00210746 	eoreq	r0, r1, r6, asr #14
   116ec:	00000000 	andeq	r0, r0, r0
   116f0:	00210579 	eoreq	r0, r1, r9, ror r5
   116f4:	0021057f 	eoreq	r0, r1, pc, ror r5
   116f8:	0021071f 	eoreq	r0, r1, pc, lsl r7
   116fc:	00210723 	eoreq	r0, r1, r3, lsr #14
   11700:	002105d2 	ldrdeq	r0, [r1], -r2	; <UNPREDICTABLE>
   11704:	00210727 	eoreq	r0, r1, r7, lsr #14
   11708:	0021072b 	eoreq	r0, r1, fp, lsr #14
   1170c:	0021072f 	eoreq	r0, r1, pc, lsr #14
   11710:	0021066d 	eoreq	r0, r1, sp, ror #12
   11714:	00210733 	eoreq	r0, r1, r3, lsr r7
   11718:	00210736 	eoreq	r0, r1, r6, lsr r7
   1171c:	0021073a 	eoreq	r0, r1, sl, lsr r7
   11720:	002105d5 	ldrdeq	r0, [r1], -r5	; <UNPREDICTABLE>
   11724:	0021073e 	eoreq	r0, r1, lr, lsr r7
   11728:	00210742 	eoreq	r0, r1, r2, asr #14
   1172c:	00210746 	eoreq	r0, r1, r6, asr #14
   11730:	00000000 	andeq	r0, r0, r0
   11734:	0021072b 	eoreq	r0, r1, fp, lsr #14
   11738:	00000000 	andeq	r0, r0, r0
   1173c:	0021076d 	eoreq	r0, r1, sp, ror #14
   11740:	002153a0 	eoreq	r5, r1, r0, lsr #7
	...
   1174c:	0020af80 	eoreq	sl, r0, r0, lsl #31
   11750:	00210781 	eoreq	r0, r1, r1, lsl #15
   11754:	002155e8 	eoreq	r5, r1, r8, ror #11
	...
   11760:	0020a7ec 	eoreq	sl, r0, ip, ror #15
   11764:	0021079d 	mlaeq	r1, sp, r7, r0
   11768:	002155a4 	eoreq	r5, r1, r4, lsr #11
	...
   11774:	0020ad70 	eoreq	sl, r0, r0, ror sp
   11778:	002107b3 			; <UNDEFINED> instruction: 0x002107b3
   1177c:	002155f8 	strdeq	r5, [r1], -r8	; <UNPREDICTABLE>
	...
   11788:	0020a9a8 	eoreq	sl, r0, r8, lsr #19
   1178c:	002107c6 	eoreq	r0, r1, r6, asr #15
   11790:	0021563c 	eoreq	r5, r1, ip, lsr r6
	...
   1179c:	0020b01c 	eoreq	fp, r0, ip, lsl r0
   117a0:	00210781 	eoreq	r0, r1, r1, lsl #15
   117a4:	00215680 	eoreq	r5, r1, r0, lsl #13
	...
   117b0:	0020a7ec 	eoreq	sl, r0, ip, ror #15
   117b4:	002107da 	ldrdeq	r0, [r1], -sl	; <UNPREDICTABLE>
   117b8:	002156ac 	eoreq	r5, r1, ip, lsr #13
	...
   117c4:	0020a68c 	eoreq	sl, r0, ip, lsl #13
   117c8:	002107f3 	strdeq	r0, [r1], -r3	; <UNPREDICTABLE>
   117cc:	002156f0 	strdeq	r5, [r1], -r0	; <UNPREDICTABLE>
	...
   117d8:	0020b160 	eoreq	fp, r0, r0, ror #2
   117dc:	00210807 	eoreq	r0, r1, r7, lsl #16
   117e0:	00215734 	eoreq	r5, r1, r4, lsr r7
	...
   117ec:	0020aa38 	eoreq	sl, r0, r8, lsr sl
   117f0:	00210781 	eoreq	r0, r1, r1, lsl #15
   117f4:	00215680 	eoreq	r5, r1, r0, lsl #13
	...
   11800:	0020a7ec 	eoreq	sl, r0, ip, ror #15
   11804:	0020b6ec 	eoreq	fp, r0, ip, ror #13
	...
   11814:	002090c4 	eoreq	r9, r0, r4, asr #1
	...
   11820:	eeeeeeee 	cdp	14, 14, cr14, cr14, cr14, {7}
   11824:	0020b6ec 	eoreq	fp, r0, ip, ror #13
	...
   11834:	0020b4d0 	ldrdeq	fp, [r0], -r0	; <UNPREDICTABLE>
   11838:	80000000 	andhi	r0, r0, r0
   1183c:	00001000 	andeq	r1, r0, r0
   11840:	00000000 	andeq	r0, r0, r0
   11844:	00000001 	andeq	r0, r0, r1
   11848:	0020ba38 	eoreq	fp, r0, r8, lsr sl
   1184c:	0020b85c 	eoreq	fp, r0, ip, asr r8
   11850:	0020b840 	eoreq	fp, r0, r0, asr #16
   11854:	0020b970 	eoreq	fp, r0, r0, ror r9
   11858:	0020b844 	eoreq	fp, r0, r4, asr #16
   1185c:	0020b860 	eoreq	fp, r0, r0, ror #16
   11860:	0020b958 	eoreq	fp, r0, r8, asr r9
   11864:	00210727 	eoreq	r0, r1, r7, lsr #14
   11868:	0021072b 	eoreq	r0, r1, fp, lsr #14
   1186c:	0021072f 	eoreq	r0, r1, pc, lsr #14
   11870:	0021066d 	eoreq	r0, r1, sp, ror #12
   11874:	00210733 	eoreq	r0, r1, r3, lsr r7
   11878:	00210736 	eoreq	r0, r1, r6, lsr r7
   1187c:	00000000 	andeq	r0, r0, r0
   11880:	00210807 	eoreq	r0, r1, r7, lsl #16
   11884:	00215864 	eoreq	r5, r1, r4, ror #16
	...
   11890:	0020b864 	eoreq	fp, r0, r4, ror #16
   11894:	0020bbec 	eoreq	fp, r0, ip, ror #23
   11898:	00000000 	andeq	r0, r0, r0
   1189c:	00000100 	andeq	r0, r0, r0, lsl #2
   118a0:	ffffffff 			; <UNDEFINED> instruction: 0xffffffff
   118a4:	00000001 	andeq	r0, r0, r1
   118a8:	00214cb0 			; <UNDEFINED> instruction: 0x00214cb0
   118ac:	00214cbb 			; <UNDEFINED> instruction: 0x00214cbb
   118b0:	00214cc6 	eoreq	r4, r1, r6, asr #25
   118b4:	00214cd2 	ldrdeq	r4, [r1], -r2	; <UNPREDICTABLE>
   118b8:	00214ce3 	eoreq	r4, r1, r3, ror #25
   118bc:	00214ced 	eoreq	r4, r1, sp, ror #25
   118c0:	00214cf7 	strdeq	r4, [r1], -r7	; <UNPREDICTABLE>
   118c4:	00214d03 	eoreq	r4, r1, r3, lsl #26
   118c8:	00214d0e 	eoreq	r4, r1, lr, lsl #26
   118cc:	00214d1b 	eoreq	r4, r1, fp, lsl sp
   118d0:	00214d26 	eoreq	r4, r1, r6, lsr #26
   118d4:	00214d31 	eoreq	r4, r1, r1, lsr sp
   118d8:	00214d3d 	eoreq	r4, r1, sp, lsr sp
   118dc:	00214d4d 	eoreq	r4, r1, sp, asr #26
   118e0:	00214d5d 	eoreq	r4, r1, sp, asr sp
   118e4:	00214d6d 	eoreq	r4, r1, sp, ror #26
   118e8:	00214d7a 	eoreq	r4, r1, sl, ror sp
   118ec:	00214d8c 	eoreq	r4, r1, ip, lsl #27
   118f0:	00214d9b 	mlaeq	r1, fp, sp, r4
   118f4:	00214da5 	eoreq	r4, r1, r5, lsr #27
   118f8:	00214daf 	eoreq	r4, r1, pc, lsr #27
   118fc:	00214dbd 			; <UNDEFINED> instruction: 0x00214dbd
   11900:	00214dcc 	eoreq	r4, r1, ip, asr #27
   11904:	00214dda 	ldrdeq	r4, [r1], -sl	; <UNPREDICTABLE>
   11908:	00214de9 	eoreq	r4, r1, r9, ror #27
   1190c:	00214dee 	eoreq	r4, r1, lr, ror #27
   11910:	00214de9 	eoreq	r4, r1, r9, ror #27
   11914:	00214dfc 	strdeq	r4, [r1], -ip	; <UNPREDICTABLE>
   11918:	00214e08 	eoreq	r4, r1, r8, lsl #28
   1191c:	00214e16 	eoreq	r4, r1, r6, lsl lr
   11920:	00214e25 	eoreq	r4, r1, r5, lsr #28
   11924:	00214e30 	eoreq	r4, r1, r0, lsr lr
   11928:	00214e3d 	eoreq	r4, r1, sp, lsr lr
   1192c:	00214e4a 	eoreq	r4, r1, sl, asr #28
   11930:	00214e5a 	eoreq	r4, r1, sl, asr lr
   11934:	00214e66 	eoreq	r4, r1, r6, ror #28
   11938:	00214e73 	eoreq	r4, r1, r3, ror lr
   1193c:	00214e82 	eoreq	r4, r1, r2, lsl #29
	...
